Archive member included to satisfy reference by file (symbol)

app/libapp.a(main.c.obj)      (--whole-archive)
app/libapp.a(test_module.c.obj)
                              (--whole-archive)
app/libapp.a(dynamic_cmd.c.obj)
                              (--whole-archive)
app/libapp.a(qsort.c.obj)     (--whole-archive)
zephyr/libzephyr.a(cbprintf.c.obj)
                              (--whole-archive)
zephyr/libzephyr.a(cbprintf_packaged.c.obj)
                              (--whole-archive)
zephyr/libzephyr.a(crc32c_sw.c.obj)
                              (--whole-archive)
zephyr/libzephyr.a(crc32_sw.c.obj)
                              (--whole-archive)
zephyr/libzephyr.a(crc16_sw.c.obj)
                              (--whole-archive)
zephyr/libzephyr.a(crc8_sw.c.obj)
                              (--whole-archive)
zephyr/libzephyr.a(crc7_sw.c.obj)
                              (--whole-archive)
zephyr/libzephyr.a(dec.c.obj)
                              (--whole-archive)
zephyr/libzephyr.a(fdtable.c.obj)
                              (--whole-archive)
zephyr/libzephyr.a(hex.c.obj)
                              (--whole-archive)
zephyr/libzephyr.a(notify.c.obj)
                              (--whole-archive)
zephyr/libzephyr.a(printk.c.obj)
                              (--whole-archive)
zephyr/libzephyr.a(onoff.c.obj)
                              (--whole-archive)
zephyr/libzephyr.a(rb.c.obj)  (--whole-archive)
zephyr/libzephyr.a(sem.c.obj)
                              (--whole-archive)
zephyr/libzephyr.a(thread_entry.c.obj)
                              (--whole-archive)
zephyr/libzephyr.a(timeutil.c.obj)
                              (--whole-archive)
zephyr/libzephyr.a(heap.c.obj)
                              (--whole-archive)
zephyr/libzephyr.a(heap-validate.c.obj)
                              (--whole-archive)
zephyr/libzephyr.a(bitarray.c.obj)
                              (--whole-archive)
zephyr/libzephyr.a(cbprintf_complete.c.obj)
                              (--whole-archive)
zephyr/libzephyr.a(ring_buffer.c.obj)
                              (--whole-archive)
zephyr/libzephyr.a(mpsc_pbuf.c.obj)
                              (--whole-archive)
zephyr/libzephyr.a(reboot.c.obj)
                              (--whole-archive)
zephyr/libzephyr.a(fnmatch.c.obj)
                              (--whole-archive)
zephyr/libzephyr.a(configs.c.obj)
                              (--whole-archive)
zephyr/libzephyr.a(soc.c.obj)
                              (--whole-archive)
zephyr/libzephyr.a(power.c.obj)
                              (--whole-archive)
zephyr/libzephyr.a(validate_base_addresses.c.obj)
                              (--whole-archive)
zephyr/libzephyr.a(validate_enabled_instances.c.obj)
                              (--whole-archive)
zephyr/libzephyr.a(log_list.c.obj)
                              (--whole-archive)
zephyr/libzephyr.a(log_core.c.obj)
                              (--whole-archive)
zephyr/libzephyr.a(log_msg.c.obj)
                              (--whole-archive)
zephyr/libzephyr.a(log_output.c.obj)
                              (--whole-archive)
zephyr/libzephyr.a(log_cmds.c.obj)
                              (--whole-archive)
zephyr/libzephyr.a(kernel_service.c.obj)
                              (--whole-archive)
zephyr/libzephyr.a(device_service.c.obj)
                              (--whole-archive)
zephyr/libzephyr.a(date_service.c.obj)
                              (--whole-archive)
zephyr/libzephyr.a(shell.c.obj)
                              (--whole-archive)
zephyr/libzephyr.a(shell_fprintf.c.obj)
                              (--whole-archive)
zephyr/libzephyr.a(shell_utils.c.obj)
                              (--whole-archive)
zephyr/libzephyr.a(shell_ops.c.obj)
                              (--whole-archive)
zephyr/libzephyr.a(shell_uart.c.obj)
                              (--whole-archive)
zephyr/libzephyr.a(shell_help.c.obj)
                              (--whole-archive)
zephyr/libzephyr.a(shell_cmds.c.obj)
                              (--whole-archive)
zephyr/libzephyr.a(shell_history.c.obj)
                              (--whole-archive)
zephyr/libzephyr.a(shell_log_backend.c.obj)
                              (--whole-archive)
zephyr/libzephyr.a(shell_wildcard.c.obj)
                              (--whole-archive)
zephyr/libzephyr.a(power.c.obj)
                              (--whole-archive)
zephyr/libzephyr.a(pm_ctrl.c.obj)
                              (--whole-archive)
zephyr/libzephyr.a(policy_residency.c.obj)
                              (--whole-archive)
zephyr/libzephyr.a(uart_console.c.obj)
                              (--whole-archive)
zephyr/libzephyr.a(clock_control_nrf.c.obj)
                              (--whole-archive)
zephyr/libzephyr.a(sys_clock_init.c.obj)
                              (--whole-archive)
zephyr/libzephyr.a(nrf_rtc_timer.c.obj)
                              (--whole-archive)
zephyr/libzephyr.a(secure_services_ns.c.obj)
                              (--whole-archive)
zephyr/libzephyr.a(flash_map_partition_manager.c.obj)
                              (--whole-archive)
zephyr/arch/common/libarch__common.a(sw_isr_common.c.obj)
                              (--whole-archive)
zephyr/arch/arch/arm/core/aarch32/libarch__arm__core__aarch32.a(swap.c.obj)
                              (--whole-archive)
zephyr/arch/arch/arm/core/aarch32/libarch__arm__core__aarch32.a(irq_manage.c.obj)
                              (--whole-archive)
zephyr/arch/arch/arm/core/aarch32/libarch__arm__core__aarch32.a(thread.c.obj)
                              (--whole-archive)
zephyr/arch/arch/arm/core/aarch32/libarch__arm__core__aarch32.a(fatal.c.obj)
                              (--whole-archive)
zephyr/arch/arch/arm/core/aarch32/libarch__arm__core__aarch32.a(nmi.c.obj)
                              (--whole-archive)
zephyr/arch/arch/arm/core/aarch32/libarch__arm__core__aarch32.a(prep_c.c.obj)
                              (--whole-archive)
zephyr/arch/arch/arm/core/aarch32/libarch__arm__core__aarch32.a(swap_helper.S.obj)
                              (--whole-archive)
zephyr/arch/arch/arm/core/aarch32/libarch__arm__core__aarch32.a(cpu_idle.S.obj)
                              (--whole-archive)
zephyr/arch/arch/arm/core/aarch32/libarch__arm__core__aarch32.a(nmi_on_reset.S.obj)
                              (--whole-archive)
zephyr/arch/arch/arm/core/aarch32/libarch__arm__core__aarch32.a(isr_wrapper.S.obj)
                              (--whole-archive)
zephyr/arch/arch/arm/core/aarch32/cortex_m/libarch__arm__core__aarch32__cortex_m.a(vector_table.S.obj)
                              (--whole-archive)
zephyr/arch/arch/arm/core/aarch32/cortex_m/libarch__arm__core__aarch32__cortex_m.a(reset.S.obj)
                              (--whole-archive)
zephyr/arch/arch/arm/core/aarch32/cortex_m/libarch__arm__core__aarch32__cortex_m.a(fault_s.S.obj)
                              (--whole-archive)
zephyr/arch/arch/arm/core/aarch32/cortex_m/libarch__arm__core__aarch32__cortex_m.a(exc_exit.S.obj)
                              (--whole-archive)
zephyr/arch/arch/arm/core/aarch32/cortex_m/libarch__arm__core__aarch32__cortex_m.a(fault.c.obj)
                              (--whole-archive)
zephyr/arch/arch/arm/core/aarch32/cortex_m/libarch__arm__core__aarch32__cortex_m.a(fpu.c.obj)
                              (--whole-archive)
zephyr/arch/arch/arm/core/aarch32/cortex_m/libarch__arm__core__aarch32__cortex_m.a(scb.c.obj)
                              (--whole-archive)
zephyr/arch/arch/arm/core/aarch32/cortex_m/libarch__arm__core__aarch32__cortex_m.a(irq_init.c.obj)
                              (--whole-archive)
zephyr/arch/arch/arm/core/aarch32/cortex_m/libarch__arm__core__aarch32__cortex_m.a(thread_abort.c.obj)
                              (--whole-archive)
zephyr/arch/arch/arm/core/aarch32/cortex_m/cmse/libarch__arm__core__aarch32__cortex_m__cmse.a(arm_core_cmse.c.obj)
                              (--whole-archive)
zephyr/arch/arch/arm/core/aarch32/mpu/libarch__arm__core__aarch32__mpu.a(arm_core_mpu.c.obj)
                              (--whole-archive)
zephyr/arch/arch/arm/core/aarch32/mpu/libarch__arm__core__aarch32__mpu.a(arm_mpu.c.obj)
                              (--whole-archive)
zephyr/lib/libc/minimal/liblib__libc__minimal.a(abort.c.obj)
                              (--whole-archive)
zephyr/lib/libc/minimal/liblib__libc__minimal.a(atoi.c.obj)
                              (--whole-archive)
zephyr/lib/libc/minimal/liblib__libc__minimal.a(strtol.c.obj)
                              (--whole-archive)
zephyr/lib/libc/minimal/liblib__libc__minimal.a(strtoul.c.obj)
                              (--whole-archive)
zephyr/lib/libc/minimal/liblib__libc__minimal.a(malloc.c.obj)
                              (--whole-archive)
zephyr/lib/libc/minimal/liblib__libc__minimal.a(bsearch.c.obj)
                              (--whole-archive)
zephyr/lib/libc/minimal/liblib__libc__minimal.a(exit.c.obj)
                              (--whole-archive)
zephyr/lib/libc/minimal/liblib__libc__minimal.a(strncasecmp.c.obj)
                              (--whole-archive)
zephyr/lib/libc/minimal/liblib__libc__minimal.a(strstr.c.obj)
                              (--whole-archive)
zephyr/lib/libc/minimal/liblib__libc__minimal.a(string.c.obj)
                              (--whole-archive)
zephyr/lib/libc/minimal/liblib__libc__minimal.a(strspn.c.obj)
                              (--whole-archive)
zephyr/lib/libc/minimal/liblib__libc__minimal.a(stdout_console.c.obj)
                              (--whole-archive)
zephyr/lib/libc/minimal/liblib__libc__minimal.a(sprintf.c.obj)
                              (--whole-archive)
zephyr/lib/libc/minimal/liblib__libc__minimal.a(fprintf.c.obj)
                              (--whole-archive)
zephyr/lib/libc/minimal/liblib__libc__minimal.a(gmtime.c.obj)
                              (--whole-archive)
zephyr/lib/libc/minimal/liblib__libc__minimal.a(time.c.obj)
                              (--whole-archive)
zephyr/lib/posix/liblib__posix.a(pthread_common.c.obj)
                              (--whole-archive)
zephyr/lib/posix/liblib__posix.a(clock.c.obj)
                              (--whole-archive)
zephyr/lib/posix/liblib__posix.a(sleep.c.obj)
                              (--whole-archive)
zephyr/lib/posix/liblib__posix.a(timer.c.obj)
                              (--whole-archive)
zephyr/lib/posix/liblib__posix.a(nanosleep.c.obj)
                              (--whole-archive)
zephyr/soc/arm/common/cortex_m/libsoc__arm__common__cortex_m.a(arm_mpu_regions.c.obj)
                              (--whole-archive)
zephyr/subsys/random/libsubsys__random.a(rand32_entropy_device.c.obj)
                              (--whole-archive)
zephyr/drivers/gpio/libdrivers__gpio.a(gpio_nrfx.c.obj)
                              (--whole-archive)
zephyr/drivers/serial/libdrivers__serial.a(uart_nrfx_uarte.c.obj)
                              (--whole-archive)
zephyr/drivers/entropy/libdrivers__entropy.a(entropy_cc310.c.obj)
                              (--whole-archive)
modules/nrf/lib/fatal_error/lib..__nrf__lib__fatal_error.a(fatal_error.c.obj)
                              (--whole-archive)
modules/nrf/subsys/fw_info/lib..__nrf__subsys__fw_info.a(fw_info.c.obj)
                              (--whole-archive)
modules/hal_nordic/nrfx/libmodules__hal_nordic__nrfx.a(system_nrf5340_application.c.obj)
                              (--whole-archive)
modules/hal_nordic/nrfx/libmodules__hal_nordic__nrfx.a(nrfx_glue.c.obj)
                              (--whole-archive)
modules/hal_nordic/nrfx/libmodules__hal_nordic__nrfx.a(nrfx_clock.c.obj)
                              (--whole-archive)
modules/hal_nordic/nrfx/libmodules__hal_nordic__nrfx.a(nrfx_dppi.c.obj)
                              (--whole-archive)
modules/hal_nordic/nrfx/libmodules__hal_nordic__nrfx.a(nrfx_gpiote.c.obj)
                              (--whole-archive)
modules/hal_nordic/nrfx/libmodules__hal_nordic__nrfx.a(nrfx_nvmc.c.obj)
                              (--whole-archive)
zephyr/kernel/libkernel.a(device.c.obj)
                              zephyr/libzephyr.a(device_service.c.obj) (z_device_get_all_static)
zephyr/kernel/libkernel.a(errno.c.obj)
                              zephyr/libzephyr.a(fdtable.c.obj) (z_impl_z_errno)
zephyr/kernel/libkernel.a(fatal.c.obj)
                              zephyr/arch/arch/arm/core/aarch32/libarch__arm__core__aarch32.a(fatal.c.obj) (z_fatal_error)
zephyr/kernel/libkernel.a(init.c.obj)
                              zephyr/arch/arch/arm/core/aarch32/libarch__arm__core__aarch32.a(prep_c.c.obj) (z_bss_zero)
zephyr/kernel/libkernel.a(mem_slab.c.obj)
                              zephyr/libzephyr.a(log_core.c.obj) (k_mem_slab_init)
zephyr/kernel/libkernel.a(thread.c.obj)
                              zephyr/libzephyr.a(kernel_service.c.obj) (k_thread_foreach)
zephyr/kernel/libkernel.a(version.c.obj)
                              zephyr/libzephyr.a(kernel_service.c.obj) (sys_kernel_version_get)
zephyr/kernel/libkernel.a(idle.c.obj)
                              zephyr/arch/arch/arm/core/aarch32/libarch__arm__core__aarch32.a(irq_manage.c.obj) (z_pm_save_idle_exit)
zephyr/kernel/libkernel.a(msg_q.c.obj)
                              zephyr/libzephyr.a(shell_log_backend.c.obj) (z_impl_k_msgq_put)
zephyr/kernel/libkernel.a(mutex.c.obj)
                              zephyr/libzephyr.a(fdtable.c.obj) (z_impl_k_mutex_init)
zephyr/kernel/libkernel.a(sem.c.obj)
                              zephyr/libzephyr.a(sem.c.obj) (z_impl_k_sem_init)
zephyr/kernel/libkernel.a(sched.c.obj)
                              zephyr/kernel/libkernel.a(mem_slab.c.obj) (z_reschedule)
zephyr/kernel/libkernel.a(xip.c.obj)
                              zephyr/arch/arch/arm/core/aarch32/libarch__arm__core__aarch32.a(prep_c.c.obj) (z_data_copy)
zephyr/kernel/libkernel.a(timeout.c.obj)
                              zephyr/kernel/libkernel.a(thread.c.obj) (z_add_timeout)
zephyr/kernel/libkernel.a(timer.c.obj)
                              app/libapp.a(main.c.obj) (z_timer_expiration_handler)
zephyr/kernel/libkernel.a(poll.c.obj)
                              zephyr/libzephyr.a(shell.c.obj) (k_poll_event_init)
zephyr/kernel/libkernel.a(mempool.c.obj)
                              zephyr/kernel/libkernel.a(msg_q.c.obj) (k_free)
zephyr/kernel/libkernel.a(banner.c.obj)
                              zephyr/kernel/libkernel.a(init.c.obj) (boot_banner)
zephyr/kernel/libkernel.a(kheap.c.obj)
                              zephyr/kernel/libkernel.a(mempool.c.obj) (k_heap_aligned_alloc)
zephyr/kernel/libkernel.a(system_work_q.c.obj)
                              zephyr/kernel/libkernel.a(poll.c.obj) (k_sys_work_q)
zephyr/kernel/libkernel.a(work.c.obj)
                              zephyr/kernel/libkernel.a(poll.c.obj) (k_work_init)
c:/ncs/v1.6.0/toolchain/opt/bin/../lib/gcc/arm-none-eabi/9.2.1/thumb/v8-m.main/nofp\libgcc.a(cmse.o)
                              zephyr/arch/arch/arm/core/aarch32/cortex_m/cmse/libarch__arm__core__aarch32__cortex_m__cmse.a(arm_core_cmse.c.obj) (cmse_check_address_range)
c:/ncs/v1.6.0/toolchain/opt/bin/../lib/gcc/arm-none-eabi/9.2.1/thumb/v8-m.main/nofp\libgcc.a(_arm_muldf3.o)
                              zephyr/libzephyr.a(timeutil.c.obj) (__aeabi_dmul)
c:/ncs/v1.6.0/toolchain/opt/bin/../lib/gcc/arm-none-eabi/9.2.1/thumb/v8-m.main/nofp\libgcc.a(_arm_mulsf3.o)
                              zephyr/libzephyr.a(timeutil.c.obj) (__aeabi_fmul)
c:/ncs/v1.6.0/toolchain/opt/bin/../lib/gcc/arm-none-eabi/9.2.1/thumb/v8-m.main/nofp\libgcc.a(_arm_addsubdf3.o)
                              zephyr/libzephyr.a(timeutil.c.obj) (__aeabi_dsub)
c:/ncs/v1.6.0/toolchain/opt/bin/../lib/gcc/arm-none-eabi/9.2.1/thumb/v8-m.main/nofp\libgcc.a(_arm_muldivdf3.o)
                              zephyr/libzephyr.a(timeutil.c.obj) (__aeabi_ddiv)
c:/ncs/v1.6.0/toolchain/opt/bin/../lib/gcc/arm-none-eabi/9.2.1/thumb/v8-m.main/nofp\libgcc.a(_arm_truncdfsf2.o)
                              zephyr/libzephyr.a(timeutil.c.obj) (__aeabi_d2f)
c:/ncs/v1.6.0/toolchain/opt/bin/../lib/gcc/arm-none-eabi/9.2.1/thumb/v8-m.main/nofp\libgcc.a(_arm_addsubsf3.o)
                              zephyr/libzephyr.a(timeutil.c.obj) (__aeabi_l2f)
c:/ncs/v1.6.0/toolchain/opt/bin/../lib/gcc/arm-none-eabi/9.2.1/thumb/v8-m.main/nofp\libgcc.a(_arm_muldivsf3.o)
                              zephyr/libzephyr.a(timeutil.c.obj) (__aeabi_fdiv)
c:/ncs/v1.6.0/toolchain/opt/bin/../lib/gcc/arm-none-eabi/9.2.1/thumb/v8-m.main/nofp\libgcc.a(_arm_cmpsf2.o)
                              zephyr/libzephyr.a(timeutil.c.obj) (__aeabi_fcmpeq)
c:/ncs/v1.6.0/toolchain/opt/bin/../lib/gcc/arm-none-eabi/9.2.1/thumb/v8-m.main/nofp\libgcc.a(_aeabi_ldivmod.o)
                              zephyr/libzephyr.a(timeutil.c.obj) (__aeabi_ldivmod)
c:/ncs/v1.6.0/toolchain/opt/bin/../lib/gcc/arm-none-eabi/9.2.1/thumb/v8-m.main/nofp\libgcc.a(_aeabi_uldivmod.o)
                              zephyr/libzephyr.a(cbprintf_complete.c.obj) (__aeabi_uldivmod)
c:/ncs/v1.6.0/toolchain/opt/bin/../lib/gcc/arm-none-eabi/9.2.1/thumb/v8-m.main/nofp\libgcc.a(_fixsfdi.o)
                              zephyr/libzephyr.a(timeutil.c.obj) (__aeabi_f2lz)
c:/ncs/v1.6.0/toolchain/opt/bin/../lib/gcc/arm-none-eabi/9.2.1/thumb/v8-m.main/nofp\libgcc.a(_fixdfdi.o)
                              zephyr/libzephyr.a(timeutil.c.obj) (__aeabi_d2lz)
c:/ncs/v1.6.0/toolchain/opt/bin/../lib/gcc/arm-none-eabi/9.2.1/thumb/v8-m.main/nofp\libgcc.a(_fixunssfdi.o)
                              c:/ncs/v1.6.0/toolchain/opt/bin/../lib/gcc/arm-none-eabi/9.2.1/thumb/v8-m.main/nofp\libgcc.a(_fixsfdi.o) (__aeabi_f2ulz)
c:/ncs/v1.6.0/toolchain/opt/bin/../lib/gcc/arm-none-eabi/9.2.1/thumb/v8-m.main/nofp\libgcc.a(_fixunsdfdi.o)
                              c:/ncs/v1.6.0/toolchain/opt/bin/../lib/gcc/arm-none-eabi/9.2.1/thumb/v8-m.main/nofp\libgcc.a(_fixdfdi.o) (__aeabi_d2ulz)
c:/ncs/v1.6.0/toolchain/opt/bin/../lib/gcc/arm-none-eabi/9.2.1/thumb/v8-m.main/nofp\libgcc.a(_udivmoddi4.o)
                              c:/ncs/v1.6.0/toolchain/opt/bin/../lib/gcc/arm-none-eabi/9.2.1/thumb/v8-m.main/nofp\libgcc.a(_aeabi_ldivmod.o) (__udivmoddi4)
c:/ncs/v1.6.0/toolchain/opt/bin/../lib/gcc/arm-none-eabi/9.2.1/thumb/v8-m.main/nofp\libgcc.a(_dvmd_tls.o)
                              c:/ncs/v1.6.0/toolchain/opt/bin/../lib/gcc/arm-none-eabi/9.2.1/thumb/v8-m.main/nofp\libgcc.a(_aeabi_ldivmod.o) (__aeabi_ldiv0)
c:/ncs/v1.6.0/toolchain/opt/bin/../lib/gcc/arm-none-eabi/9.2.1/thumb/v8-m.main/nofp\libgcc.a(_arm_cmpdf2.o)
                              c:/ncs/v1.6.0/toolchain/opt/bin/../lib/gcc/arm-none-eabi/9.2.1/thumb/v8-m.main/nofp\libgcc.a(_fixdfdi.o) (__aeabi_dcmplt)
c:/ncs/v1.6.0/toolchain/opt/bin/../lib/gcc/arm-none-eabi/9.2.1/thumb/v8-m.main/nofp\libgcc.a(_arm_fixunsdfsi.o)
                              c:/ncs/v1.6.0/toolchain/opt/bin/../lib/gcc/arm-none-eabi/9.2.1/thumb/v8-m.main/nofp\libgcc.a(_fixunssfdi.o) (__aeabi_d2uiz)
../mylib/src/libblst.a(server.o)
                              app/libapp.a(main.c.obj) (blst_p1_to_affine)
zephyr/arch/common/libisr_tables.a(isr_tables.c.obj)
                              zephyr/arch/arch/arm/core/aarch32/libarch__arm__core__aarch32.a(isr_wrapper.S.obj) (_sw_isr_table)

Discarded input sections

 .text          0x00000000        0x0 zephyr/CMakeFiles/zephyr_prebuilt.dir/misc/empty_file.c.obj
 .data          0x00000000        0x0 zephyr/CMakeFiles/zephyr_prebuilt.dir/misc/empty_file.c.obj
 .bss           0x00000000        0x0 zephyr/CMakeFiles/zephyr_prebuilt.dir/misc/empty_file.c.obj
 .debug_line    0x00000000        0x0 zephyr/CMakeFiles/zephyr_prebuilt.dir/misc/empty_file.c.obj
 .debug_str     0x00000000      0x1c5 zephyr/CMakeFiles/zephyr_prebuilt.dir/misc/empty_file.c.obj
 .comment       0x00000000       0x7a zephyr/CMakeFiles/zephyr_prebuilt.dir/misc/empty_file.c.obj
 .text          0x00000000        0x0 app/libapp.a(main.c.obj)
 .data          0x00000000        0x0 app/libapp.a(main.c.obj)
 .bss           0x00000000        0x0 app/libapp.a(main.c.obj)
 .bss.public_keys_store
                0x00000000      0x5a0 app/libapp.a(main.c.obj)
 .text          0x00000000        0x0 app/libapp.a(test_module.c.obj)
 .data          0x00000000        0x0 app/libapp.a(test_module.c.obj)
 .bss           0x00000000        0x0 app/libapp.a(test_module.c.obj)
 .rodata.foo.str1.1
                0x00000000       0x29 app/libapp.a(test_module.c.obj)
 .text.foo      0x00000000       0x6c app/libapp.a(test_module.c.obj)
 .text          0x00000000        0x0 app/libapp.a(dynamic_cmd.c.obj)
 .data          0x00000000        0x0 app/libapp.a(dynamic_cmd.c.obj)
 .bss           0x00000000        0x0 app/libapp.a(dynamic_cmd.c.obj)
 .text          0x00000000        0x0 app/libapp.a(qsort.c.obj)
 .data          0x00000000        0x0 app/libapp.a(qsort.c.obj)
 .bss           0x00000000        0x0 app/libapp.a(qsort.c.obj)
 .text          0x00000000        0x0 zephyr/libzephyr.a(cbprintf.c.obj)
 .data          0x00000000        0x0 zephyr/libzephyr.a(cbprintf.c.obj)
 .bss           0x00000000        0x0 zephyr/libzephyr.a(cbprintf.c.obj)
 .text.cbprintf
                0x00000000       0x1a zephyr/libzephyr.a(cbprintf.c.obj)
 .debug_info    0x00000000      0x179 zephyr/libzephyr.a(cbprintf.c.obj)
 .debug_abbrev  0x00000000      0x10c zephyr/libzephyr.a(cbprintf.c.obj)
 .debug_loc     0x00000000       0x5f zephyr/libzephyr.a(cbprintf.c.obj)
 .debug_aranges
                0x00000000       0x20 zephyr/libzephyr.a(cbprintf.c.obj)
 .debug_ranges  0x00000000       0x10 zephyr/libzephyr.a(cbprintf.c.obj)
 .debug_line    0x00000000       0xfd zephyr/libzephyr.a(cbprintf.c.obj)
 .debug_str     0x00000000      0x2a6 zephyr/libzephyr.a(cbprintf.c.obj)
 .comment       0x00000000       0x7a zephyr/libzephyr.a(cbprintf.c.obj)
 .debug_frame   0x00000000       0x38 zephyr/libzephyr.a(cbprintf.c.obj)
 .text          0x00000000        0x0 zephyr/libzephyr.a(cbprintf_packaged.c.obj)
 .data          0x00000000        0x0 zephyr/libzephyr.a(cbprintf_packaged.c.obj)
 .bss           0x00000000        0x0 zephyr/libzephyr.a(cbprintf_packaged.c.obj)
 .text.cbvprintf_package
                0x00000000      0x380 zephyr/libzephyr.a(cbprintf_packaged.c.obj)
 .text.cbprintf_package
                0x00000000       0x1a zephyr/libzephyr.a(cbprintf_packaged.c.obj)
 .text.cbpprintf
                0x00000000       0x50 zephyr/libzephyr.a(cbprintf_packaged.c.obj)
 .debug_info    0x00000000      0x632 zephyr/libzephyr.a(cbprintf_packaged.c.obj)
 .debug_abbrev  0x00000000      0x306 zephyr/libzephyr.a(cbprintf_packaged.c.obj)
 .debug_loc     0x00000000      0x9ff zephyr/libzephyr.a(cbprintf_packaged.c.obj)
 .debug_aranges
                0x00000000       0x30 zephyr/libzephyr.a(cbprintf_packaged.c.obj)
 .debug_ranges  0x00000000       0x70 zephyr/libzephyr.a(cbprintf_packaged.c.obj)
 .debug_line    0x00000000      0x592 zephyr/libzephyr.a(cbprintf_packaged.c.obj)
 .debug_str     0x00000000      0x3a7 zephyr/libzephyr.a(cbprintf_packaged.c.obj)
 .comment       0x00000000       0x7a zephyr/libzephyr.a(cbprintf_packaged.c.obj)
 .debug_frame   0x00000000       0x9c zephyr/libzephyr.a(cbprintf_packaged.c.obj)
 .text          0x00000000        0x0 zephyr/libzephyr.a(crc32c_sw.c.obj)
 .data          0x00000000        0x0 zephyr/libzephyr.a(crc32c_sw.c.obj)
 .bss           0x00000000        0x0 zephyr/libzephyr.a(crc32c_sw.c.obj)
 .text.crc32_c  0x00000000       0x48 zephyr/libzephyr.a(crc32c_sw.c.obj)
 .rodata.crc32c_table
                0x00000000       0x40 zephyr/libzephyr.a(crc32c_sw.c.obj)
 .debug_info    0x00000000      0x16c zephyr/libzephyr.a(crc32c_sw.c.obj)
 .debug_abbrev  0x00000000       0xcd zephyr/libzephyr.a(crc32c_sw.c.obj)
 .debug_loc     0x00000000      0x104 zephyr/libzephyr.a(crc32c_sw.c.obj)
 .debug_aranges
                0x00000000       0x20 zephyr/libzephyr.a(crc32c_sw.c.obj)
 .debug_ranges  0x00000000       0x30 zephyr/libzephyr.a(crc32c_sw.c.obj)
 .debug_line    0x00000000      0x16e zephyr/libzephyr.a(crc32c_sw.c.obj)
 .debug_str     0x00000000      0x2a1 zephyr/libzephyr.a(crc32c_sw.c.obj)
 .comment       0x00000000       0x7a zephyr/libzephyr.a(crc32c_sw.c.obj)
 .debug_frame   0x00000000       0x2c zephyr/libzephyr.a(crc32c_sw.c.obj)
 .text          0x00000000        0x0 zephyr/libzephyr.a(crc32_sw.c.obj)
 .data          0x00000000        0x0 zephyr/libzephyr.a(crc32_sw.c.obj)
 .bss           0x00000000        0x0 zephyr/libzephyr.a(crc32_sw.c.obj)
 .text.crc32_ieee_update
                0x00000000       0x3c zephyr/libzephyr.a(crc32_sw.c.obj)
 .text.crc32_ieee
                0x00000000        0xa zephyr/libzephyr.a(crc32_sw.c.obj)
 .rodata.table.3736
                0x00000000       0x40 zephyr/libzephyr.a(crc32_sw.c.obj)
 .debug_info    0x00000000      0x1b3 zephyr/libzephyr.a(crc32_sw.c.obj)
 .debug_abbrev  0x00000000      0x117 zephyr/libzephyr.a(crc32_sw.c.obj)
 .debug_loc     0x00000000      0x160 zephyr/libzephyr.a(crc32_sw.c.obj)
 .debug_aranges
                0x00000000       0x28 zephyr/libzephyr.a(crc32_sw.c.obj)
 .debug_ranges  0x00000000       0x50 zephyr/libzephyr.a(crc32_sw.c.obj)
 .debug_line    0x00000000      0x1a1 zephyr/libzephyr.a(crc32_sw.c.obj)
 .debug_str     0x00000000      0x29a zephyr/libzephyr.a(crc32_sw.c.obj)
 .comment       0x00000000       0x7a zephyr/libzephyr.a(crc32_sw.c.obj)
 .debug_frame   0x00000000       0x3c zephyr/libzephyr.a(crc32_sw.c.obj)
 .text          0x00000000        0x0 zephyr/libzephyr.a(crc16_sw.c.obj)
 .data          0x00000000        0x0 zephyr/libzephyr.a(crc16_sw.c.obj)
 .bss           0x00000000        0x0 zephyr/libzephyr.a(crc16_sw.c.obj)
 .text.crc16    0x00000000       0x5a zephyr/libzephyr.a(crc16_sw.c.obj)
 .text.crc16_ccitt
                0x00000000       0x26 zephyr/libzephyr.a(crc16_sw.c.obj)
 .text.crc16_itu_t
                0x00000000       0x28 zephyr/libzephyr.a(crc16_sw.c.obj)
 .debug_info    0x00000000      0x25e zephyr/libzephyr.a(crc16_sw.c.obj)
 .debug_abbrev  0x00000000       0xe9 zephyr/libzephyr.a(crc16_sw.c.obj)
 .debug_loc     0x00000000      0x2e2 zephyr/libzephyr.a(crc16_sw.c.obj)
 .debug_aranges
                0x00000000       0x30 zephyr/libzephyr.a(crc16_sw.c.obj)
 .debug_ranges  0x00000000       0x40 zephyr/libzephyr.a(crc16_sw.c.obj)
 .debug_line    0x00000000      0x2b0 zephyr/libzephyr.a(crc16_sw.c.obj)
 .debug_str     0x00000000      0x2be zephyr/libzephyr.a(crc16_sw.c.obj)
 .comment       0x00000000       0x7a zephyr/libzephyr.a(crc16_sw.c.obj)
 .debug_frame   0x00000000       0x58 zephyr/libzephyr.a(crc16_sw.c.obj)
 .text          0x00000000        0x0 zephyr/libzephyr.a(crc8_sw.c.obj)
 .data          0x00000000        0x0 zephyr/libzephyr.a(crc8_sw.c.obj)
 .bss           0x00000000        0x0 zephyr/libzephyr.a(crc8_sw.c.obj)
 .text.crc8_ccitt
                0x00000000       0x30 zephyr/libzephyr.a(crc8_sw.c.obj)
 .text.crc8     0x00000000       0x3e zephyr/libzephyr.a(crc8_sw.c.obj)
 .rodata.crc8_ccitt_small_table
                0x00000000       0x10 zephyr/libzephyr.a(crc8_sw.c.obj)
 .debug_info    0x00000000      0x1f7 zephyr/libzephyr.a(crc8_sw.c.obj)
 .debug_abbrev  0x00000000       0xdc zephyr/libzephyr.a(crc8_sw.c.obj)
 .debug_loc     0x00000000      0x250 zephyr/libzephyr.a(crc8_sw.c.obj)
 .debug_aranges
                0x00000000       0x28 zephyr/libzephyr.a(crc8_sw.c.obj)
 .debug_ranges  0x00000000       0x18 zephyr/libzephyr.a(crc8_sw.c.obj)
 .debug_line    0x00000000      0x1f7 zephyr/libzephyr.a(crc8_sw.c.obj)
 .debug_str     0x00000000      0x2b2 zephyr/libzephyr.a(crc8_sw.c.obj)
 .comment       0x00000000       0x7a zephyr/libzephyr.a(crc8_sw.c.obj)
 .debug_frame   0x00000000       0x48 zephyr/libzephyr.a(crc8_sw.c.obj)
 .text          0x00000000        0x0 zephyr/libzephyr.a(crc7_sw.c.obj)
 .data          0x00000000        0x0 zephyr/libzephyr.a(crc7_sw.c.obj)
 .bss           0x00000000        0x0 zephyr/libzephyr.a(crc7_sw.c.obj)
 .text.crc7_be  0x00000000       0x20 zephyr/libzephyr.a(crc7_sw.c.obj)
 .debug_info    0x00000000      0x11b zephyr/libzephyr.a(crc7_sw.c.obj)
 .debug_abbrev  0x00000000       0xac zephyr/libzephyr.a(crc7_sw.c.obj)
 .debug_loc     0x00000000       0xc0 zephyr/libzephyr.a(crc7_sw.c.obj)
 .debug_aranges
                0x00000000       0x20 zephyr/libzephyr.a(crc7_sw.c.obj)
 .debug_ranges  0x00000000       0x10 zephyr/libzephyr.a(crc7_sw.c.obj)
 .debug_line    0x00000000      0x109 zephyr/libzephyr.a(crc7_sw.c.obj)
 .debug_str     0x00000000      0x270 zephyr/libzephyr.a(crc7_sw.c.obj)
 .comment       0x00000000       0x7a zephyr/libzephyr.a(crc7_sw.c.obj)
 .debug_frame   0x00000000       0x20 zephyr/libzephyr.a(crc7_sw.c.obj)
 .text          0x00000000        0x0 zephyr/libzephyr.a(dec.c.obj)
 .data          0x00000000        0x0 zephyr/libzephyr.a(dec.c.obj)
 .bss           0x00000000        0x0 zephyr/libzephyr.a(dec.c.obj)
 .text.u8_to_dec
                0x00000000       0x42 zephyr/libzephyr.a(dec.c.obj)
 .debug_info    0x00000000      0x11f zephyr/libzephyr.a(dec.c.obj)
 .debug_abbrev  0x00000000       0x9c zephyr/libzephyr.a(dec.c.obj)
 .debug_loc     0x00000000      0x107 zephyr/libzephyr.a(dec.c.obj)
 .debug_aranges
                0x00000000       0x20 zephyr/libzephyr.a(dec.c.obj)
 .debug_ranges  0x00000000       0x10 zephyr/libzephyr.a(dec.c.obj)
 .debug_line    0x00000000      0x120 zephyr/libzephyr.a(dec.c.obj)
 .debug_str     0x00000000      0x28d zephyr/libzephyr.a(dec.c.obj)
 .comment       0x00000000       0x7a zephyr/libzephyr.a(dec.c.obj)
 .debug_frame   0x00000000       0x30 zephyr/libzephyr.a(dec.c.obj)
 .text          0x00000000        0x0 zephyr/libzephyr.a(fdtable.c.obj)
 .data          0x00000000        0x0 zephyr/libzephyr.a(fdtable.c.obj)
 .bss           0x00000000        0x0 zephyr/libzephyr.a(fdtable.c.obj)
 .text.z_fdtable_call_ioctl.constprop.0
                0x00000000       0x1e zephyr/libzephyr.a(fdtable.c.obj)
 .text._check_fd
                0x00000000       0x2c zephyr/libzephyr.a(fdtable.c.obj)
 .text.z_get_fd_obj
                0x00000000       0x30 zephyr/libzephyr.a(fdtable.c.obj)
 .text.z_get_fd_obj_and_vtable
                0x00000000       0x34 zephyr/libzephyr.a(fdtable.c.obj)
 .text.z_reserve_fd
                0x00000000       0x6c zephyr/libzephyr.a(fdtable.c.obj)
 .text.z_finalize_fd
                0x00000000       0x30 zephyr/libzephyr.a(fdtable.c.obj)
 .text.z_free_fd
                0x00000000       0x3c zephyr/libzephyr.a(fdtable.c.obj)
 .text.z_alloc_fd
                0x00000000       0x1a zephyr/libzephyr.a(fdtable.c.obj)
 ._k_mutex.static.fdtable_lock
                0x00000000       0x14 zephyr/libzephyr.a(fdtable.c.obj)
 .bss.fdtable   0x00000000       0x80 zephyr/libzephyr.a(fdtable.c.obj)
 .debug_info    0x00000000     0x131c zephyr/libzephyr.a(fdtable.c.obj)
 .debug_abbrev  0x00000000      0x435 zephyr/libzephyr.a(fdtable.c.obj)
 .debug_loc     0x00000000      0x543 zephyr/libzephyr.a(fdtable.c.obj)
 .debug_aranges
                0x00000000       0x58 zephyr/libzephyr.a(fdtable.c.obj)
 .debug_ranges  0x00000000       0xc8 zephyr/libzephyr.a(fdtable.c.obj)
 .debug_line    0x00000000      0x792 zephyr/libzephyr.a(fdtable.c.obj)
 .debug_str     0x00000000      0xb15 zephyr/libzephyr.a(fdtable.c.obj)
 .comment       0x00000000       0x7a zephyr/libzephyr.a(fdtable.c.obj)
 .debug_frame   0x00000000       0xf8 zephyr/libzephyr.a(fdtable.c.obj)
 .text          0x00000000        0x0 zephyr/libzephyr.a(hex.c.obj)
 .data          0x00000000        0x0 zephyr/libzephyr.a(hex.c.obj)
 .bss           0x00000000        0x0 zephyr/libzephyr.a(hex.c.obj)
 .text          0x00000000        0x0 zephyr/libzephyr.a(notify.c.obj)
 .data          0x00000000        0x0 zephyr/libzephyr.a(notify.c.obj)
 .bss           0x00000000        0x0 zephyr/libzephyr.a(notify.c.obj)
 .text          0x00000000        0x0 zephyr/libzephyr.a(printk.c.obj)
 .data          0x00000000        0x0 zephyr/libzephyr.a(printk.c.obj)
 .bss           0x00000000        0x0 zephyr/libzephyr.a(printk.c.obj)
 .text.__printk_get_hook
                0x00000000        0xc zephyr/libzephyr.a(printk.c.obj)
 .text.z_impl_k_str_out
                0x00000000       0x1c zephyr/libzephyr.a(printk.c.obj)
 .text          0x00000000        0x0 zephyr/libzephyr.a(onoff.c.obj)
 .data          0x00000000        0x0 zephyr/libzephyr.a(onoff.c.obj)
 .bss           0x00000000        0x0 zephyr/libzephyr.a(onoff.c.obj)
 .text.onoff_release
                0x00000000       0x4a zephyr/libzephyr.a(onoff.c.obj)
 .text.onoff_reset
                0x00000000       0x64 zephyr/libzephyr.a(onoff.c.obj)
 .text.onoff_cancel
                0x00000000       0x60 zephyr/libzephyr.a(onoff.c.obj)
 .text.onoff_monitor_register
                0x00000000       0x3c zephyr/libzephyr.a(onoff.c.obj)
 .text.onoff_monitor_unregister
                0x00000000       0x5a zephyr/libzephyr.a(onoff.c.obj)
 .text.onoff_sync_lock
                0x00000000       0x16 zephyr/libzephyr.a(onoff.c.obj)
 .text.onoff_sync_finalize
                0x00000000       0x42 zephyr/libzephyr.a(onoff.c.obj)
 .text          0x00000000        0x0 zephyr/libzephyr.a(rb.c.obj)
 .data          0x00000000        0x0 zephyr/libzephyr.a(rb.c.obj)
 .bss           0x00000000        0x0 zephyr/libzephyr.a(rb.c.obj)
 .text.set_child
                0x00000000       0x12 zephyr/libzephyr.a(rb.c.obj)
 .text.find_and_stack
                0x00000000       0x3a zephyr/libzephyr.a(rb.c.obj)
 .text.rotate   0x00000000       0x7c zephyr/libzephyr.a(rb.c.obj)
 .text.stack_left_limb
                0x00000000       0x36 zephyr/libzephyr.a(rb.c.obj)
 .text.z_rb_get_minmax
                0x00000000       0x18 zephyr/libzephyr.a(rb.c.obj)
 .text.rb_insert
                0x00000000      0x132 zephyr/libzephyr.a(rb.c.obj)
 .text.rb_remove
                0x00000000      0x310 zephyr/libzephyr.a(rb.c.obj)
 .text.z_rb_walk
                0x00000000       0x24 zephyr/libzephyr.a(rb.c.obj)
 .text.z_rb_child
                0x00000000        0xe zephyr/libzephyr.a(rb.c.obj)
 .text.z_rb_is_black
                0x00000000        0x8 zephyr/libzephyr.a(rb.c.obj)
 .text.rb_contains
                0x00000000       0x2c zephyr/libzephyr.a(rb.c.obj)
 .text.z_rb_foreach_next
                0x00000000       0x58 zephyr/libzephyr.a(rb.c.obj)
 .debug_info    0x00000000     0x2863 zephyr/libzephyr.a(rb.c.obj)
 .debug_abbrev  0x00000000      0x580 zephyr/libzephyr.a(rb.c.obj)
 .debug_loc     0x00000000     0x20f9 zephyr/libzephyr.a(rb.c.obj)
 .debug_aranges
                0x00000000       0x78 zephyr/libzephyr.a(rb.c.obj)
 .debug_ranges  0x00000000      0x570 zephyr/libzephyr.a(rb.c.obj)
 .debug_line    0x00000000     0x1314 zephyr/libzephyr.a(rb.c.obj)
 .debug_str     0x00000000      0x8af zephyr/libzephyr.a(rb.c.obj)
 .comment       0x00000000       0x7a zephyr/libzephyr.a(rb.c.obj)
 .debug_frame   0x00000000      0x178 zephyr/libzephyr.a(rb.c.obj)
 .text          0x00000000        0x0 zephyr/libzephyr.a(sem.c.obj)
 .data          0x00000000        0x0 zephyr/libzephyr.a(sem.c.obj)
 .bss           0x00000000        0x0 zephyr/libzephyr.a(sem.c.obj)
 .text.sys_sem_init
                0x00000000        0xa zephyr/libzephyr.a(sem.c.obj)
 .text.sys_sem_give
                0x00000000        0xa zephyr/libzephyr.a(sem.c.obj)
 .text.sys_sem_take
                0x00000000       0x1e zephyr/libzephyr.a(sem.c.obj)
 .text.sys_sem_count_get
                0x00000000        0x4 zephyr/libzephyr.a(sem.c.obj)
 .debug_info    0x00000000      0xc1e zephyr/libzephyr.a(sem.c.obj)
 .debug_abbrev  0x00000000      0x271 zephyr/libzephyr.a(sem.c.obj)
 .debug_loc     0x00000000      0x205 zephyr/libzephyr.a(sem.c.obj)
 .debug_aranges
                0x00000000       0x38 zephyr/libzephyr.a(sem.c.obj)
 .debug_ranges  0x00000000       0x70 zephyr/libzephyr.a(sem.c.obj)
 .debug_line    0x00000000      0x46f zephyr/libzephyr.a(sem.c.obj)
 .debug_str     0x00000000      0x7e7 zephyr/libzephyr.a(sem.c.obj)
 .comment       0x00000000       0x7a zephyr/libzephyr.a(sem.c.obj)
 .debug_frame   0x00000000       0x68 zephyr/libzephyr.a(sem.c.obj)
 .text          0x00000000        0x0 zephyr/libzephyr.a(thread_entry.c.obj)
 .data          0x00000000        0x0 zephyr/libzephyr.a(thread_entry.c.obj)
 .bss           0x00000000        0x0 zephyr/libzephyr.a(thread_entry.c.obj)
 .text          0x00000000        0x0 zephyr/libzephyr.a(timeutil.c.obj)
 .data          0x00000000        0x0 zephyr/libzephyr.a(timeutil.c.obj)
 .bss           0x00000000        0x0 zephyr/libzephyr.a(timeutil.c.obj)
 .text.timeutil_sync_state_update
                0x00000000       0x66 zephyr/libzephyr.a(timeutil.c.obj)
 .text.timeutil_sync_state_set_skew
                0x00000000       0x3c zephyr/libzephyr.a(timeutil.c.obj)
 .text.timeutil_sync_estimate_skew
                0x00000000       0x92 zephyr/libzephyr.a(timeutil.c.obj)
 .text.timeutil_sync_ref_from_local
                0x00000000       0x96 zephyr/libzephyr.a(timeutil.c.obj)
 .text.timeutil_sync_local_from_ref
                0x00000000       0x7a zephyr/libzephyr.a(timeutil.c.obj)
 .text.timeutil_sync_skew_to_ppb
                0x00000000       0x44 zephyr/libzephyr.a(timeutil.c.obj)
 .text          0x00000000        0x0 zephyr/libzephyr.a(heap.c.obj)
 .data          0x00000000        0x0 zephyr/libzephyr.a(heap.c.obj)
 .bss           0x00000000        0x0 zephyr/libzephyr.a(heap.c.obj)
 .text.merge_chunks
                0x00000000       0x3c zephyr/libzephyr.a(heap.c.obj)
 .text.split_chunks
                0x00000000       0x4e zephyr/libzephyr.a(heap.c.obj)
 .text.free_list_remove_bidx
                0x00000000       0x5e zephyr/libzephyr.a(heap.c.obj)
 .text.free_list_remove
                0x00000000       0x2e zephyr/libzephyr.a(heap.c.obj)
 .text.alloc_chunk
                0x00000000       0x72 zephyr/libzephyr.a(heap.c.obj)
 .text.free_chunk
                0x00000000       0x84 zephyr/libzephyr.a(heap.c.obj)
 .text.sys_heap_free
                0x00000000       0x2c zephyr/libzephyr.a(heap.c.obj)
 .text.sys_heap_alloc
                0x00000000       0x6e zephyr/libzephyr.a(heap.c.obj)
 .text.sys_heap_aligned_alloc
                0x00000000       0xf6 zephyr/libzephyr.a(heap.c.obj)
 .text.sys_heap_aligned_realloc
                0x00000000      0x142 zephyr/libzephyr.a(heap.c.obj)
 .text          0x00000000        0x0 zephyr/libzephyr.a(heap-validate.c.obj)
 .data          0x00000000        0x0 zephyr/libzephyr.a(heap-validate.c.obj)
 .bss           0x00000000        0x0 zephyr/libzephyr.a(heap-validate.c.obj)
 .text.chunk_field
                0x00000000       0x16 zephyr/libzephyr.a(heap-validate.c.obj)
 .text.chunk_size
                0x00000000        0xc zephyr/libzephyr.a(heap-validate.c.obj)
 .text.set_chunk_used
                0x00000000       0x30 zephyr/libzephyr.a(heap-validate.c.obj)
 .text.right_chunk
                0x00000000        0xc zephyr/libzephyr.a(heap-validate.c.obj)
 .text.solo_free_header
                0x00000000       0x1a zephyr/libzephyr.a(heap-validate.c.obj)
 .text.rand32   0x00000000       0x3c zephyr/libzephyr.a(heap-validate.c.obj)
 .text.bucket_idx
                0x00000000       0x1a zephyr/libzephyr.a(heap-validate.c.obj)
 .text.max_chunkid
                0x00000000       0x10 zephyr/libzephyr.a(heap-validate.c.obj)
 .text.in_bounds
                0x00000000       0x32 zephyr/libzephyr.a(heap-validate.c.obj)
 .text.valid_chunk
                0x00000000       0xca zephyr/libzephyr.a(heap-validate.c.obj)
 .text.sys_heap_validate
                0x00000000      0x1a0 zephyr/libzephyr.a(heap-validate.c.obj)
 .text.sys_heap_stress
                0x00000000      0x108 zephyr/libzephyr.a(heap-validate.c.obj)
 .rodata.heap_print_info.str1.1
                0x00000000      0x186 zephyr/libzephyr.a(heap-validate.c.obj)
 .text.heap_print_info
                0x00000000      0x1bc zephyr/libzephyr.a(heap-validate.c.obj)
 .text.sys_heap_print_info
                0x00000000        0x6 zephyr/libzephyr.a(heap-validate.c.obj)
 .data.state.9558
                0x00000000        0x8 zephyr/libzephyr.a(heap-validate.c.obj)
 .debug_info    0x00000000     0x220d zephyr/libzephyr.a(heap-validate.c.obj)
 .debug_abbrev  0x00000000      0x4bf zephyr/libzephyr.a(heap-validate.c.obj)
 .debug_loc     0x00000000     0x11c3 zephyr/libzephyr.a(heap-validate.c.obj)
 .debug_aranges
                0x00000000       0x88 zephyr/libzephyr.a(heap-validate.c.obj)
 .debug_ranges  0x00000000      0x428 zephyr/libzephyr.a(heap-validate.c.obj)
 .debug_line    0x00000000      0xeed zephyr/libzephyr.a(heap-validate.c.obj)
 .debug_str     0x00000000      0xb11 zephyr/libzephyr.a(heap-validate.c.obj)
 .comment       0x00000000       0x7a zephyr/libzephyr.a(heap-validate.c.obj)
 .debug_frame   0x00000000      0x190 zephyr/libzephyr.a(heap-validate.c.obj)
 .text          0x00000000        0x0 zephyr/libzephyr.a(bitarray.c.obj)
 .data          0x00000000        0x0 zephyr/libzephyr.a(bitarray.c.obj)
 .bss           0x00000000        0x0 zephyr/libzephyr.a(bitarray.c.obj)
 .text.setup_bundle_data.isra.0
                0x00000000       0x3a zephyr/libzephyr.a(bitarray.c.obj)
 .text.match_region.isra.0
                0x00000000       0x8c zephyr/libzephyr.a(bitarray.c.obj)
 .text.is_region_set_clear
                0x00000000       0x52 zephyr/libzephyr.a(bitarray.c.obj)
 .text.set_region.isra.0
                0x00000000       0x8a zephyr/libzephyr.a(bitarray.c.obj)
 .text.set_clear_region
                0x00000000       0x4a zephyr/libzephyr.a(bitarray.c.obj)
 .text.sys_bitarray_set_bit
                0x00000000       0x42 zephyr/libzephyr.a(bitarray.c.obj)
 .text.sys_bitarray_clear_bit
                0x00000000       0x44 zephyr/libzephyr.a(bitarray.c.obj)
 .text.sys_bitarray_test_bit
                0x00000000       0x46 zephyr/libzephyr.a(bitarray.c.obj)
 .text.sys_bitarray_test_and_set_bit
                0x00000000       0x50 zephyr/libzephyr.a(bitarray.c.obj)
 .text.sys_bitarray_test_and_clear_bit
                0x00000000       0x52 zephyr/libzephyr.a(bitarray.c.obj)
 .text.sys_bitarray_alloc
                0x00000000       0xb0 zephyr/libzephyr.a(bitarray.c.obj)
 .text.sys_bitarray_free
                0x00000000       0x72 zephyr/libzephyr.a(bitarray.c.obj)
 .text.sys_bitarray_is_region_set
                0x00000000        0x6 zephyr/libzephyr.a(bitarray.c.obj)
 .text.sys_bitarray_is_region_cleared
                0x00000000        0x6 zephyr/libzephyr.a(bitarray.c.obj)
 .text.sys_bitarray_set_region
                0x00000000        0x6 zephyr/libzephyr.a(bitarray.c.obj)
 .text.sys_bitarray_clear_region
                0x00000000        0x6 zephyr/libzephyr.a(bitarray.c.obj)
 .debug_info    0x00000000     0x1cb1 zephyr/libzephyr.a(bitarray.c.obj)
 .debug_abbrev  0x00000000      0x45f zephyr/libzephyr.a(bitarray.c.obj)
 .debug_loc     0x00000000     0x1323 zephyr/libzephyr.a(bitarray.c.obj)
 .debug_aranges
                0x00000000       0x98 zephyr/libzephyr.a(bitarray.c.obj)
 .debug_ranges  0x00000000      0x220 zephyr/libzephyr.a(bitarray.c.obj)
 .debug_line    0x00000000      0xd4c zephyr/libzephyr.a(bitarray.c.obj)
 .debug_str     0x00000000      0x997 zephyr/libzephyr.a(bitarray.c.obj)
 .comment       0x00000000       0x7a zephyr/libzephyr.a(bitarray.c.obj)
 .debug_frame   0x00000000      0x1dc zephyr/libzephyr.a(bitarray.c.obj)
 .text          0x00000000        0x0 zephyr/libzephyr.a(cbprintf_complete.c.obj)
 .data          0x00000000        0x0 zephyr/libzephyr.a(cbprintf_complete.c.obj)
 .bss           0x00000000        0x0 zephyr/libzephyr.a(cbprintf_complete.c.obj)
 .text          0x00000000        0x0 zephyr/libzephyr.a(ring_buffer.c.obj)
 .data          0x00000000        0x0 zephyr/libzephyr.a(ring_buffer.c.obj)
 .bss           0x00000000        0x0 zephyr/libzephyr.a(ring_buffer.c.obj)
 .text.ring_buf_item_put
                0x00000000       0x94 zephyr/libzephyr.a(ring_buffer.c.obj)
 .text.ring_buf_item_get
                0x00000000       0xe2 zephyr/libzephyr.a(ring_buffer.c.obj)
 .text          0x00000000        0x0 zephyr/libzephyr.a(mpsc_pbuf.c.obj)
 .data          0x00000000        0x0 zephyr/libzephyr.a(mpsc_pbuf.c.obj)
 .bss           0x00000000        0x0 zephyr/libzephyr.a(mpsc_pbuf.c.obj)
 .text.free_space
                0x00000000       0x2a zephyr/libzephyr.a(mpsc_pbuf.c.obj)
 .text.idx_inc  0x00000000       0x1c zephyr/libzephyr.a(mpsc_pbuf.c.obj)
 .text.add_skip_item
                0x00000000       0x2c zephyr/libzephyr.a(mpsc_pbuf.c.obj)
 .text.drop_item_locked
                0x00000000       0xb4 zephyr/libzephyr.a(mpsc_pbuf.c.obj)
 .text.mpsc_pbuf_init
                0x00000000       0x3e zephyr/libzephyr.a(mpsc_pbuf.c.obj)
 .text.mpsc_pbuf_put_word
                0x00000000       0x84 zephyr/libzephyr.a(mpsc_pbuf.c.obj)
 .text.mpsc_pbuf_alloc
                0x00000000       0xec zephyr/libzephyr.a(mpsc_pbuf.c.obj)
 .text.mpsc_pbuf_commit
                0x00000000       0x3a zephyr/libzephyr.a(mpsc_pbuf.c.obj)
 .text.mpsc_pbuf_put_word_ext
                0x00000000       0x9e zephyr/libzephyr.a(mpsc_pbuf.c.obj)
 .text.mpsc_pbuf_put_data
                0x00000000       0xae zephyr/libzephyr.a(mpsc_pbuf.c.obj)
 .text.mpsc_pbuf_claim
                0x00000000       0x9c zephyr/libzephyr.a(mpsc_pbuf.c.obj)
 .text.mpsc_pbuf_free
                0x00000000       0x68 zephyr/libzephyr.a(mpsc_pbuf.c.obj)
 .text.mpsc_pbuf_is_pending
                0x00000000       0x16 zephyr/libzephyr.a(mpsc_pbuf.c.obj)
 .debug_info    0x00000000     0x1fe5 zephyr/libzephyr.a(mpsc_pbuf.c.obj)
 .debug_abbrev  0x00000000      0x528 zephyr/libzephyr.a(mpsc_pbuf.c.obj)
 .debug_loc     0x00000000      0xf2d zephyr/libzephyr.a(mpsc_pbuf.c.obj)
 .debug_aranges
                0x00000000       0x80 zephyr/libzephyr.a(mpsc_pbuf.c.obj)
 .debug_ranges  0x00000000      0x260 zephyr/libzephyr.a(mpsc_pbuf.c.obj)
 .debug_line    0x00000000      0xf13 zephyr/libzephyr.a(mpsc_pbuf.c.obj)
 .debug_str     0x00000000      0xa37 zephyr/libzephyr.a(mpsc_pbuf.c.obj)
 .comment       0x00000000       0x7a zephyr/libzephyr.a(mpsc_pbuf.c.obj)
 .debug_frame   0x00000000      0x1bc zephyr/libzephyr.a(mpsc_pbuf.c.obj)
 .text          0x00000000        0x0 zephyr/libzephyr.a(reboot.c.obj)
 .data          0x00000000        0x0 zephyr/libzephyr.a(reboot.c.obj)
 .bss           0x00000000        0x0 zephyr/libzephyr.a(reboot.c.obj)
 .text          0x00000000        0x0 zephyr/libzephyr.a(fnmatch.c.obj)
 .data          0x00000000        0x0 zephyr/libzephyr.a(fnmatch.c.obj)
 .bss           0x00000000        0x0 zephyr/libzephyr.a(fnmatch.c.obj)
 .text          0x00000000        0x0 zephyr/libzephyr.a(configs.c.obj)
 .data          0x00000000        0x0 zephyr/libzephyr.a(configs.c.obj)
 .bss           0x00000000        0x0 zephyr/libzephyr.a(configs.c.obj)
 .text          0x00000000        0x0 zephyr/libzephyr.a(soc.c.obj)
 .data          0x00000000        0x0 zephyr/libzephyr.a(soc.c.obj)
 .bss           0x00000000        0x0 zephyr/libzephyr.a(soc.c.obj)
 .text          0x00000000        0x0 zephyr/libzephyr.a(power.c.obj)
 .data          0x00000000        0x0 zephyr/libzephyr.a(power.c.obj)
 .bss           0x00000000        0x0 zephyr/libzephyr.a(power.c.obj)
 .text          0x00000000        0x0 zephyr/libzephyr.a(validate_base_addresses.c.obj)
 .data          0x00000000        0x0 zephyr/libzephyr.a(validate_base_addresses.c.obj)
 .bss           0x00000000        0x0 zephyr/libzephyr.a(validate_base_addresses.c.obj)
 .debug_info    0x00000000      0x8a3 zephyr/libzephyr.a(validate_base_addresses.c.obj)
 .debug_abbrev  0x00000000      0x166 zephyr/libzephyr.a(validate_base_addresses.c.obj)
 .debug_aranges
                0x00000000       0x18 zephyr/libzephyr.a(validate_base_addresses.c.obj)
 .debug_line    0x00000000      0x2df zephyr/libzephyr.a(validate_base_addresses.c.obj)
 .debug_str     0x00000000      0x6eb zephyr/libzephyr.a(validate_base_addresses.c.obj)
 .comment       0x00000000       0x7a zephyr/libzephyr.a(validate_base_addresses.c.obj)
 .text          0x00000000        0x0 zephyr/libzephyr.a(validate_enabled_instances.c.obj)
 .data          0x00000000        0x0 zephyr/libzephyr.a(validate_enabled_instances.c.obj)
 .bss           0x00000000        0x0 zephyr/libzephyr.a(validate_enabled_instances.c.obj)
 .debug_info    0x00000000      0x8a3 zephyr/libzephyr.a(validate_enabled_instances.c.obj)
 .debug_abbrev  0x00000000      0x166 zephyr/libzephyr.a(validate_enabled_instances.c.obj)
 .debug_aranges
                0x00000000       0x18 zephyr/libzephyr.a(validate_enabled_instances.c.obj)
 .debug_line    0x00000000      0x2df zephyr/libzephyr.a(validate_enabled_instances.c.obj)
 .debug_str     0x00000000      0x6ee zephyr/libzephyr.a(validate_enabled_instances.c.obj)
 .comment       0x00000000       0x7a zephyr/libzephyr.a(validate_enabled_instances.c.obj)
 .text          0x00000000        0x0 zephyr/libzephyr.a(log_list.c.obj)
 .data          0x00000000        0x0 zephyr/libzephyr.a(log_list.c.obj)
 .bss           0x00000000        0x0 zephyr/libzephyr.a(log_list.c.obj)
 .text          0x00000000        0x0 zephyr/libzephyr.a(log_core.c.obj)
 .data          0x00000000        0x0 zephyr/libzephyr.a(log_core.c.obj)
 .bss           0x00000000        0x0 zephyr/libzephyr.a(log_core.c.obj)
 .text.log_msg2_generic_get_wlen
                0x00000000       0x22 zephyr/libzephyr.a(log_core.c.obj)
 .text.z_log_printk
                0x00000000        0x2 zephyr/libzephyr.a(log_core.c.obj)
 .text.log_count_args
                0x00000000       0x22 zephyr/libzephyr.a(log_core.c.obj)
 .text.log_hexdump_sync
                0x00000000       0x94 zephyr/libzephyr.a(log_core.c.obj)
 .text.log_thread_set
                0x00000000        0x2 zephyr/libzephyr.a(log_core.c.obj)
 .text.log_set_timestamp_func
                0x00000000       0x20 zephyr/libzephyr.a(log_core.c.obj)
 .text.z_impl_log_buffered_cnt
                0x00000000        0xc zephyr/libzephyr.a(log_core.c.obj)
 .text.notify_drop
                0x00000000        0x4 zephyr/libzephyr.a(log_core.c.obj)
 .text.z_log_dropped_pending
                0x00000000       0x14 zephyr/libzephyr.a(log_core.c.obj)
 .text.log_src_cnt_get
                0x00000000       0x14 zephyr/libzephyr.a(log_core.c.obj)
 .text.log_get_strdup_pool_utilization
                0x00000000        0x4 zephyr/libzephyr.a(log_core.c.obj)
 .text.log_get_strdup_longest_string
                0x00000000        0x4 zephyr/libzephyr.a(log_core.c.obj)
 .text.log_n    0x00000000       0x16 zephyr/libzephyr.a(log_core.c.obj)
 .text.log_hexdump
                0x00000000       0x16 zephyr/libzephyr.a(log_core.c.obj)
 .text.log_generic
                0x00000000       0x8c zephyr/libzephyr.a(log_core.c.obj)
 .text.log_string_sync
                0x00000000       0x1c zephyr/libzephyr.a(log_core.c.obj)
 .text.z_impl_z_log_string_from_user
                0x00000000        0x2 zephyr/libzephyr.a(log_core.c.obj)
 .text.z_vrfy_z_log_hexdump_from_user
                0x00000000        0x2 zephyr/libzephyr.a(log_core.c.obj)
 .text.log_from_user
                0x00000000        0x6 zephyr/libzephyr.a(log_core.c.obj)
 .text.log_generic_from_user
                0x00000000        0x2 zephyr/libzephyr.a(log_core.c.obj)
 .text.log_hexdump_from_user
                0x00000000        0x2 zephyr/libzephyr.a(log_core.c.obj)
 .text.z_log_msg2_init
                0x00000000       0x10 zephyr/libzephyr.a(log_core.c.obj)
 .text.z_log_msg2_put_trace
                0x00000000       0x30 zephyr/libzephyr.a(log_core.c.obj)
 .text.z_log_msg2_put_trace_ptr
                0x00000000       0x34 zephyr/libzephyr.a(log_core.c.obj)
 .text.z_log_msg2_alloc
                0x00000000       0x10 zephyr/libzephyr.a(log_core.c.obj)
 .text.z_log_msg2_commit
                0x00000000       0x20 zephyr/libzephyr.a(log_core.c.obj)
 .text.z_log_msg2_claim
                0x00000000        0xc zephyr/libzephyr.a(log_core.c.obj)
 .text.z_log_msg2_free
                0x00000000        0xc zephyr/libzephyr.a(log_core.c.obj)
 .text.z_log_msg2_pending
                0x00000000        0xc zephyr/libzephyr.a(log_core.c.obj)
 .bss.buf32     0x00000000      0x400 zephyr/libzephyr.a(log_core.c.obj)
 .bss.log_buffer
                0x00000000       0x3c zephyr/libzephyr.a(log_core.c.obj)
 .rodata.mpsc_config
                0x00000000       0x14 zephyr/libzephyr.a(log_core.c.obj)
 .text          0x00000000        0x0 zephyr/libzephyr.a(log_msg.c.obj)
 .data          0x00000000        0x0 zephyr/libzephyr.a(log_msg.c.obj)
 .bss           0x00000000        0x0 zephyr/libzephyr.a(log_msg.c.obj)
 .text.log_msg_create_n
                0x00000000       0xa8 zephyr/libzephyr.a(log_msg.c.obj)
 .text.log_msg_hexdump_create
                0x00000000       0xa6 zephyr/libzephyr.a(log_msg.c.obj)
 .text.log_msg_hexdump_data_put
                0x00000000        0xe zephyr/libzephyr.a(log_msg.c.obj)
 .text          0x00000000        0x0 zephyr/libzephyr.a(log_output.c.obj)
 .data          0x00000000        0x0 zephyr/libzephyr.a(log_output.c.obj)
 .bss           0x00000000        0x0 zephyr/libzephyr.a(log_output.c.obj)
 .text.cr_out_func
                0x00000000       0x1a zephyr/libzephyr.a(log_output.c.obj)
 .text.log_output_msg2_process
                0x00000000       0xc0 zephyr/libzephyr.a(log_output.c.obj)
 .text.log_output_string
                0x00000000       0x70 zephyr/libzephyr.a(log_output.c.obj)
 .text.log_output_hexdump
                0x00000000       0x74 zephyr/libzephyr.a(log_output.c.obj)
 .text.log_output_timestamp_to_us
                0x00000000       0x28 zephyr/libzephyr.a(log_output.c.obj)
 .text          0x00000000        0x0 zephyr/libzephyr.a(log_cmds.c.obj)
 .data          0x00000000        0x0 zephyr/libzephyr.a(log_cmds.c.obj)
 .bss           0x00000000        0x0 zephyr/libzephyr.a(log_cmds.c.obj)
 .text          0x00000000        0x0 zephyr/libzephyr.a(kernel_service.c.obj)
 .data          0x00000000        0x0 zephyr/libzephyr.a(kernel_service.c.obj)
 .bss           0x00000000        0x0 zephyr/libzephyr.a(kernel_service.c.obj)
 .text          0x00000000        0x0 zephyr/libzephyr.a(device_service.c.obj)
 .data          0x00000000        0x0 zephyr/libzephyr.a(device_service.c.obj)
 .bss           0x00000000        0x0 zephyr/libzephyr.a(device_service.c.obj)
 .text          0x00000000        0x0 zephyr/libzephyr.a(date_service.c.obj)
 .data          0x00000000        0x0 zephyr/libzephyr.a(date_service.c.obj)
 .bss           0x00000000        0x0 zephyr/libzephyr.a(date_service.c.obj)
 .text          0x00000000        0x0 zephyr/libzephyr.a(shell.c.obj)
 .data          0x00000000        0x0 zephyr/libzephyr.a(shell.c.obj)
 .bss           0x00000000        0x0 zephyr/libzephyr.a(shell.c.obj)
 .text.shell_uninit
                0x00000000        0xe zephyr/libzephyr.a(shell.c.obj)
 .text.shell_stop
                0x00000000       0x14 zephyr/libzephyr.a(shell.c.obj)
 .rodata.shell_hexdump_line.str1.1
                0x00000000       0x1b zephyr/libzephyr.a(shell.c.obj)
 .text.shell_hexdump_line
                0x00000000       0xd0 zephyr/libzephyr.a(shell.c.obj)
 .text.shell_hexdump
                0x00000000       0x30 zephyr/libzephyr.a(shell.c.obj)
 .text.shell_prompt_change
                0x00000000       0x20 zephyr/libzephyr.a(shell.c.obj)
 .text.shell_execute_cmd
                0x00000000       0x5e zephyr/libzephyr.a(shell.c.obj)
 .text.shell_insert_mode_set
                0x00000000       0x12 zephyr/libzephyr.a(shell.c.obj)
 .text.shell_use_colors_set
                0x00000000       0x12 zephyr/libzephyr.a(shell.c.obj)
 .text.shell_echo_set
                0x00000000       0x12 zephyr/libzephyr.a(shell.c.obj)
 .text.shell_obscure_set
                0x00000000       0x12 zephyr/libzephyr.a(shell.c.obj)
 .text.shell_mode_delete_set
                0x00000000       0x12 zephyr/libzephyr.a(shell.c.obj)
 .text          0x00000000        0x0 zephyr/libzephyr.a(shell_fprintf.c.obj)
 .data          0x00000000        0x0 zephyr/libzephyr.a(shell_fprintf.c.obj)
 .bss           0x00000000        0x0 zephyr/libzephyr.a(shell_fprintf.c.obj)
 .text          0x00000000        0x0 zephyr/libzephyr.a(shell_utils.c.obj)
 .data          0x00000000        0x0 zephyr/libzephyr.a(shell_utils.c.obj)
 .bss           0x00000000        0x0 zephyr/libzephyr.a(shell_utils.c.obj)
 .text.shell_set_root_cmd
                0x00000000       0x5c zephyr/libzephyr.a(shell_utils.c.obj)
 .text.shell_device_lookup
                0x00000000       0x68 zephyr/libzephyr.a(shell_utils.c.obj)
 .text          0x00000000        0x0 zephyr/libzephyr.a(shell_ops.c.obj)
 .data          0x00000000        0x0 zephyr/libzephyr.a(shell_ops.c.obj)
 .bss           0x00000000        0x0 zephyr/libzephyr.a(shell_ops.c.obj)
 .text          0x00000000        0x0 zephyr/libzephyr.a(shell_uart.c.obj)
 .data          0x00000000        0x0 zephyr/libzephyr.a(shell_uart.c.obj)
 .bss           0x00000000        0x0 zephyr/libzephyr.a(shell_uart.c.obj)
 .text.log_msg2_generic_get_wlen
                0x00000000       0x22 zephyr/libzephyr.a(shell_uart.c.obj)
 .text.shell_backend_uart_get_ptr
                0x00000000        0x8 zephyr/libzephyr.a(shell_uart.c.obj)
 .bss.shell_uart_mpsc_buffer
                0x00000000       0x3c zephyr/libzephyr.a(shell_uart.c.obj)
 .bss.shell_uartshell_uart_out_buffer
                0x00000000      0x200 zephyr/libzephyr.a(shell_uart.c.obj)
 .rodata.shell_uart_mpsc_buffer_config
                0x00000000       0x14 zephyr/libzephyr.a(shell_uart.c.obj)
 .text          0x00000000        0x0 zephyr/libzephyr.a(shell_help.c.obj)
 .data          0x00000000        0x0 zephyr/libzephyr.a(shell_help.c.obj)
 .bss           0x00000000        0x0 zephyr/libzephyr.a(shell_help.c.obj)
 .text          0x00000000        0x0 zephyr/libzephyr.a(shell_cmds.c.obj)
 .data          0x00000000        0x0 zephyr/libzephyr.a(shell_cmds.c.obj)
 .bss           0x00000000        0x0 zephyr/libzephyr.a(shell_cmds.c.obj)
 .text          0x00000000        0x0 zephyr/libzephyr.a(shell_history.c.obj)
 .data          0x00000000        0x0 zephyr/libzephyr.a(shell_history.c.obj)
 .bss           0x00000000        0x0 zephyr/libzephyr.a(shell_history.c.obj)
 .text          0x00000000        0x0 zephyr/libzephyr.a(shell_log_backend.c.obj)
 .data          0x00000000        0x0 zephyr/libzephyr.a(shell_log_backend.c.obj)
 .bss           0x00000000        0x0 zephyr/libzephyr.a(shell_log_backend.c.obj)
 .text          0x00000000        0x0 zephyr/libzephyr.a(shell_wildcard.c.obj)
 .data          0x00000000        0x0 zephyr/libzephyr.a(shell_wildcard.c.obj)
 .bss           0x00000000        0x0 zephyr/libzephyr.a(shell_wildcard.c.obj)
 .text          0x00000000        0x0 zephyr/libzephyr.a(power.c.obj)
 .data          0x00000000        0x0 zephyr/libzephyr.a(power.c.obj)
 .bss           0x00000000        0x0 zephyr/libzephyr.a(power.c.obj)
 .text.pm_dump_debug_info
                0x00000000        0x2 zephyr/libzephyr.a(power.c.obj)
 .text.pm_power_state_exit_post_ops
                0x00000000       0x16 zephyr/libzephyr.a(power.c.obj)
 .text.pm_power_state_set
                0x00000000        0xc zephyr/libzephyr.a(power.c.obj)
 .text.pm_power_state_force
                0x00000000       0x5c zephyr/libzephyr.a(power.c.obj)
 .text.pm_notifier_register
                0x00000000       0x34 zephyr/libzephyr.a(power.c.obj)
 .text.pm_notifier_unregister
                0x00000000       0x58 zephyr/libzephyr.a(power.c.obj)
 .text          0x00000000        0x0 zephyr/libzephyr.a(pm_ctrl.c.obj)
 .data          0x00000000        0x0 zephyr/libzephyr.a(pm_ctrl.c.obj)
 .bss           0x00000000        0x0 zephyr/libzephyr.a(pm_ctrl.c.obj)
 .text.pm_constraint_set
                0x00000000       0x1c zephyr/libzephyr.a(pm_ctrl.c.obj)
 .text.pm_constraint_release
                0x00000000       0x1c zephyr/libzephyr.a(pm_ctrl.c.obj)
 .text.pm_constraint_get
                0x00000000       0x18 zephyr/libzephyr.a(pm_ctrl.c.obj)
 .bss.power_state_disable_count
                0x00000000       0x1c zephyr/libzephyr.a(pm_ctrl.c.obj)
 .debug_info    0x00000000     0x1112 zephyr/libzephyr.a(pm_ctrl.c.obj)
 .debug_abbrev  0x00000000      0x2b4 zephyr/libzephyr.a(pm_ctrl.c.obj)
 .debug_loc     0x00000000      0x128 zephyr/libzephyr.a(pm_ctrl.c.obj)
 .debug_aranges
                0x00000000       0x30 zephyr/libzephyr.a(pm_ctrl.c.obj)
 .debug_ranges  0x00000000       0x50 zephyr/libzephyr.a(pm_ctrl.c.obj)
 .debug_line    0x00000000      0x47a zephyr/libzephyr.a(pm_ctrl.c.obj)
 .debug_str     0x00000000     0x105b zephyr/libzephyr.a(pm_ctrl.c.obj)
 .comment       0x00000000       0x7a zephyr/libzephyr.a(pm_ctrl.c.obj)
 .debug_frame   0x00000000       0x40 zephyr/libzephyr.a(pm_ctrl.c.obj)
 .text          0x00000000        0x0 zephyr/libzephyr.a(policy_residency.c.obj)
 .data          0x00000000        0x0 zephyr/libzephyr.a(policy_residency.c.obj)
 .bss           0x00000000        0x0 zephyr/libzephyr.a(policy_residency.c.obj)
 .text          0x00000000        0x0 zephyr/libzephyr.a(uart_console.c.obj)
 .data          0x00000000        0x0 zephyr/libzephyr.a(uart_console.c.obj)
 .bss           0x00000000        0x0 zephyr/libzephyr.a(uart_console.c.obj)
 .text          0x00000000        0x0 zephyr/libzephyr.a(clock_control_nrf.c.obj)
 .data          0x00000000        0x0 zephyr/libzephyr.a(clock_control_nrf.c.obj)
 .bss           0x00000000        0x0 zephyr/libzephyr.a(clock_control_nrf.c.obj)
 .text.z_nrf_clock_control_get_onoff
                0x00000000       0x10 zephyr/libzephyr.a(clock_control_nrf.c.obj)
 .text.z_nrf_clock_bt_ctlr_hf_request
                0x00000000       0x20 zephyr/libzephyr.a(clock_control_nrf.c.obj)
 .text.z_nrf_clock_bt_ctlr_hf_release
                0x00000000       0x20 zephyr/libzephyr.a(clock_control_nrf.c.obj)
 .text          0x00000000        0x0 zephyr/libzephyr.a(sys_clock_init.c.obj)
 .data          0x00000000        0x0 zephyr/libzephyr.a(sys_clock_init.c.obj)
 .bss           0x00000000        0x0 zephyr/libzephyr.a(sys_clock_init.c.obj)
 .text.sys_clock_driver_init
                0x00000000        0x4 zephyr/libzephyr.a(sys_clock_init.c.obj)
 .text.sys_clock_device_ctrl
                0x00000000        0x6 zephyr/libzephyr.a(sys_clock_init.c.obj)
 .text.sys_clock_set_timeout
                0x00000000        0x2 zephyr/libzephyr.a(sys_clock_init.c.obj)
 .text          0x00000000        0x0 zephyr/libzephyr.a(nrf_rtc_timer.c.obj)
 .data          0x00000000        0x0 zephyr/libzephyr.a(nrf_rtc_timer.c.obj)
 .bss           0x00000000        0x0 zephyr/libzephyr.a(nrf_rtc_timer.c.obj)
 .text.z_nrf_rtc_timer_read
                0x00000000        0xc zephyr/libzephyr.a(nrf_rtc_timer.c.obj)
 .text.z_nrf_rtc_timer_compare_evt_address_get
                0x00000000       0x10 zephyr/libzephyr.a(nrf_rtc_timer.c.obj)
 .text.z_nrf_rtc_timer_compare_int_lock
                0x00000000       0x3c zephyr/libzephyr.a(nrf_rtc_timer.c.obj)
 .text.z_nrf_rtc_timer_compare_int_unlock
                0x00000000       0x30 zephyr/libzephyr.a(nrf_rtc_timer.c.obj)
 .text.z_nrf_rtc_timer_compare_read
                0x00000000       0x10 zephyr/libzephyr.a(nrf_rtc_timer.c.obj)
 .text.z_nrf_rtc_timer_get_ticks
                0x00000000       0x78 zephyr/libzephyr.a(nrf_rtc_timer.c.obj)
 .text.z_nrf_rtc_timer_compare_set
                0x00000000       0x38 zephyr/libzephyr.a(nrf_rtc_timer.c.obj)
 .text.z_nrf_rtc_timer_chan_alloc
                0x00000000       0x3c zephyr/libzephyr.a(nrf_rtc_timer.c.obj)
 .text.z_nrf_rtc_timer_chan_free
                0x00000000       0x1c zephyr/libzephyr.a(nrf_rtc_timer.c.obj)
 .bss.alloc_mask
                0x00000000        0x4 zephyr/libzephyr.a(nrf_rtc_timer.c.obj)
 .text          0x00000000        0x0 zephyr/libzephyr.a(secure_services_ns.c.obj)
 .data          0x00000000        0x0 zephyr/libzephyr.a(secure_services_ns.c.obj)
 .bss           0x00000000        0x0 zephyr/libzephyr.a(secure_services_ns.c.obj)
 .text.spm_request_read
                0x00000000       0x18 zephyr/libzephyr.a(secure_services_ns.c.obj)
 .text.spm_firmware_info
                0x00000000       0x18 zephyr/libzephyr.a(secure_services_ns.c.obj)
 .text          0x00000000        0x0 zephyr/libzephyr.a(flash_map_partition_manager.c.obj)
 .data          0x00000000        0x0 zephyr/libzephyr.a(flash_map_partition_manager.c.obj)
 .bss           0x00000000        0x0 zephyr/libzephyr.a(flash_map_partition_manager.c.obj)
 .rodata.str1.1
                0x00000000       0x13 zephyr/libzephyr.a(flash_map_partition_manager.c.obj)
 .data.flash_map
                0x00000000        0x4 zephyr/libzephyr.a(flash_map_partition_manager.c.obj)
 .rodata.default_flash_map
                0x00000000       0x20 zephyr/libzephyr.a(flash_map_partition_manager.c.obj)
 .rodata.flash_map_entries
                0x00000000        0x4 zephyr/libzephyr.a(flash_map_partition_manager.c.obj)
 .debug_info    0x00000000      0x9dc zephyr/libzephyr.a(flash_map_partition_manager.c.obj)
 .debug_abbrev  0x00000000      0x197 zephyr/libzephyr.a(flash_map_partition_manager.c.obj)
 .debug_aranges
                0x00000000       0x18 zephyr/libzephyr.a(flash_map_partition_manager.c.obj)
 .debug_line    0x00000000      0x39c zephyr/libzephyr.a(flash_map_partition_manager.c.obj)
 .debug_str     0x00000000      0x8b5 zephyr/libzephyr.a(flash_map_partition_manager.c.obj)
 .comment       0x00000000       0x7a zephyr/libzephyr.a(flash_map_partition_manager.c.obj)
 .text          0x00000000        0x0 zephyr/arch/common/libarch__common.a(sw_isr_common.c.obj)
 .data          0x00000000        0x0 zephyr/arch/common/libarch__common.a(sw_isr_common.c.obj)
 .bss           0x00000000        0x0 zephyr/arch/common/libarch__common.a(sw_isr_common.c.obj)
 .debug_info    0x00000000      0x1e2 zephyr/arch/common/libarch__common.a(sw_isr_common.c.obj)
 .debug_abbrev  0x00000000       0xdf zephyr/arch/common/libarch__common.a(sw_isr_common.c.obj)
 .debug_aranges
                0x00000000       0x18 zephyr/arch/common/libarch__common.a(sw_isr_common.c.obj)
 .debug_line    0x00000000      0x199 zephyr/arch/common/libarch__common.a(sw_isr_common.c.obj)
 .debug_str     0x00000000      0x361 zephyr/arch/common/libarch__common.a(sw_isr_common.c.obj)
 .comment       0x00000000       0x7a zephyr/arch/common/libarch__common.a(sw_isr_common.c.obj)
 .text          0x00000000        0x0 zephyr/arch/arch/arm/core/aarch32/libarch__arm__core__aarch32.a(swap.c.obj)
 .data          0x00000000        0x0 zephyr/arch/arch/arm/core/aarch32/libarch__arm__core__aarch32.a(swap.c.obj)
 .bss           0x00000000        0x0 zephyr/arch/arch/arm/core/aarch32/libarch__arm__core__aarch32.a(swap.c.obj)
 .text          0x00000000        0x0 zephyr/arch/arch/arm/core/aarch32/libarch__arm__core__aarch32.a(irq_manage.c.obj)
 .data          0x00000000        0x0 zephyr/arch/arch/arm/core/aarch32/libarch__arm__core__aarch32.a(irq_manage.c.obj)
 .bss           0x00000000        0x0 zephyr/arch/arch/arm/core/aarch32/libarch__arm__core__aarch32.a(irq_manage.c.obj)
 .text.arch_irq_disable
                0x00000000       0x28 zephyr/arch/arch/arm/core/aarch32/libarch__arm__core__aarch32.a(irq_manage.c.obj)
 .text._arch_isr_direct_pm
                0x00000000       0x1c zephyr/arch/arch/arm/core/aarch32/libarch__arm__core__aarch32.a(irq_manage.c.obj)
 .text          0x00000000        0x0 zephyr/arch/arch/arm/core/aarch32/libarch__arm__core__aarch32.a(thread.c.obj)
 .data          0x00000000        0x0 zephyr/arch/arch/arm/core/aarch32/libarch__arm__core__aarch32.a(thread.c.obj)
 .bss           0x00000000        0x0 zephyr/arch/arch/arm/core/aarch32/libarch__arm__core__aarch32.a(thread.c.obj)
 .text          0x00000000        0x0 zephyr/arch/arch/arm/core/aarch32/libarch__arm__core__aarch32.a(fatal.c.obj)
 .data          0x00000000        0x0 zephyr/arch/arch/arm/core/aarch32/libarch__arm__core__aarch32.a(fatal.c.obj)
 .bss           0x00000000        0x0 zephyr/arch/arch/arm/core/aarch32/libarch__arm__core__aarch32.a(fatal.c.obj)
 .text.arch_syscall_oops
                0x00000000       0x1c zephyr/arch/arch/arm/core/aarch32/libarch__arm__core__aarch32.a(fatal.c.obj)
 .text          0x00000000        0x0 zephyr/arch/arch/arm/core/aarch32/libarch__arm__core__aarch32.a(nmi.c.obj)
 .data          0x00000000        0x0 zephyr/arch/arch/arm/core/aarch32/libarch__arm__core__aarch32.a(nmi.c.obj)
 .bss           0x00000000        0x0 zephyr/arch/arch/arm/core/aarch32/libarch__arm__core__aarch32.a(nmi.c.obj)
 .text          0x00000000        0x0 zephyr/arch/arch/arm/core/aarch32/libarch__arm__core__aarch32.a(prep_c.c.obj)
 .data          0x00000000        0x0 zephyr/arch/arch/arm/core/aarch32/libarch__arm__core__aarch32.a(prep_c.c.obj)
 .bss           0x00000000        0x0 zephyr/arch/arch/arm/core/aarch32/libarch__arm__core__aarch32.a(prep_c.c.obj)
 .text          0x00000000        0x0 zephyr/arch/arch/arm/core/aarch32/libarch__arm__core__aarch32.a(swap_helper.S.obj)
 .data          0x00000000        0x0 zephyr/arch/arch/arm/core/aarch32/libarch__arm__core__aarch32.a(swap_helper.S.obj)
 .bss           0x00000000        0x0 zephyr/arch/arch/arm/core/aarch32/libarch__arm__core__aarch32.a(swap_helper.S.obj)
 .text          0x00000000        0x0 zephyr/arch/arch/arm/core/aarch32/libarch__arm__core__aarch32.a(cpu_idle.S.obj)
 .data          0x00000000        0x0 zephyr/arch/arch/arm/core/aarch32/libarch__arm__core__aarch32.a(cpu_idle.S.obj)
 .bss           0x00000000        0x0 zephyr/arch/arch/arm/core/aarch32/libarch__arm__core__aarch32.a(cpu_idle.S.obj)
 .text          0x00000000        0x0 zephyr/arch/arch/arm/core/aarch32/libarch__arm__core__aarch32.a(nmi_on_reset.S.obj)
 .data          0x00000000        0x0 zephyr/arch/arch/arm/core/aarch32/libarch__arm__core__aarch32.a(nmi_on_reset.S.obj)
 .bss           0x00000000        0x0 zephyr/arch/arch/arm/core/aarch32/libarch__arm__core__aarch32.a(nmi_on_reset.S.obj)
 .text          0x00000000        0x0 zephyr/arch/arch/arm/core/aarch32/libarch__arm__core__aarch32.a(isr_wrapper.S.obj)
 .data          0x00000000        0x0 zephyr/arch/arch/arm/core/aarch32/libarch__arm__core__aarch32.a(isr_wrapper.S.obj)
 .bss           0x00000000        0x0 zephyr/arch/arch/arm/core/aarch32/libarch__arm__core__aarch32.a(isr_wrapper.S.obj)
 .text          0x00000000        0x0 zephyr/arch/arch/arm/core/aarch32/cortex_m/libarch__arm__core__aarch32__cortex_m.a(vector_table.S.obj)
 .data          0x00000000        0x0 zephyr/arch/arch/arm/core/aarch32/cortex_m/libarch__arm__core__aarch32__cortex_m.a(vector_table.S.obj)
 .bss           0x00000000        0x0 zephyr/arch/arch/arm/core/aarch32/cortex_m/libarch__arm__core__aarch32__cortex_m.a(vector_table.S.obj)
 .text          0x00000000        0x0 zephyr/arch/arch/arm/core/aarch32/cortex_m/libarch__arm__core__aarch32__cortex_m.a(reset.S.obj)
 .data          0x00000000        0x0 zephyr/arch/arch/arm/core/aarch32/cortex_m/libarch__arm__core__aarch32__cortex_m.a(reset.S.obj)
 .bss           0x00000000        0x0 zephyr/arch/arch/arm/core/aarch32/cortex_m/libarch__arm__core__aarch32__cortex_m.a(reset.S.obj)
 .text          0x00000000        0x0 zephyr/arch/arch/arm/core/aarch32/cortex_m/libarch__arm__core__aarch32__cortex_m.a(fault_s.S.obj)
 .data          0x00000000        0x0 zephyr/arch/arch/arm/core/aarch32/cortex_m/libarch__arm__core__aarch32__cortex_m.a(fault_s.S.obj)
 .bss           0x00000000        0x0 zephyr/arch/arch/arm/core/aarch32/cortex_m/libarch__arm__core__aarch32__cortex_m.a(fault_s.S.obj)
 .text          0x00000000        0x0 zephyr/arch/arch/arm/core/aarch32/cortex_m/libarch__arm__core__aarch32__cortex_m.a(exc_exit.S.obj)
 .data          0x00000000        0x0 zephyr/arch/arch/arm/core/aarch32/cortex_m/libarch__arm__core__aarch32__cortex_m.a(exc_exit.S.obj)
 .bss           0x00000000        0x0 zephyr/arch/arch/arm/core/aarch32/cortex_m/libarch__arm__core__aarch32__cortex_m.a(exc_exit.S.obj)
 .text          0x00000000        0x0 zephyr/arch/arch/arm/core/aarch32/cortex_m/libarch__arm__core__aarch32__cortex_m.a(fault.c.obj)
 .data          0x00000000        0x0 zephyr/arch/arch/arm/core/aarch32/cortex_m/libarch__arm__core__aarch32__cortex_m.a(fault.c.obj)
 .bss           0x00000000        0x0 zephyr/arch/arch/arm/core/aarch32/cortex_m/libarch__arm__core__aarch32__cortex_m.a(fault.c.obj)
 .text          0x00000000        0x0 zephyr/arch/arch/arm/core/aarch32/cortex_m/libarch__arm__core__aarch32__cortex_m.a(fpu.c.obj)
 .data          0x00000000        0x0 zephyr/arch/arch/arm/core/aarch32/cortex_m/libarch__arm__core__aarch32__cortex_m.a(fpu.c.obj)
 .bss           0x00000000        0x0 zephyr/arch/arch/arm/core/aarch32/cortex_m/libarch__arm__core__aarch32__cortex_m.a(fpu.c.obj)
 .text          0x00000000        0x0 zephyr/arch/arch/arm/core/aarch32/cortex_m/libarch__arm__core__aarch32__cortex_m.a(scb.c.obj)
 .data          0x00000000        0x0 zephyr/arch/arch/arm/core/aarch32/cortex_m/libarch__arm__core__aarch32__cortex_m.a(scb.c.obj)
 .bss           0x00000000        0x0 zephyr/arch/arch/arm/core/aarch32/cortex_m/libarch__arm__core__aarch32__cortex_m.a(scb.c.obj)
 .text.z_arm_clear_arm_mpu_config
                0x00000000       0x20 zephyr/arch/arch/arm/core/aarch32/cortex_m/libarch__arm__core__aarch32__cortex_m.a(scb.c.obj)
 .text          0x00000000        0x0 zephyr/arch/arch/arm/core/aarch32/cortex_m/libarch__arm__core__aarch32__cortex_m.a(irq_init.c.obj)
 .data          0x00000000        0x0 zephyr/arch/arch/arm/core/aarch32/cortex_m/libarch__arm__core__aarch32__cortex_m.a(irq_init.c.obj)
 .bss           0x00000000        0x0 zephyr/arch/arch/arm/core/aarch32/cortex_m/libarch__arm__core__aarch32__cortex_m.a(irq_init.c.obj)
 .text          0x00000000        0x0 zephyr/arch/arch/arm/core/aarch32/cortex_m/libarch__arm__core__aarch32__cortex_m.a(thread_abort.c.obj)
 .data          0x00000000        0x0 zephyr/arch/arch/arm/core/aarch32/cortex_m/libarch__arm__core__aarch32__cortex_m.a(thread_abort.c.obj)
 .bss           0x00000000        0x0 zephyr/arch/arch/arm/core/aarch32/cortex_m/libarch__arm__core__aarch32__cortex_m.a(thread_abort.c.obj)
 .text          0x00000000        0x0 zephyr/arch/arch/arm/core/aarch32/cortex_m/cmse/libarch__arm__core__aarch32__cortex_m__cmse.a(arm_core_cmse.c.obj)
 .data          0x00000000        0x0 zephyr/arch/arch/arm/core/aarch32/cortex_m/cmse/libarch__arm__core__aarch32__cortex_m__cmse.a(arm_core_cmse.c.obj)
 .bss           0x00000000        0x0 zephyr/arch/arch/arm/core/aarch32/cortex_m/cmse/libarch__arm__core__aarch32__cortex_m__cmse.a(arm_core_cmse.c.obj)
 .text.arm_cmse_addr_read_ok
                0x00000000       0x12 zephyr/arch/arch/arm/core/aarch32/cortex_m/cmse/libarch__arm__core__aarch32__cortex_m__cmse.a(arm_core_cmse.c.obj)
 .text.arm_cmse_addr_readwrite_ok
                0x00000000       0x12 zephyr/arch/arch/arm/core/aarch32/cortex_m/cmse/libarch__arm__core__aarch32__cortex_m__cmse.a(arm_core_cmse.c.obj)
 .text.arm_cmse_addr_range_read_ok
                0x00000000       0x18 zephyr/arch/arch/arm/core/aarch32/cortex_m/cmse/libarch__arm__core__aarch32__cortex_m__cmse.a(arm_core_cmse.c.obj)
 .text.arm_cmse_addr_range_readwrite_ok
                0x00000000       0x18 zephyr/arch/arch/arm/core/aarch32/cortex_m/cmse/libarch__arm__core__aarch32__cortex_m__cmse.a(arm_core_cmse.c.obj)
 .text          0x00000000        0x0 zephyr/arch/arch/arm/core/aarch32/mpu/libarch__arm__core__aarch32__mpu.a(arm_core_mpu.c.obj)
 .data          0x00000000        0x0 zephyr/arch/arch/arm/core/aarch32/mpu/libarch__arm__core__aarch32__mpu.a(arm_core_mpu.c.obj)
 .bss           0x00000000        0x0 zephyr/arch/arch/arm/core/aarch32/mpu/libarch__arm__core__aarch32__mpu.a(arm_core_mpu.c.obj)
 .text.z_arm_configure_dynamic_mpu_regions
                0x00000000        0xc zephyr/arch/arch/arm/core/aarch32/mpu/libarch__arm__core__aarch32__mpu.a(arm_core_mpu.c.obj)
 .bss.dynamic_regions.10290
                0x00000000        0x0 zephyr/arch/arch/arm/core/aarch32/mpu/libarch__arm__core__aarch32__mpu.a(arm_core_mpu.c.obj)
 .text          0x00000000        0x0 zephyr/arch/arch/arm/core/aarch32/mpu/libarch__arm__core__aarch32__mpu.a(arm_mpu.c.obj)
 .data          0x00000000        0x0 zephyr/arch/arch/arm/core/aarch32/mpu/libarch__arm__core__aarch32__mpu.a(arm_mpu.c.obj)
 .bss           0x00000000        0x0 zephyr/arch/arch/arm/core/aarch32/mpu/libarch__arm__core__aarch32__mpu.a(arm_mpu.c.obj)
 .text.arm_core_mpu_configure_dynamic_mpu_regions
                0x00000000       0x40 zephyr/arch/arch/arm/core/aarch32/mpu/libarch__arm__core__aarch32__mpu.a(arm_mpu.c.obj)
 .text          0x00000000        0x0 zephyr/lib/libc/minimal/liblib__libc__minimal.a(abort.c.obj)
 .data          0x00000000        0x0 zephyr/lib/libc/minimal/liblib__libc__minimal.a(abort.c.obj)
 .bss           0x00000000        0x0 zephyr/lib/libc/minimal/liblib__libc__minimal.a(abort.c.obj)
 .rodata.abort.str1.1
                0x00000000        0x9 zephyr/lib/libc/minimal/liblib__libc__minimal.a(abort.c.obj)
 .text.abort    0x00000000       0x1c zephyr/lib/libc/minimal/liblib__libc__minimal.a(abort.c.obj)
 .debug_info    0x00000000      0x912 zephyr/lib/libc/minimal/liblib__libc__minimal.a(abort.c.obj)
 .debug_abbrev  0x00000000      0x1ce zephyr/lib/libc/minimal/liblib__libc__minimal.a(abort.c.obj)
 .debug_aranges
                0x00000000       0x20 zephyr/lib/libc/minimal/liblib__libc__minimal.a(abort.c.obj)
 .debug_ranges  0x00000000       0x10 zephyr/lib/libc/minimal/liblib__libc__minimal.a(abort.c.obj)
 .debug_line    0x00000000      0x364 zephyr/lib/libc/minimal/liblib__libc__minimal.a(abort.c.obj)
 .debug_str     0x00000000      0x768 zephyr/lib/libc/minimal/liblib__libc__minimal.a(abort.c.obj)
 .comment       0x00000000       0x7a zephyr/lib/libc/minimal/liblib__libc__minimal.a(abort.c.obj)
 .debug_frame   0x00000000       0x28 zephyr/lib/libc/minimal/liblib__libc__minimal.a(abort.c.obj)
 .text          0x00000000        0x0 zephyr/lib/libc/minimal/liblib__libc__minimal.a(atoi.c.obj)
 .data          0x00000000        0x0 zephyr/lib/libc/minimal/liblib__libc__minimal.a(atoi.c.obj)
 .bss           0x00000000        0x0 zephyr/lib/libc/minimal/liblib__libc__minimal.a(atoi.c.obj)
 .text.atoi     0x00000000       0x4c zephyr/lib/libc/minimal/liblib__libc__minimal.a(atoi.c.obj)
 .debug_info    0x00000000      0x111 zephyr/lib/libc/minimal/liblib__libc__minimal.a(atoi.c.obj)
 .debug_abbrev  0x00000000      0x102 zephyr/lib/libc/minimal/liblib__libc__minimal.a(atoi.c.obj)
 .debug_loc     0x00000000       0xab zephyr/lib/libc/minimal/liblib__libc__minimal.a(atoi.c.obj)
 .debug_aranges
                0x00000000       0x20 zephyr/lib/libc/minimal/liblib__libc__minimal.a(atoi.c.obj)
 .debug_ranges  0x00000000       0x10 zephyr/lib/libc/minimal/liblib__libc__minimal.a(atoi.c.obj)
 .debug_line    0x00000000      0x14a zephyr/lib/libc/minimal/liblib__libc__minimal.a(atoi.c.obj)
 .debug_str     0x00000000      0x200 zephyr/lib/libc/minimal/liblib__libc__minimal.a(atoi.c.obj)
 .comment       0x00000000       0x7a zephyr/lib/libc/minimal/liblib__libc__minimal.a(atoi.c.obj)
 .debug_frame   0x00000000       0x2c zephyr/lib/libc/minimal/liblib__libc__minimal.a(atoi.c.obj)
 .text          0x00000000        0x0 zephyr/lib/libc/minimal/liblib__libc__minimal.a(strtol.c.obj)
 .data          0x00000000        0x0 zephyr/lib/libc/minimal/liblib__libc__minimal.a(strtol.c.obj)
 .bss           0x00000000        0x0 zephyr/lib/libc/minimal/liblib__libc__minimal.a(strtol.c.obj)
 .text          0x00000000        0x0 zephyr/lib/libc/minimal/liblib__libc__minimal.a(strtoul.c.obj)
 .data          0x00000000        0x0 zephyr/lib/libc/minimal/liblib__libc__minimal.a(strtoul.c.obj)
 .bss           0x00000000        0x0 zephyr/lib/libc/minimal/liblib__libc__minimal.a(strtoul.c.obj)
 .text.strtoul  0x00000000       0xf2 zephyr/lib/libc/minimal/liblib__libc__minimal.a(strtoul.c.obj)
 .debug_info    0x00000000      0x2ba zephyr/lib/libc/minimal/liblib__libc__minimal.a(strtoul.c.obj)
 .debug_abbrev  0x00000000      0x123 zephyr/lib/libc/minimal/liblib__libc__minimal.a(strtoul.c.obj)
 .debug_loc     0x00000000      0x3c7 zephyr/lib/libc/minimal/liblib__libc__minimal.a(strtoul.c.obj)
 .debug_aranges
                0x00000000       0x20 zephyr/lib/libc/minimal/liblib__libc__minimal.a(strtoul.c.obj)
 .debug_ranges  0x00000000       0x10 zephyr/lib/libc/minimal/liblib__libc__minimal.a(strtoul.c.obj)
 .debug_line    0x00000000      0x2f5 zephyr/lib/libc/minimal/liblib__libc__minimal.a(strtoul.c.obj)
 .debug_str     0x00000000      0x2cf zephyr/lib/libc/minimal/liblib__libc__minimal.a(strtoul.c.obj)
 .comment       0x00000000       0x7a zephyr/lib/libc/minimal/liblib__libc__minimal.a(strtoul.c.obj)
 .debug_frame   0x00000000       0x30 zephyr/lib/libc/minimal/liblib__libc__minimal.a(strtoul.c.obj)
 .text          0x00000000        0x0 zephyr/lib/libc/minimal/liblib__libc__minimal.a(malloc.c.obj)
 .data          0x00000000        0x0 zephyr/lib/libc/minimal/liblib__libc__minimal.a(malloc.c.obj)
 .bss           0x00000000        0x0 zephyr/lib/libc/minimal/liblib__libc__minimal.a(malloc.c.obj)
 .rodata.malloc.str1.1
                0x00000000       0x2b zephyr/lib/libc/minimal/liblib__libc__minimal.a(malloc.c.obj)
 .text.malloc   0x00000000       0x34 zephyr/lib/libc/minimal/liblib__libc__minimal.a(malloc.c.obj)
 .text.free     0x00000000        0x2 zephyr/lib/libc/minimal/liblib__libc__minimal.a(malloc.c.obj)
 .text.realloc  0x00000000        0x6 zephyr/lib/libc/minimal/liblib__libc__minimal.a(malloc.c.obj)
 .text.calloc   0x00000000       0x2c zephyr/lib/libc/minimal/liblib__libc__minimal.a(malloc.c.obj)
 .text.reallocarray
                0x00000000        0x4 zephyr/lib/libc/minimal/liblib__libc__minimal.a(malloc.c.obj)
 .debug_info    0x00000000     0x13db zephyr/lib/libc/minimal/liblib__libc__minimal.a(malloc.c.obj)
 .debug_abbrev  0x00000000      0x3ec zephyr/lib/libc/minimal/liblib__libc__minimal.a(malloc.c.obj)
 .debug_loc     0x00000000      0x1fb zephyr/lib/libc/minimal/liblib__libc__minimal.a(malloc.c.obj)
 .debug_aranges
                0x00000000       0x40 zephyr/lib/libc/minimal/liblib__libc__minimal.a(malloc.c.obj)
 .debug_ranges  0x00000000       0x88 zephyr/lib/libc/minimal/liblib__libc__minimal.a(malloc.c.obj)
 .debug_line    0x00000000      0x5ec zephyr/lib/libc/minimal/liblib__libc__minimal.a(malloc.c.obj)
 .debug_str     0x00000000      0xc3a zephyr/lib/libc/minimal/liblib__libc__minimal.a(malloc.c.obj)
 .comment       0x00000000       0x7a zephyr/lib/libc/minimal/liblib__libc__minimal.a(malloc.c.obj)
 .debug_frame   0x00000000       0x74 zephyr/lib/libc/minimal/liblib__libc__minimal.a(malloc.c.obj)
 .text          0x00000000        0x0 zephyr/lib/libc/minimal/liblib__libc__minimal.a(bsearch.c.obj)
 .data          0x00000000        0x0 zephyr/lib/libc/minimal/liblib__libc__minimal.a(bsearch.c.obj)
 .bss           0x00000000        0x0 zephyr/lib/libc/minimal/liblib__libc__minimal.a(bsearch.c.obj)
 .text.bsearch  0x00000000       0x3c zephyr/lib/libc/minimal/liblib__libc__minimal.a(bsearch.c.obj)
 .debug_info    0x00000000      0x16a zephyr/lib/libc/minimal/liblib__libc__minimal.a(bsearch.c.obj)
 .debug_abbrev  0x00000000       0xea zephyr/lib/libc/minimal/liblib__libc__minimal.a(bsearch.c.obj)
 .debug_loc     0x00000000      0x133 zephyr/lib/libc/minimal/liblib__libc__minimal.a(bsearch.c.obj)
 .debug_aranges
                0x00000000       0x20 zephyr/lib/libc/minimal/liblib__libc__minimal.a(bsearch.c.obj)
 .debug_ranges  0x00000000       0x10 zephyr/lib/libc/minimal/liblib__libc__minimal.a(bsearch.c.obj)
 .debug_line    0x00000000      0x151 zephyr/lib/libc/minimal/liblib__libc__minimal.a(bsearch.c.obj)
 .debug_str     0x00000000      0x226 zephyr/lib/libc/minimal/liblib__libc__minimal.a(bsearch.c.obj)
 .comment       0x00000000       0x7a zephyr/lib/libc/minimal/liblib__libc__minimal.a(bsearch.c.obj)
 .debug_frame   0x00000000       0x38 zephyr/lib/libc/minimal/liblib__libc__minimal.a(bsearch.c.obj)
 .text          0x00000000        0x0 zephyr/lib/libc/minimal/liblib__libc__minimal.a(exit.c.obj)
 .data          0x00000000        0x0 zephyr/lib/libc/minimal/liblib__libc__minimal.a(exit.c.obj)
 .bss           0x00000000        0x0 zephyr/lib/libc/minimal/liblib__libc__minimal.a(exit.c.obj)
 .rodata._exit.str1.1
                0x00000000        0x6 zephyr/lib/libc/minimal/liblib__libc__minimal.a(exit.c.obj)
 .text._exit    0x00000000       0x10 zephyr/lib/libc/minimal/liblib__libc__minimal.a(exit.c.obj)
 .debug_info    0x00000000      0x8f5 zephyr/lib/libc/minimal/liblib__libc__minimal.a(exit.c.obj)
 .debug_abbrev  0x00000000      0x1c4 zephyr/lib/libc/minimal/liblib__libc__minimal.a(exit.c.obj)
 .debug_loc     0x00000000       0x25 zephyr/lib/libc/minimal/liblib__libc__minimal.a(exit.c.obj)
 .debug_aranges
                0x00000000       0x20 zephyr/lib/libc/minimal/liblib__libc__minimal.a(exit.c.obj)
 .debug_ranges  0x00000000       0x10 zephyr/lib/libc/minimal/liblib__libc__minimal.a(exit.c.obj)
 .debug_line    0x00000000      0x363 zephyr/lib/libc/minimal/liblib__libc__minimal.a(exit.c.obj)
 .debug_str     0x00000000      0x6f8 zephyr/lib/libc/minimal/liblib__libc__minimal.a(exit.c.obj)
 .comment       0x00000000       0x7a zephyr/lib/libc/minimal/liblib__libc__minimal.a(exit.c.obj)
 .debug_frame   0x00000000       0x28 zephyr/lib/libc/minimal/liblib__libc__minimal.a(exit.c.obj)
 .text          0x00000000        0x0 zephyr/lib/libc/minimal/liblib__libc__minimal.a(strncasecmp.c.obj)
 .data          0x00000000        0x0 zephyr/lib/libc/minimal/liblib__libc__minimal.a(strncasecmp.c.obj)
 .bss           0x00000000        0x0 zephyr/lib/libc/minimal/liblib__libc__minimal.a(strncasecmp.c.obj)
 .text.strncasecmp
                0x00000000       0x4c zephyr/lib/libc/minimal/liblib__libc__minimal.a(strncasecmp.c.obj)
 .debug_info    0x00000000      0x154 zephyr/lib/libc/minimal/liblib__libc__minimal.a(strncasecmp.c.obj)
 .debug_abbrev  0x00000000      0x108 zephyr/lib/libc/minimal/liblib__libc__minimal.a(strncasecmp.c.obj)
 .debug_loc     0x00000000      0x164 zephyr/lib/libc/minimal/liblib__libc__minimal.a(strncasecmp.c.obj)
 .debug_aranges
                0x00000000       0x20 zephyr/lib/libc/minimal/liblib__libc__minimal.a(strncasecmp.c.obj)
 .debug_ranges  0x00000000       0x10 zephyr/lib/libc/minimal/liblib__libc__minimal.a(strncasecmp.c.obj)
 .debug_line    0x00000000      0x188 zephyr/lib/libc/minimal/liblib__libc__minimal.a(strncasecmp.c.obj)
 .debug_str     0x00000000      0x229 zephyr/lib/libc/minimal/liblib__libc__minimal.a(strncasecmp.c.obj)
 .comment       0x00000000       0x7a zephyr/lib/libc/minimal/liblib__libc__minimal.a(strncasecmp.c.obj)
 .debug_frame   0x00000000       0x2c zephyr/lib/libc/minimal/liblib__libc__minimal.a(strncasecmp.c.obj)
 .text          0x00000000        0x0 zephyr/lib/libc/minimal/liblib__libc__minimal.a(strstr.c.obj)
 .data          0x00000000        0x0 zephyr/lib/libc/minimal/liblib__libc__minimal.a(strstr.c.obj)
 .bss           0x00000000        0x0 zephyr/lib/libc/minimal/liblib__libc__minimal.a(strstr.c.obj)
 .text          0x00000000        0x0 zephyr/lib/libc/minimal/liblib__libc__minimal.a(string.c.obj)
 .data          0x00000000        0x0 zephyr/lib/libc/minimal/liblib__libc__minimal.a(string.c.obj)
 .bss           0x00000000        0x0 zephyr/lib/libc/minimal/liblib__libc__minimal.a(string.c.obj)
 .text.strrchr  0x00000000       0x1a zephyr/lib/libc/minimal/liblib__libc__minimal.a(string.c.obj)
 .text.strtok_r
                0x00000000       0x4c zephyr/lib/libc/minimal/liblib__libc__minimal.a(string.c.obj)
 .text.strcat   0x00000000       0x12 zephyr/lib/libc/minimal/liblib__libc__minimal.a(string.c.obj)
 .text.strncat  0x00000000       0x28 zephyr/lib/libc/minimal/liblib__libc__minimal.a(string.c.obj)
 .text.memchr   0x00000000       0x20 zephyr/lib/libc/minimal/liblib__libc__minimal.a(string.c.obj)
 .text          0x00000000        0x0 zephyr/lib/libc/minimal/liblib__libc__minimal.a(strspn.c.obj)
 .data          0x00000000        0x0 zephyr/lib/libc/minimal/liblib__libc__minimal.a(strspn.c.obj)
 .bss           0x00000000        0x0 zephyr/lib/libc/minimal/liblib__libc__minimal.a(strspn.c.obj)
 .text.strspn   0x00000000       0x20 zephyr/lib/libc/minimal/liblib__libc__minimal.a(strspn.c.obj)
 .text.strcspn  0x00000000       0x20 zephyr/lib/libc/minimal/liblib__libc__minimal.a(strspn.c.obj)
 .debug_info    0x00000000      0x128 zephyr/lib/libc/minimal/liblib__libc__minimal.a(strspn.c.obj)
 .debug_abbrev  0x00000000       0xcd zephyr/lib/libc/minimal/liblib__libc__minimal.a(strspn.c.obj)
 .debug_loc     0x00000000       0xcc zephyr/lib/libc/minimal/liblib__libc__minimal.a(strspn.c.obj)
 .debug_aranges
                0x00000000       0x28 zephyr/lib/libc/minimal/liblib__libc__minimal.a(strspn.c.obj)
 .debug_ranges  0x00000000       0x18 zephyr/lib/libc/minimal/liblib__libc__minimal.a(strspn.c.obj)
 .debug_line    0x00000000      0x161 zephyr/lib/libc/minimal/liblib__libc__minimal.a(strspn.c.obj)
 .debug_str     0x00000000      0x218 zephyr/lib/libc/minimal/liblib__libc__minimal.a(strspn.c.obj)
 .comment       0x00000000       0x7a zephyr/lib/libc/minimal/liblib__libc__minimal.a(strspn.c.obj)
 .debug_frame   0x00000000       0x50 zephyr/lib/libc/minimal/liblib__libc__minimal.a(strspn.c.obj)
 .text          0x00000000        0x0 zephyr/lib/libc/minimal/liblib__libc__minimal.a(stdout_console.c.obj)
 .data          0x00000000        0x0 zephyr/lib/libc/minimal/liblib__libc__minimal.a(stdout_console.c.obj)
 .bss           0x00000000        0x0 zephyr/lib/libc/minimal/liblib__libc__minimal.a(stdout_console.c.obj)
 .text.z_impl_zephyr_fwrite
                0x00000000       0x48 zephyr/lib/libc/minimal/liblib__libc__minimal.a(stdout_console.c.obj)
 .text.fputs    0x00000000       0x22 zephyr/lib/libc/minimal/liblib__libc__minimal.a(stdout_console.c.obj)
 .text.fwrite   0x00000000        0x4 zephyr/lib/libc/minimal/liblib__libc__minimal.a(stdout_console.c.obj)
 .text.puts     0x00000000       0x20 zephyr/lib/libc/minimal/liblib__libc__minimal.a(stdout_console.c.obj)
 .text          0x00000000        0x0 zephyr/lib/libc/minimal/liblib__libc__minimal.a(sprintf.c.obj)
 .data          0x00000000        0x0 zephyr/lib/libc/minimal/liblib__libc__minimal.a(sprintf.c.obj)
 .bss           0x00000000        0x0 zephyr/lib/libc/minimal/liblib__libc__minimal.a(sprintf.c.obj)
 .text.vsnprintf
                0x00000000       0x24 zephyr/lib/libc/minimal/liblib__libc__minimal.a(sprintf.c.obj)
 .text.vsprintf
                0x00000000       0x28 zephyr/lib/libc/minimal/liblib__libc__minimal.a(sprintf.c.obj)
 .text          0x00000000        0x0 zephyr/lib/libc/minimal/liblib__libc__minimal.a(fprintf.c.obj)
 .data          0x00000000        0x0 zephyr/lib/libc/minimal/liblib__libc__minimal.a(fprintf.c.obj)
 .bss           0x00000000        0x0 zephyr/lib/libc/minimal/liblib__libc__minimal.a(fprintf.c.obj)
 .text.fprintf  0x00000000       0x24 zephyr/lib/libc/minimal/liblib__libc__minimal.a(fprintf.c.obj)
 .text.vfprintf
                0x00000000       0x10 zephyr/lib/libc/minimal/liblib__libc__minimal.a(fprintf.c.obj)
 .text.vprintf  0x00000000       0x10 zephyr/lib/libc/minimal/liblib__libc__minimal.a(fprintf.c.obj)
 .text          0x00000000        0x0 zephyr/lib/libc/minimal/liblib__libc__minimal.a(gmtime.c.obj)
 .data          0x00000000        0x0 zephyr/lib/libc/minimal/liblib__libc__minimal.a(gmtime.c.obj)
 .bss           0x00000000        0x0 zephyr/lib/libc/minimal/liblib__libc__minimal.a(gmtime.c.obj)
 .text.gmtime   0x00000000        0xc zephyr/lib/libc/minimal/liblib__libc__minimal.a(gmtime.c.obj)
 .bss.shared.3716
                0x00000000       0x24 zephyr/lib/libc/minimal/liblib__libc__minimal.a(gmtime.c.obj)
 .text          0x00000000        0x0 zephyr/lib/libc/minimal/liblib__libc__minimal.a(time.c.obj)
 .data          0x00000000        0x0 zephyr/lib/libc/minimal/liblib__libc__minimal.a(time.c.obj)
 .bss           0x00000000        0x0 zephyr/lib/libc/minimal/liblib__libc__minimal.a(time.c.obj)
 .text.time     0x00000000       0x28 zephyr/lib/libc/minimal/liblib__libc__minimal.a(time.c.obj)
 .debug_info    0x00000000      0x9ca zephyr/lib/libc/minimal/liblib__libc__minimal.a(time.c.obj)
 .debug_abbrev  0x00000000      0x23e zephyr/lib/libc/minimal/liblib__libc__minimal.a(time.c.obj)
 .debug_loc     0x00000000       0x6f zephyr/lib/libc/minimal/liblib__libc__minimal.a(time.c.obj)
 .debug_aranges
                0x00000000       0x20 zephyr/lib/libc/minimal/liblib__libc__minimal.a(time.c.obj)
 .debug_ranges  0x00000000       0x28 zephyr/lib/libc/minimal/liblib__libc__minimal.a(time.c.obj)
 .debug_line    0x00000000      0x43a zephyr/lib/libc/minimal/liblib__libc__minimal.a(time.c.obj)
 .debug_str     0x00000000      0x74a zephyr/lib/libc/minimal/liblib__libc__minimal.a(time.c.obj)
 .comment       0x00000000       0x7a zephyr/lib/libc/minimal/liblib__libc__minimal.a(time.c.obj)
 .debug_frame   0x00000000       0x30 zephyr/lib/libc/minimal/liblib__libc__minimal.a(time.c.obj)
 .text          0x00000000        0x0 zephyr/lib/posix/liblib__posix.a(pthread_common.c.obj)
 .data          0x00000000        0x0 zephyr/lib/posix/liblib__posix.a(pthread_common.c.obj)
 .bss           0x00000000        0x0 zephyr/lib/posix/liblib__posix.a(pthread_common.c.obj)
 .text.timespec_to_timeoutms
                0x00000000       0x70 zephyr/lib/posix/liblib__posix.a(pthread_common.c.obj)
 .debug_info    0x00000000      0xa63 zephyr/lib/posix/liblib__posix.a(pthread_common.c.obj)
 .debug_abbrev  0x00000000      0x25f zephyr/lib/posix/liblib__posix.a(pthread_common.c.obj)
 .debug_loc     0x00000000       0xfb zephyr/lib/posix/liblib__posix.a(pthread_common.c.obj)
 .debug_aranges
                0x00000000       0x20 zephyr/lib/posix/liblib__posix.a(pthread_common.c.obj)
 .debug_ranges  0x00000000       0x10 zephyr/lib/posix/liblib__posix.a(pthread_common.c.obj)
 .debug_line    0x00000000      0x4ea zephyr/lib/posix/liblib__posix.a(pthread_common.c.obj)
 .debug_str     0x00000000      0x7bf zephyr/lib/posix/liblib__posix.a(pthread_common.c.obj)
 .comment       0x00000000       0x7a zephyr/lib/posix/liblib__posix.a(pthread_common.c.obj)
 .debug_frame   0x00000000       0x38 zephyr/lib/posix/liblib__posix.a(pthread_common.c.obj)
 .text          0x00000000        0x0 zephyr/lib/posix/liblib__posix.a(clock.c.obj)
 .data          0x00000000        0x0 zephyr/lib/posix/liblib__posix.a(clock.c.obj)
 .bss           0x00000000        0x0 zephyr/lib/posix/liblib__posix.a(clock.c.obj)
 .text.gettimeofday
                0x00000000       0x24 zephyr/lib/posix/liblib__posix.a(clock.c.obj)
 .text          0x00000000        0x0 zephyr/lib/posix/liblib__posix.a(sleep.c.obj)
 .data          0x00000000        0x0 zephyr/lib/posix/liblib__posix.a(sleep.c.obj)
 .bss           0x00000000        0x0 zephyr/lib/posix/liblib__posix.a(sleep.c.obj)
 .text.sleep    0x00000000       0x2c zephyr/lib/posix/liblib__posix.a(sleep.c.obj)
 .text.usleep   0x00000000       0x3a zephyr/lib/posix/liblib__posix.a(sleep.c.obj)
 .debug_info    0x00000000      0xc88 zephyr/lib/posix/liblib__posix.a(sleep.c.obj)
 .debug_abbrev  0x00000000      0x31c zephyr/lib/posix/liblib__posix.a(sleep.c.obj)
 .debug_loc     0x00000000      0x2af zephyr/lib/posix/liblib__posix.a(sleep.c.obj)
 .debug_aranges
                0x00000000       0x28 zephyr/lib/posix/liblib__posix.a(sleep.c.obj)
 .debug_ranges  0x00000000       0xa0 zephyr/lib/posix/liblib__posix.a(sleep.c.obj)
 .debug_line    0x00000000      0x4c2 zephyr/lib/posix/liblib__posix.a(sleep.c.obj)
 .debug_str     0x00000000      0x7d7 zephyr/lib/posix/liblib__posix.a(sleep.c.obj)
 .comment       0x00000000       0x7a zephyr/lib/posix/liblib__posix.a(sleep.c.obj)
 .debug_frame   0x00000000       0x48 zephyr/lib/posix/liblib__posix.a(sleep.c.obj)
 .text          0x00000000        0x0 zephyr/lib/posix/liblib__posix.a(timer.c.obj)
 .data          0x00000000        0x0 zephyr/lib/posix/liblib__posix.a(timer.c.obj)
 .bss           0x00000000        0x0 zephyr/lib/posix/liblib__posix.a(timer.c.obj)
 .text.zephyr_timer_wrapper
                0x00000000        0xc zephyr/lib/posix/liblib__posix.a(timer.c.obj)
 .text.timer_create
                0x00000000       0x84 zephyr/lib/posix/liblib__posix.a(timer.c.obj)
 .text.timer_gettime
                0x00000000       0x68 zephyr/lib/posix/liblib__posix.a(timer.c.obj)
 .text.timer_settime
                0x00000000       0xfc zephyr/lib/posix/liblib__posix.a(timer.c.obj)
 .text.timer_delete
                0x00000000       0x38 zephyr/lib/posix/liblib__posix.a(timer.c.obj)
 ._k_mem_slab.static.posix_timer_slab
                0x00000000       0x1c zephyr/lib/posix/liblib__posix.a(timer.c.obj)
 .noinit."WEST_TOPDIR/zephyr/lib/posix/timer.c".0
                0x00000000      0x1b8 zephyr/lib/posix/liblib__posix.a(timer.c.obj)
 .debug_info    0x00000000     0x1702 zephyr/lib/posix/liblib__posix.a(timer.c.obj)
 .debug_abbrev  0x00000000      0x44c zephyr/lib/posix/liblib__posix.a(timer.c.obj)
 .debug_loc     0x00000000      0x940 zephyr/lib/posix/liblib__posix.a(timer.c.obj)
 .debug_aranges
                0x00000000       0x40 zephyr/lib/posix/liblib__posix.a(timer.c.obj)
 .debug_ranges  0x00000000      0x1b8 zephyr/lib/posix/liblib__posix.a(timer.c.obj)
 .debug_line    0x00000000      0x939 zephyr/lib/posix/liblib__posix.a(timer.c.obj)
 .debug_str     0x00000000      0xbd1 zephyr/lib/posix/liblib__posix.a(timer.c.obj)
 .comment       0x00000000       0x7a zephyr/lib/posix/liblib__posix.a(timer.c.obj)
 .debug_frame   0x00000000       0xa8 zephyr/lib/posix/liblib__posix.a(timer.c.obj)
 .text          0x00000000        0x0 zephyr/lib/posix/liblib__posix.a(nanosleep.c.obj)
 .data          0x00000000        0x0 zephyr/lib/posix/liblib__posix.a(nanosleep.c.obj)
 .bss           0x00000000        0x0 zephyr/lib/posix/liblib__posix.a(nanosleep.c.obj)
 .text.nanosleep
                0x00000000      0x10c zephyr/lib/posix/liblib__posix.a(nanosleep.c.obj)
 .debug_info    0x00000000      0xc42 zephyr/lib/posix/liblib__posix.a(nanosleep.c.obj)
 .debug_abbrev  0x00000000      0x30d zephyr/lib/posix/liblib__posix.a(nanosleep.c.obj)
 .debug_loc     0x00000000      0x279 zephyr/lib/posix/liblib__posix.a(nanosleep.c.obj)
 .debug_aranges
                0x00000000       0x20 zephyr/lib/posix/liblib__posix.a(nanosleep.c.obj)
 .debug_ranges  0x00000000       0x40 zephyr/lib/posix/liblib__posix.a(nanosleep.c.obj)
 .debug_line    0x00000000      0x563 zephyr/lib/posix/liblib__posix.a(nanosleep.c.obj)
 .debug_str     0x00000000      0x804 zephyr/lib/posix/liblib__posix.a(nanosleep.c.obj)
 .comment       0x00000000       0x7a zephyr/lib/posix/liblib__posix.a(nanosleep.c.obj)
 .debug_frame   0x00000000       0x30 zephyr/lib/posix/liblib__posix.a(nanosleep.c.obj)
 .text          0x00000000        0x0 zephyr/soc/arm/common/cortex_m/libsoc__arm__common__cortex_m.a(arm_mpu_regions.c.obj)
 .data          0x00000000        0x0 zephyr/soc/arm/common/cortex_m/libsoc__arm__common__cortex_m.a(arm_mpu_regions.c.obj)
 .bss           0x00000000        0x0 zephyr/soc/arm/common/cortex_m/libsoc__arm__common__cortex_m.a(arm_mpu_regions.c.obj)
 .text          0x00000000        0x0 zephyr/subsys/random/libsubsys__random.a(rand32_entropy_device.c.obj)
 .data          0x00000000        0x0 zephyr/subsys/random/libsubsys__random.a(rand32_entropy_device.c.obj)
 .bss           0x00000000        0x0 zephyr/subsys/random/libsubsys__random.a(rand32_entropy_device.c.obj)
 .rodata.rand_get.str1.1
                0x00000000        0xe zephyr/subsys/random/libsubsys__random.a(rand32_entropy_device.c.obj)
 .text.rand_get
                0x00000000       0x54 zephyr/subsys/random/libsubsys__random.a(rand32_entropy_device.c.obj)
 .text.z_impl_sys_rand32_get
                0x00000000       0x34 zephyr/subsys/random/libsubsys__random.a(rand32_entropy_device.c.obj)
 .text.z_impl_sys_rand_get
                0x00000000        0x6 zephyr/subsys/random/libsubsys__random.a(rand32_entropy_device.c.obj)
 .text.z_impl_sys_csrand_get
                0x00000000       0x12 zephyr/subsys/random/libsubsys__random.a(rand32_entropy_device.c.obj)
 .bss.entropy_driver
                0x00000000        0x4 zephyr/subsys/random/libsubsys__random.a(rand32_entropy_device.c.obj)
 .debug_info    0x00000000     0x144c zephyr/subsys/random/libsubsys__random.a(rand32_entropy_device.c.obj)
 .debug_abbrev  0x00000000      0x3e5 zephyr/subsys/random/libsubsys__random.a(rand32_entropy_device.c.obj)
 .debug_loc     0x00000000      0x326 zephyr/subsys/random/libsubsys__random.a(rand32_entropy_device.c.obj)
 .debug_aranges
                0x00000000       0x38 zephyr/subsys/random/libsubsys__random.a(rand32_entropy_device.c.obj)
 .debug_ranges  0x00000000       0x78 zephyr/subsys/random/libsubsys__random.a(rand32_entropy_device.c.obj)
 .debug_line    0x00000000      0x5af zephyr/subsys/random/libsubsys__random.a(rand32_entropy_device.c.obj)
 .debug_str     0x00000000     0x111a zephyr/subsys/random/libsubsys__random.a(rand32_entropy_device.c.obj)
 .comment       0x00000000       0x7a zephyr/subsys/random/libsubsys__random.a(rand32_entropy_device.c.obj)
 .debug_frame   0x00000000       0x78 zephyr/subsys/random/libsubsys__random.a(rand32_entropy_device.c.obj)
 .text          0x00000000        0x0 zephyr/drivers/gpio/libdrivers__gpio.a(gpio_nrfx.c.obj)
 .data          0x00000000        0x0 zephyr/drivers/gpio/libdrivers__gpio.a(gpio_nrfx.c.obj)
 .bss           0x00000000        0x0 zephyr/drivers/gpio/libdrivers__gpio.a(gpio_nrfx.c.obj)
 .text          0x00000000        0x0 zephyr/drivers/serial/libdrivers__serial.a(uart_nrfx_uarte.c.obj)
 .data          0x00000000        0x0 zephyr/drivers/serial/libdrivers__serial.a(uart_nrfx_uarte.c.obj)
 .bss           0x00000000        0x0 zephyr/drivers/serial/libdrivers__serial.a(uart_nrfx_uarte.c.obj)
 .text          0x00000000        0x0 zephyr/drivers/entropy/libdrivers__entropy.a(entropy_cc310.c.obj)
 .data          0x00000000        0x0 zephyr/drivers/entropy/libdrivers__entropy.a(entropy_cc310.c.obj)
 .bss           0x00000000        0x0 zephyr/drivers/entropy/libdrivers__entropy.a(entropy_cc310.c.obj)
 .text          0x00000000        0x0 modules/nrf/lib/fatal_error/lib..__nrf__lib__fatal_error.a(fatal_error.c.obj)
 .data          0x00000000        0x0 modules/nrf/lib/fatal_error/lib..__nrf__lib__fatal_error.a(fatal_error.c.obj)
 .bss           0x00000000        0x0 modules/nrf/lib/fatal_error/lib..__nrf__lib__fatal_error.a(fatal_error.c.obj)
 .text          0x00000000        0x0 modules/nrf/subsys/fw_info/lib..__nrf__subsys__fw_info.a(fw_info.c.obj)
 .data          0x00000000        0x0 modules/nrf/subsys/fw_info/lib..__nrf__subsys__fw_info.a(fw_info.c.obj)
 .bss           0x00000000        0x0 modules/nrf/subsys/fw_info/lib..__nrf__subsys__fw_info.a(fw_info.c.obj)
 .text.fw_info_ext_api_provide
                0x00000000       0xfc modules/nrf/subsys/fw_info/lib..__nrf__subsys__fw_info.a(fw_info.c.obj)
 .text.fw_info_invalidate
                0x00000000       0x1c modules/nrf/subsys/fw_info/lib..__nrf__subsys__fw_info.a(fw_info.c.obj)
 .rodata.fw_info_allowed_offsets
                0x00000000       0x14 modules/nrf/subsys/fw_info/lib..__nrf__subsys__fw_info.a(fw_info.c.obj)
 .text          0x00000000        0x0 modules/hal_nordic/nrfx/libmodules__hal_nordic__nrfx.a(system_nrf5340_application.c.obj)
 .data          0x00000000        0x0 modules/hal_nordic/nrfx/libmodules__hal_nordic__nrfx.a(system_nrf5340_application.c.obj)
 .bss           0x00000000        0x0 modules/hal_nordic/nrfx/libmodules__hal_nordic__nrfx.a(system_nrf5340_application.c.obj)
 .text          0x00000000        0x0 modules/hal_nordic/nrfx/libmodules__hal_nordic__nrfx.a(nrfx_glue.c.obj)
 .data          0x00000000        0x0 modules/hal_nordic/nrfx/libmodules__hal_nordic__nrfx.a(nrfx_glue.c.obj)
 .bss           0x00000000        0x0 modules/hal_nordic/nrfx/libmodules__hal_nordic__nrfx.a(nrfx_glue.c.obj)
 .rodata.nrfx_error_string_get.str1.1
                0x00000000      0x178 modules/hal_nordic/nrfx/libmodules__hal_nordic__nrfx.a(nrfx_glue.c.obj)
 .text.nrfx_error_string_get
                0x00000000       0xd4 modules/hal_nordic/nrfx/libmodules__hal_nordic__nrfx.a(nrfx_glue.c.obj)
 .text          0x00000000        0x0 modules/hal_nordic/nrfx/libmodules__hal_nordic__nrfx.a(nrfx_clock.c.obj)
 .data          0x00000000        0x0 modules/hal_nordic/nrfx/libmodules__hal_nordic__nrfx.a(nrfx_clock.c.obj)
 .bss           0x00000000        0x0 modules/hal_nordic/nrfx/libmodules__hal_nordic__nrfx.a(nrfx_clock.c.obj)
 .text.nrfx_clock_disable
                0x00000000       0x18 modules/hal_nordic/nrfx/libmodules__hal_nordic__nrfx.a(nrfx_clock.c.obj)
 .text.nrfx_clock_uninit
                0x00000000       0x28 modules/hal_nordic/nrfx/libmodules__hal_nordic__nrfx.a(nrfx_clock.c.obj)
 .text.nrfx_clock_calibration_start
                0x00000000        0x8 modules/hal_nordic/nrfx/libmodules__hal_nordic__nrfx.a(nrfx_clock.c.obj)
 .text.nrfx_clock_is_calibrating
                0x00000000        0x8 modules/hal_nordic/nrfx/libmodules__hal_nordic__nrfx.a(nrfx_clock.c.obj)
 .text.nrfx_clock_calibration_timer_start
                0x00000000        0x2 modules/hal_nordic/nrfx/libmodules__hal_nordic__nrfx.a(nrfx_clock.c.obj)
 .text.nrfx_clock_calibration_timer_stop
                0x00000000        0x2 modules/hal_nordic/nrfx/libmodules__hal_nordic__nrfx.a(nrfx_clock.c.obj)
 .text.nrfx_clock_divider_set
                0x00000000       0x44 modules/hal_nordic/nrfx/libmodules__hal_nordic__nrfx.a(nrfx_clock.c.obj)
 .text          0x00000000        0x0 modules/hal_nordic/nrfx/libmodules__hal_nordic__nrfx.a(nrfx_dppi.c.obj)
 .data          0x00000000        0x0 modules/hal_nordic/nrfx/libmodules__hal_nordic__nrfx.a(nrfx_dppi.c.obj)
 .bss           0x00000000        0x0 modules/hal_nordic/nrfx/libmodules__hal_nordic__nrfx.a(nrfx_dppi.c.obj)
 .text.nrfx_dppi_free
                0x00000000       0x48 modules/hal_nordic/nrfx/libmodules__hal_nordic__nrfx.a(nrfx_dppi.c.obj)
 .text.nrfx_dppi_channel_free
                0x00000000       0x50 modules/hal_nordic/nrfx/libmodules__hal_nordic__nrfx.a(nrfx_dppi.c.obj)
 .text.nrfx_dppi_channel_enable
                0x00000000       0x30 modules/hal_nordic/nrfx/libmodules__hal_nordic__nrfx.a(nrfx_dppi.c.obj)
 .text.nrfx_dppi_channel_disable
                0x00000000       0x30 modules/hal_nordic/nrfx/libmodules__hal_nordic__nrfx.a(nrfx_dppi.c.obj)
 .text.nrfx_dppi_group_alloc
                0x00000000       0x54 modules/hal_nordic/nrfx/libmodules__hal_nordic__nrfx.a(nrfx_dppi.c.obj)
 .text.nrfx_dppi_group_free
                0x00000000       0x54 modules/hal_nordic/nrfx/libmodules__hal_nordic__nrfx.a(nrfx_dppi.c.obj)
 .text.nrfx_dppi_channel_include_in_group
                0x00000000       0x60 modules/hal_nordic/nrfx/libmodules__hal_nordic__nrfx.a(nrfx_dppi.c.obj)
 .text.nrfx_dppi_channel_remove_from_group
                0x00000000       0x64 modules/hal_nordic/nrfx/libmodules__hal_nordic__nrfx.a(nrfx_dppi.c.obj)
 .text.nrfx_dppi_group_clear
                0x00000000       0x34 modules/hal_nordic/nrfx/libmodules__hal_nordic__nrfx.a(nrfx_dppi.c.obj)
 .text.nrfx_dppi_group_enable
                0x00000000       0x2c modules/hal_nordic/nrfx/libmodules__hal_nordic__nrfx.a(nrfx_dppi.c.obj)
 .text.nrfx_dppi_group_disable
                0x00000000       0x2c modules/hal_nordic/nrfx/libmodules__hal_nordic__nrfx.a(nrfx_dppi.c.obj)
 .bss.m_allocated_groups
                0x00000000        0x1 modules/hal_nordic/nrfx/libmodules__hal_nordic__nrfx.a(nrfx_dppi.c.obj)
 .text          0x00000000        0x0 modules/hal_nordic/nrfx/libmodules__hal_nordic__nrfx.a(nrfx_gpiote.c.obj)
 .data          0x00000000        0x0 modules/hal_nordic/nrfx/libmodules__hal_nordic__nrfx.a(nrfx_gpiote.c.obj)
 .bss           0x00000000        0x0 modules/hal_nordic/nrfx/libmodules__hal_nordic__nrfx.a(nrfx_gpiote.c.obj)
 .text.nrf_gpio_pin_port_decode
                0x00000000       0x20 modules/hal_nordic/nrfx/libmodules__hal_nordic__nrfx.a(nrfx_gpiote.c.obj)
 .text.nrf_gpio_cfg_sense_set
                0x00000000       0x26 modules/hal_nordic/nrfx/libmodules__hal_nordic__nrfx.a(nrfx_gpiote.c.obj)
 .text.pin_configured_clear
                0x00000000       0x1c modules/hal_nordic/nrfx/libmodules__hal_nordic__nrfx.a(nrfx_gpiote.c.obj)
 .text.nrf_gpio_cfg_default
                0x00000000       0x26 modules/hal_nordic/nrfx/libmodules__hal_nordic__nrfx.a(nrfx_gpiote.c.obj)
 .text.nrfx_gpiote_init
                0x00000000       0x9c modules/hal_nordic/nrfx/libmodules__hal_nordic__nrfx.a(nrfx_gpiote.c.obj)
 .text.nrfx_gpiote_is_init
                0x00000000       0x14 modules/hal_nordic/nrfx/libmodules__hal_nordic__nrfx.a(nrfx_gpiote.c.obj)
 .text.channel_free
                0x00000000       0x3c modules/hal_nordic/nrfx/libmodules__hal_nordic__nrfx.a(nrfx_gpiote.c.obj)
 .text.gpiote_out_init
                0x00000000      0x108 modules/hal_nordic/nrfx/libmodules__hal_nordic__nrfx.a(nrfx_gpiote.c.obj)
 .text.gpiote_in_init.part.0
                0x00000000      0x13c modules/hal_nordic/nrfx/libmodules__hal_nordic__nrfx.a(nrfx_gpiote.c.obj)
 .text.nrfx_gpiote_out_init
                0x00000000        0x8 modules/hal_nordic/nrfx/libmodules__hal_nordic__nrfx.a(nrfx_gpiote.c.obj)
 .text.nrfx_gpiote_out_prealloc_init
                0x00000000        0x8 modules/hal_nordic/nrfx/libmodules__hal_nordic__nrfx.a(nrfx_gpiote.c.obj)
 .text.nrfx_gpiote_out_uninit
                0x00000000       0x58 modules/hal_nordic/nrfx/libmodules__hal_nordic__nrfx.a(nrfx_gpiote.c.obj)
 .text.nrfx_gpiote_out_set
                0x00000000       0x18 modules/hal_nordic/nrfx/libmodules__hal_nordic__nrfx.a(nrfx_gpiote.c.obj)
 .text.nrfx_gpiote_out_clear
                0x00000000       0x18 modules/hal_nordic/nrfx/libmodules__hal_nordic__nrfx.a(nrfx_gpiote.c.obj)
 .text.nrfx_gpiote_out_toggle
                0x00000000       0x22 modules/hal_nordic/nrfx/libmodules__hal_nordic__nrfx.a(nrfx_gpiote.c.obj)
 .text.nrfx_gpiote_out_task_enable
                0x00000000       0x24 modules/hal_nordic/nrfx/libmodules__hal_nordic__nrfx.a(nrfx_gpiote.c.obj)
 .text.nrfx_gpiote_out_task_disable
                0x00000000       0x24 modules/hal_nordic/nrfx/libmodules__hal_nordic__nrfx.a(nrfx_gpiote.c.obj)
 .text.nrfx_gpiote_out_task_get
                0x00000000       0x14 modules/hal_nordic/nrfx/libmodules__hal_nordic__nrfx.a(nrfx_gpiote.c.obj)
 .text.nrfx_gpiote_out_task_addr_get
                0x00000000       0x1c modules/hal_nordic/nrfx/libmodules__hal_nordic__nrfx.a(nrfx_gpiote.c.obj)
 .text.nrfx_gpiote_set_task_get
                0x00000000       0x18 modules/hal_nordic/nrfx/libmodules__hal_nordic__nrfx.a(nrfx_gpiote.c.obj)
 .text.nrfx_gpiote_set_task_addr_get
                0x00000000       0x1c modules/hal_nordic/nrfx/libmodules__hal_nordic__nrfx.a(nrfx_gpiote.c.obj)
 .text.nrfx_gpiote_clr_task_get
                0x00000000       0x18 modules/hal_nordic/nrfx/libmodules__hal_nordic__nrfx.a(nrfx_gpiote.c.obj)
 .text.nrfx_gpiote_clr_task_addr_get
                0x00000000       0x1c modules/hal_nordic/nrfx/libmodules__hal_nordic__nrfx.a(nrfx_gpiote.c.obj)
 .text.nrfx_gpiote_out_task_force
                0x00000000       0x30 modules/hal_nordic/nrfx/libmodules__hal_nordic__nrfx.a(nrfx_gpiote.c.obj)
 .text.nrfx_gpiote_out_task_trigger
                0x00000000       0x20 modules/hal_nordic/nrfx/libmodules__hal_nordic__nrfx.a(nrfx_gpiote.c.obj)
 .text.nrfx_gpiote_set_task_trigger
                0x00000000       0x20 modules/hal_nordic/nrfx/libmodules__hal_nordic__nrfx.a(nrfx_gpiote.c.obj)
 .text.nrfx_gpiote_clr_task_trigger
                0x00000000       0x20 modules/hal_nordic/nrfx/libmodules__hal_nordic__nrfx.a(nrfx_gpiote.c.obj)
 .text.nrfx_gpiote_in_init
                0x00000000       0x28 modules/hal_nordic/nrfx/libmodules__hal_nordic__nrfx.a(nrfx_gpiote.c.obj)
 .text.nrfx_gpiote_in_prealloc_init
                0x00000000       0x38 modules/hal_nordic/nrfx/libmodules__hal_nordic__nrfx.a(nrfx_gpiote.c.obj)
 .text.nrfx_gpiote_in_event_enable
                0x00000000       0x9c modules/hal_nordic/nrfx/libmodules__hal_nordic__nrfx.a(nrfx_gpiote.c.obj)
 .text.nrfx_gpiote_in_event_disable
                0x00000000       0x44 modules/hal_nordic/nrfx/libmodules__hal_nordic__nrfx.a(nrfx_gpiote.c.obj)
 .text.nrfx_gpiote_in_uninit
                0x00000000       0x64 modules/hal_nordic/nrfx/libmodules__hal_nordic__nrfx.a(nrfx_gpiote.c.obj)
 .text.nrfx_gpiote_uninit
                0x00000000       0x58 modules/hal_nordic/nrfx/libmodules__hal_nordic__nrfx.a(nrfx_gpiote.c.obj)
 .text.nrfx_gpiote_in_is_set
                0x00000000       0x1a modules/hal_nordic/nrfx/libmodules__hal_nordic__nrfx.a(nrfx_gpiote.c.obj)
 .text.nrfx_gpiote_in_event_get
                0x00000000       0x1c modules/hal_nordic/nrfx/libmodules__hal_nordic__nrfx.a(nrfx_gpiote.c.obj)
 .text.nrfx_gpiote_in_event_addr_get
                0x00000000       0x10 modules/hal_nordic/nrfx/libmodules__hal_nordic__nrfx.a(nrfx_gpiote.c.obj)
 .text.nrfx_gpiote_irq_handler
                0x00000000      0x164 modules/hal_nordic/nrfx/libmodules__hal_nordic__nrfx.a(nrfx_gpiote.c.obj)
 .text          0x00000000        0x0 modules/hal_nordic/nrfx/libmodules__hal_nordic__nrfx.a(nrfx_nvmc.c.obj)
 .data          0x00000000        0x0 modules/hal_nordic/nrfx/libmodules__hal_nordic__nrfx.a(nrfx_nvmc.c.obj)
 .bss           0x00000000        0x0 modules/hal_nordic/nrfx/libmodules__hal_nordic__nrfx.a(nrfx_nvmc.c.obj)
 .text.partial_word_create
                0x00000000       0x26 modules/hal_nordic/nrfx/libmodules__hal_nordic__nrfx.a(nrfx_nvmc.c.obj)
 .text.nvmc_words_write
                0x00000000       0x28 modules/hal_nordic/nrfx/libmodules__hal_nordic__nrfx.a(nrfx_nvmc.c.obj)
 .text.nrfx_nvmc_page_erase
                0x00000000       0x38 modules/hal_nordic/nrfx/libmodules__hal_nordic__nrfx.a(nrfx_nvmc.c.obj)
 .text.nrfx_nvmc_uicr_erase
                0x00000000        0x8 modules/hal_nordic/nrfx/libmodules__hal_nordic__nrfx.a(nrfx_nvmc.c.obj)
 .text.nrfx_nvmc_all_erase
                0x00000000       0x24 modules/hal_nordic/nrfx/libmodules__hal_nordic__nrfx.a(nrfx_nvmc.c.obj)
 .text.nrfx_nvmc_page_partial_erase_init
                0x00000000       0x30 modules/hal_nordic/nrfx/libmodules__hal_nordic__nrfx.a(nrfx_nvmc.c.obj)
 .text.nrfx_nvmc_page_partial_erase_continue
                0x00000000       0x4c modules/hal_nordic/nrfx/libmodules__hal_nordic__nrfx.a(nrfx_nvmc.c.obj)
 .text.nrfx_nvmc_byte_writable_check
                0x00000000        0xe modules/hal_nordic/nrfx/libmodules__hal_nordic__nrfx.a(nrfx_nvmc.c.obj)
 .text.nrfx_nvmc_word_writable_check
                0x00000000        0xe modules/hal_nordic/nrfx/libmodules__hal_nordic__nrfx.a(nrfx_nvmc.c.obj)
 .text.nrfx_nvmc_word_write
                0x00000000       0x24 modules/hal_nordic/nrfx/libmodules__hal_nordic__nrfx.a(nrfx_nvmc.c.obj)
 .text.nrfx_nvmc_byte_write
                0x00000000       0x20 modules/hal_nordic/nrfx/libmodules__hal_nordic__nrfx.a(nrfx_nvmc.c.obj)
 .text.nrfx_nvmc_halfword_write
                0x00000000       0x20 modules/hal_nordic/nrfx/libmodules__hal_nordic__nrfx.a(nrfx_nvmc.c.obj)
 .text.nrfx_nvmc_bytes_write
                0x00000000       0x84 modules/hal_nordic/nrfx/libmodules__hal_nordic__nrfx.a(nrfx_nvmc.c.obj)
 .text.nrfx_nvmc_words_write
                0x00000000       0x1c modules/hal_nordic/nrfx/libmodules__hal_nordic__nrfx.a(nrfx_nvmc.c.obj)
 .text.nrfx_nvmc_otp_halfword_read
                0x00000000       0x10 modules/hal_nordic/nrfx/libmodules__hal_nordic__nrfx.a(nrfx_nvmc.c.obj)
 .text.nrfx_nvmc_halfword_writable_check
                0x00000000       0x1c modules/hal_nordic/nrfx/libmodules__hal_nordic__nrfx.a(nrfx_nvmc.c.obj)
 .text.nrfx_nvmc_flash_size_get
                0x00000000        0x6 modules/hal_nordic/nrfx/libmodules__hal_nordic__nrfx.a(nrfx_nvmc.c.obj)
 .text.nrfx_nvmc_flash_page_size_get
                0x00000000        0x6 modules/hal_nordic/nrfx/libmodules__hal_nordic__nrfx.a(nrfx_nvmc.c.obj)
 .text.nrfx_nvmc_flash_page_count_get
                0x00000000        0x6 modules/hal_nordic/nrfx/libmodules__hal_nordic__nrfx.a(nrfx_nvmc.c.obj)
 .bss.m_partial_erase_time_elapsed
                0x00000000        0x4 modules/hal_nordic/nrfx/libmodules__hal_nordic__nrfx.a(nrfx_nvmc.c.obj)
 .data.m_partial_erase_page_addr
                0x00000000        0x4 modules/hal_nordic/nrfx/libmodules__hal_nordic__nrfx.a(nrfx_nvmc.c.obj)
 .debug_info    0x00000000     0x1376 modules/hal_nordic/nrfx/libmodules__hal_nordic__nrfx.a(nrfx_nvmc.c.obj)
 .debug_abbrev  0x00000000      0x488 modules/hal_nordic/nrfx/libmodules__hal_nordic__nrfx.a(nrfx_nvmc.c.obj)
 .debug_loc     0x00000000      0xade modules/hal_nordic/nrfx/libmodules__hal_nordic__nrfx.a(nrfx_nvmc.c.obj)
 .debug_aranges
                0x00000000       0xb0 modules/hal_nordic/nrfx/libmodules__hal_nordic__nrfx.a(nrfx_nvmc.c.obj)
 .debug_ranges  0x00000000      0x330 modules/hal_nordic/nrfx/libmodules__hal_nordic__nrfx.a(nrfx_nvmc.c.obj)
 .debug_line    0x00000000      0xb3d modules/hal_nordic/nrfx/libmodules__hal_nordic__nrfx.a(nrfx_nvmc.c.obj)
 .debug_str     0x00000000      0xb06 modules/hal_nordic/nrfx/libmodules__hal_nordic__nrfx.a(nrfx_nvmc.c.obj)
 .comment       0x00000000       0x7a modules/hal_nordic/nrfx/libmodules__hal_nordic__nrfx.a(nrfx_nvmc.c.obj)
 .debug_frame   0x00000000      0x1a0 modules/hal_nordic/nrfx/libmodules__hal_nordic__nrfx.a(nrfx_nvmc.c.obj)
 .text          0x00000000        0x0 zephyr/kernel/libkernel.a(device.c.obj)
 .data          0x00000000        0x0 zephyr/kernel/libkernel.a(device.c.obj)
 .bss           0x00000000        0x0 zephyr/kernel/libkernel.a(device.c.obj)
 .text.device_busy_set
                0x00000000        0x2 zephyr/kernel/libkernel.a(device.c.obj)
 .text.device_busy_clear
                0x00000000        0x2 zephyr/kernel/libkernel.a(device.c.obj)
 .text          0x00000000        0x0 zephyr/kernel/libkernel.a(errno.c.obj)
 .data          0x00000000        0x0 zephyr/kernel/libkernel.a(errno.c.obj)
 .bss           0x00000000        0x0 zephyr/kernel/libkernel.a(errno.c.obj)
 .text          0x00000000        0x0 zephyr/kernel/libkernel.a(fatal.c.obj)
 .data          0x00000000        0x0 zephyr/kernel/libkernel.a(fatal.c.obj)
 .bss           0x00000000        0x0 zephyr/kernel/libkernel.a(fatal.c.obj)
 .text.coredump
                0x00000000        0x2 zephyr/kernel/libkernel.a(fatal.c.obj)
 .text.coredump_memory_dump
                0x00000000        0x2 zephyr/kernel/libkernel.a(fatal.c.obj)
 .text.coredump_buffer_output
                0x00000000        0x2 zephyr/kernel/libkernel.a(fatal.c.obj)
 .text.coredump_query
                0x00000000        0x6 zephyr/kernel/libkernel.a(fatal.c.obj)
 .text.coredump_cmd
                0x00000000        0x6 zephyr/kernel/libkernel.a(fatal.c.obj)
 .text.arch_system_halt
                0x00000000       0x12 zephyr/kernel/libkernel.a(fatal.c.obj)
 .rodata.k_sys_fatal_error_handler.str1.1
                0x00000000        0xf zephyr/kernel/libkernel.a(fatal.c.obj)
 .text.k_sys_fatal_error_handler
                0x00000000       0x34 zephyr/kernel/libkernel.a(fatal.c.obj)
 .text.k_fatal_halt
                0x00000000        0x6 zephyr/kernel/libkernel.a(fatal.c.obj)
 .text          0x00000000        0x0 zephyr/kernel/libkernel.a(init.c.obj)
 .data          0x00000000        0x0 zephyr/kernel/libkernel.a(init.c.obj)
 .bss           0x00000000        0x0 zephyr/kernel/libkernel.a(init.c.obj)
 .text.main     0x00000000        0x4 zephyr/kernel/libkernel.a(init.c.obj)
 .rodata.z_early_boot_rand_get.str1.1
                0x00000000        0xe zephyr/kernel/libkernel.a(init.c.obj)
 .text.z_early_boot_rand_get
                0x00000000       0x6c zephyr/kernel/libkernel.a(init.c.obj)
 .text          0x00000000        0x0 zephyr/kernel/libkernel.a(mem_slab.c.obj)
 .data          0x00000000        0x0 zephyr/kernel/libkernel.a(mem_slab.c.obj)
 .bss           0x00000000        0x0 zephyr/kernel/libkernel.a(mem_slab.c.obj)
 .text          0x00000000        0x0 zephyr/kernel/libkernel.a(thread.c.obj)
 .data          0x00000000        0x0 zephyr/kernel/libkernel.a(thread.c.obj)
 .bss           0x00000000        0x0 zephyr/kernel/libkernel.a(thread.c.obj)
 .text.k_thread_foreach_unlocked
                0x00000000       0x4c zephyr/kernel/libkernel.a(thread.c.obj)
 .text.z_thread_essential_set
                0x00000000       0x14 zephyr/kernel/libkernel.a(thread.c.obj)
 .text.z_thread_essential_clear
                0x00000000       0x14 zephyr/kernel/libkernel.a(thread.c.obj)
 .text.z_is_thread_essential
                0x00000000       0x10 zephyr/kernel/libkernel.a(thread.c.obj)
 .text.z_impl_k_thread_name_copy
                0x00000000       0x12 zephyr/kernel/libkernel.a(thread.c.obj)
 .text.z_init_thread_base
                0x00000000       0x14 zephyr/kernel/libkernel.a(thread.c.obj)
 .text.k_thread_user_mode_enter
                0x00000000       0x2c zephyr/kernel/libkernel.a(thread.c.obj)
 .text.z_impl_k_float_disable
                0x00000000        0x6 zephyr/kernel/libkernel.a(thread.c.obj)
 .text.z_impl_k_float_enable
                0x00000000        0x6 zephyr/kernel/libkernel.a(thread.c.obj)
 .text          0x00000000        0x0 zephyr/kernel/libkernel.a(version.c.obj)
 .data          0x00000000        0x0 zephyr/kernel/libkernel.a(version.c.obj)
 .bss           0x00000000        0x0 zephyr/kernel/libkernel.a(version.c.obj)
 .text          0x00000000        0x0 zephyr/kernel/libkernel.a(idle.c.obj)
 .data          0x00000000        0x0 zephyr/kernel/libkernel.a(idle.c.obj)
 .bss           0x00000000        0x0 zephyr/kernel/libkernel.a(idle.c.obj)
 .text          0x00000000        0x0 zephyr/kernel/libkernel.a(msg_q.c.obj)
 .data          0x00000000        0x0 zephyr/kernel/libkernel.a(msg_q.c.obj)
 .bss           0x00000000        0x0 zephyr/kernel/libkernel.a(msg_q.c.obj)
 .text.k_msgq_init
                0x00000000       0x26 zephyr/kernel/libkernel.a(msg_q.c.obj)
 .text.z_impl_k_msgq_alloc_init
                0x00000000       0x3e zephyr/kernel/libkernel.a(msg_q.c.obj)
 .text.k_msgq_cleanup
                0x00000000       0x32 zephyr/kernel/libkernel.a(msg_q.c.obj)
 .text.z_impl_k_msgq_get_attrs
                0x00000000        0xe zephyr/kernel/libkernel.a(msg_q.c.obj)
 .text.z_impl_k_msgq_purge
                0x00000000       0x42 zephyr/kernel/libkernel.a(msg_q.c.obj)
 .text          0x00000000        0x0 zephyr/kernel/libkernel.a(mutex.c.obj)
 .data          0x00000000        0x0 zephyr/kernel/libkernel.a(mutex.c.obj)
 .bss           0x00000000        0x0 zephyr/kernel/libkernel.a(mutex.c.obj)
 .text          0x00000000        0x0 zephyr/kernel/libkernel.a(sem.c.obj)
 .data          0x00000000        0x0 zephyr/kernel/libkernel.a(sem.c.obj)
 .bss           0x00000000        0x0 zephyr/kernel/libkernel.a(sem.c.obj)
 .text.z_impl_k_sem_init
                0x00000000       0x20 zephyr/kernel/libkernel.a(sem.c.obj)
 .text.z_impl_k_sem_reset
                0x00000000       0x48 zephyr/kernel/libkernel.a(sem.c.obj)
 .text          0x00000000        0x0 zephyr/kernel/libkernel.a(sched.c.obj)
 .data          0x00000000        0x0 zephyr/kernel/libkernel.a(sched.c.obj)
 .bss           0x00000000        0x0 zephyr/kernel/libkernel.a(sched.c.obj)
 .text.z_swap_next_thread
                0x00000000        0xc zephyr/kernel/libkernel.a(sched.c.obj)
 .text.z_priq_dumb_add
                0x00000000       0x46 zephyr/kernel/libkernel.a(sched.c.obj)
 .text.z_priq_dumb_remove
                0x00000000        0x6 zephyr/kernel/libkernel.a(sched.c.obj)
 .text.z_pend_thread
                0x00000000        0x4 zephyr/kernel/libkernel.a(sched.c.obj)
 .text.z_pend_curr_irqlock
                0x00000000       0x48 zephyr/kernel/libkernel.a(sched.c.obj)
 .text.z_move_thread_to_end_of_prio_q
                0x00000000       0x20 zephyr/kernel/libkernel.a(sched.c.obj)
 .text.z_impl_k_thread_resume
                0x00000000       0x3c zephyr/kernel/libkernel.a(sched.c.obj)
 .text.z_thread_priority_set
                0x00000000       0x20 zephyr/kernel/libkernel.a(sched.c.obj)
 .text.z_priq_rb_lessthan
                0x00000000       0x2a zephyr/kernel/libkernel.a(sched.c.obj)
 .text.z_priq_rb_add
                0x00000000       0x5c zephyr/kernel/libkernel.a(sched.c.obj)
 .text.z_priq_rb_remove
                0x00000000       0x10 zephyr/kernel/libkernel.a(sched.c.obj)
 .text.z_priq_rb_best
                0x00000000       0x10 zephyr/kernel/libkernel.a(sched.c.obj)
 .text.z_priq_mq_add
                0x00000000       0x32 zephyr/kernel/libkernel.a(sched.c.obj)
 .text.z_priq_mq_remove
                0x00000000       0x30 zephyr/kernel/libkernel.a(sched.c.obj)
 .text.z_priq_mq_best
                0x00000000       0x28 zephyr/kernel/libkernel.a(sched.c.obj)
 .text.z_unpend_all
                0x00000000       0x20 zephyr/kernel/libkernel.a(sched.c.obj)
 .text.z_impl_k_thread_priority_get
                0x00000000        0x6 zephyr/kernel/libkernel.a(sched.c.obj)
 .text.z_impl_k_thread_priority_set
                0x00000000        0x4 zephyr/kernel/libkernel.a(sched.c.obj)
 .text.z_impl_k_usleep
                0x00000000       0x44 zephyr/kernel/libkernel.a(sched.c.obj)
 .text.z_impl_k_wakeup
                0x00000000       0x38 zephyr/kernel/libkernel.a(sched.c.obj)
 .text.z_impl_k_thread_join
                0x00000000       0x80 zephyr/kernel/libkernel.a(sched.c.obj)
 .text          0x00000000        0x0 zephyr/kernel/libkernel.a(xip.c.obj)
 .data          0x00000000        0x0 zephyr/kernel/libkernel.a(xip.c.obj)
 .bss           0x00000000        0x0 zephyr/kernel/libkernel.a(xip.c.obj)
 .text          0x00000000        0x0 zephyr/kernel/libkernel.a(timeout.c.obj)
 .data          0x00000000        0x0 zephyr/kernel/libkernel.a(timeout.c.obj)
 .bss           0x00000000        0x0 zephyr/kernel/libkernel.a(timeout.c.obj)
 .text.z_timeout_expires
                0x00000000       0x30 zephyr/kernel/libkernel.a(timeout.c.obj)
 .text.sys_clock_timeout_end_calc
                0x00000000       0x52 zephyr/kernel/libkernel.a(timeout.c.obj)
 .text          0x00000000        0x0 zephyr/kernel/libkernel.a(timer.c.obj)
 .data          0x00000000        0x0 zephyr/kernel/libkernel.a(timer.c.obj)
 .bss           0x00000000        0x0 zephyr/kernel/libkernel.a(timer.c.obj)
 .text.z_impl_k_timer_status_get
                0x00000000       0x22 zephyr/kernel/libkernel.a(timer.c.obj)
 .text.z_impl_k_timer_status_sync
                0x00000000       0x58 zephyr/kernel/libkernel.a(timer.c.obj)
 .bss.lock      0x00000000        0x0 zephyr/kernel/libkernel.a(timer.c.obj)
 .text          0x00000000        0x0 zephyr/kernel/libkernel.a(poll.c.obj)
 .data          0x00000000        0x0 zephyr/kernel/libkernel.a(poll.c.obj)
 .bss           0x00000000        0x0 zephyr/kernel/libkernel.a(poll.c.obj)
 .text.triggered_work_handler
                0x00000000       0x38 zephyr/kernel/libkernel.a(poll.c.obj)
 .text.triggered_work_expiration_handler
                0x00000000       0x18 zephyr/kernel/libkernel.a(poll.c.obj)
 .text.k_work_poll_init
                0x00000000       0x24 zephyr/kernel/libkernel.a(poll.c.obj)
 .text.k_work_poll_submit_to_queue
                0x00000000       0xfc zephyr/kernel/libkernel.a(poll.c.obj)
 .text.k_work_poll_submit
                0x00000000       0x10 zephyr/kernel/libkernel.a(poll.c.obj)
 .text.k_work_poll_cancel
                0x00000000       0x50 zephyr/kernel/libkernel.a(poll.c.obj)
 .text          0x00000000        0x0 zephyr/kernel/libkernel.a(mempool.c.obj)
 .data          0x00000000        0x0 zephyr/kernel/libkernel.a(mempool.c.obj)
 .bss           0x00000000        0x0 zephyr/kernel/libkernel.a(mempool.c.obj)
 .text.z_heap_aligned_alloc
                0x00000000       0x26 zephyr/kernel/libkernel.a(mempool.c.obj)
 .text.k_free   0x00000000        0xe zephyr/kernel/libkernel.a(mempool.c.obj)
 .text.k_aligned_alloc
                0x00000000       0x10 zephyr/kernel/libkernel.a(mempool.c.obj)
 .text.k_malloc
                0x00000000        0x8 zephyr/kernel/libkernel.a(mempool.c.obj)
 .text.k_calloc
                0x00000000       0x24 zephyr/kernel/libkernel.a(mempool.c.obj)
 .text.k_thread_system_pool_assign
                0x00000000        0xc zephyr/kernel/libkernel.a(mempool.c.obj)
 .text.z_thread_aligned_alloc
                0x00000000       0x34 zephyr/kernel/libkernel.a(mempool.c.obj)
 ._k_heap.static._system_heap
                0x00000000       0x14 zephyr/kernel/libkernel.a(mempool.c.obj)
 .bss.kheap__system_heap
                0x00000000     0xc000 zephyr/kernel/libkernel.a(mempool.c.obj)
 .debug_info    0x00000000      0xda5 zephyr/kernel/libkernel.a(mempool.c.obj)
 .debug_abbrev  0x00000000      0x34e zephyr/kernel/libkernel.a(mempool.c.obj)
 .debug_loc     0x00000000      0x4e3 zephyr/kernel/libkernel.a(mempool.c.obj)
 .debug_aranges
                0x00000000       0x50 zephyr/kernel/libkernel.a(mempool.c.obj)
 .debug_ranges  0x00000000       0x70 zephyr/kernel/libkernel.a(mempool.c.obj)
 .debug_line    0x00000000      0x4e0 zephyr/kernel/libkernel.a(mempool.c.obj)
 .debug_str     0x00000000      0x94f zephyr/kernel/libkernel.a(mempool.c.obj)
 .comment       0x00000000       0x7a zephyr/kernel/libkernel.a(mempool.c.obj)
 .debug_frame   0x00000000       0xb8 zephyr/kernel/libkernel.a(mempool.c.obj)
 .text          0x00000000        0x0 zephyr/kernel/libkernel.a(banner.c.obj)
 .data          0x00000000        0x0 zephyr/kernel/libkernel.a(banner.c.obj)
 .bss           0x00000000        0x0 zephyr/kernel/libkernel.a(banner.c.obj)
 .text          0x00000000        0x0 zephyr/kernel/libkernel.a(kheap.c.obj)
 .data          0x00000000        0x0 zephyr/kernel/libkernel.a(kheap.c.obj)
 .bss           0x00000000        0x0 zephyr/kernel/libkernel.a(kheap.c.obj)
 .text.k_heap_aligned_alloc
                0x00000000       0x8e zephyr/kernel/libkernel.a(kheap.c.obj)
 .text.k_heap_alloc
                0x00000000       0x14 zephyr/kernel/libkernel.a(kheap.c.obj)
 .text.k_heap_free
                0x00000000       0x3a zephyr/kernel/libkernel.a(kheap.c.obj)
 .text          0x00000000        0x0 zephyr/kernel/libkernel.a(system_work_q.c.obj)
 .data          0x00000000        0x0 zephyr/kernel/libkernel.a(system_work_q.c.obj)
 .bss           0x00000000        0x0 zephyr/kernel/libkernel.a(system_work_q.c.obj)
 .text          0x00000000        0x0 zephyr/kernel/libkernel.a(work.c.obj)
 .data          0x00000000        0x0 zephyr/kernel/libkernel.a(work.c.obj)
 .bss           0x00000000        0x0 zephyr/kernel/libkernel.a(work.c.obj)
 .text.handle_flush
                0x00000000        0x6 zephyr/kernel/libkernel.a(work.c.obj)
 .text.unschedule_locked
                0x00000000       0x1c zephyr/kernel/libkernel.a(work.c.obj)
 .text.cancel_async_locked
                0x00000000       0x66 zephyr/kernel/libkernel.a(work.c.obj)
 .text.cancel_sync_locked
                0x00000000       0x3c zephyr/kernel/libkernel.a(work.c.obj)
 .text.work_timeout
                0x00000000       0x3e zephyr/kernel/libkernel.a(work.c.obj)
 .text.k_work_init
                0x00000000       0x12 zephyr/kernel/libkernel.a(work.c.obj)
 .text.queue_flusher_locked
                0x00000000       0x6c zephyr/kernel/libkernel.a(work.c.obj)
 .text.k_work_busy_get
                0x00000000       0x20 zephyr/kernel/libkernel.a(work.c.obj)
 .text.k_work_submit
                0x00000000        0xc zephyr/kernel/libkernel.a(work.c.obj)
 .text.k_work_flush
                0x00000000       0x58 zephyr/kernel/libkernel.a(work.c.obj)
 .text.k_work_cancel
                0x00000000       0x20 zephyr/kernel/libkernel.a(work.c.obj)
 .text.k_work_cancel_sync
                0x00000000       0x52 zephyr/kernel/libkernel.a(work.c.obj)
 .text.k_work_queue_drain
                0x00000000       0x6c zephyr/kernel/libkernel.a(work.c.obj)
 .text.k_work_queue_unplug
                0x00000000       0x32 zephyr/kernel/libkernel.a(work.c.obj)
 .text.k_work_init_delayable
                0x00000000       0x18 zephyr/kernel/libkernel.a(work.c.obj)
 .text.k_work_delayable_busy_get
                0x00000000       0x24 zephyr/kernel/libkernel.a(work.c.obj)
 .text.k_work_schedule_for_queue
                0x00000000       0x58 zephyr/kernel/libkernel.a(work.c.obj)
 .text.k_work_schedule
                0x00000000        0xc zephyr/kernel/libkernel.a(work.c.obj)
 .text.k_work_reschedule_for_queue
                0x00000000       0x5c zephyr/kernel/libkernel.a(work.c.obj)
 .text.k_work_reschedule
                0x00000000        0xc zephyr/kernel/libkernel.a(work.c.obj)
 .text.k_work_cancel_delayable
                0x00000000       0x28 zephyr/kernel/libkernel.a(work.c.obj)
 .text.k_work_cancel_delayable_sync
                0x00000000       0x5e zephyr/kernel/libkernel.a(work.c.obj)
 .text.k_work_flush_delayable
                0x00000000       0x80 zephyr/kernel/libkernel.a(work.c.obj)
 .text          0x00000000        0x0 zephyr/CMakeFiles/offsets.dir/./arch/arm/core/offsets/offsets.c.obj
 .data          0x00000000        0x0 zephyr/CMakeFiles/offsets.dir/./arch/arm/core/offsets/offsets.c.obj
 .bss           0x00000000        0x0 zephyr/CMakeFiles/offsets.dir/./arch/arm/core/offsets/offsets.c.obj
 .text          0x00000000       0xe8 c:/ncs/v1.6.0/toolchain/opt/bin/../lib/gcc/arm-none-eabi/9.2.1/thumb/v8-m.main/nofp\libgcc.a(cmse.o)
 .data          0x00000000        0x0 c:/ncs/v1.6.0/toolchain/opt/bin/../lib/gcc/arm-none-eabi/9.2.1/thumb/v8-m.main/nofp\libgcc.a(cmse.o)
 .bss           0x00000000        0x0 c:/ncs/v1.6.0/toolchain/opt/bin/../lib/gcc/arm-none-eabi/9.2.1/thumb/v8-m.main/nofp\libgcc.a(cmse.o)
 .debug_frame   0x00000000       0x34 c:/ncs/v1.6.0/toolchain/opt/bin/../lib/gcc/arm-none-eabi/9.2.1/thumb/v8-m.main/nofp\libgcc.a(cmse.o)
 .text          0x00000000      0x254 c:/ncs/v1.6.0/toolchain/opt/bin/../lib/gcc/arm-none-eabi/9.2.1/thumb/v8-m.main/nofp\libgcc.a(_arm_muldf3.o)
 .data          0x00000000        0x0 c:/ncs/v1.6.0/toolchain/opt/bin/../lib/gcc/arm-none-eabi/9.2.1/thumb/v8-m.main/nofp\libgcc.a(_arm_muldf3.o)
 .bss           0x00000000        0x0 c:/ncs/v1.6.0/toolchain/opt/bin/../lib/gcc/arm-none-eabi/9.2.1/thumb/v8-m.main/nofp\libgcc.a(_arm_muldf3.o)
 .debug_frame   0x00000000       0x30 c:/ncs/v1.6.0/toolchain/opt/bin/../lib/gcc/arm-none-eabi/9.2.1/thumb/v8-m.main/nofp\libgcc.a(_arm_muldf3.o)
 .text          0x00000000      0x168 c:/ncs/v1.6.0/toolchain/opt/bin/../lib/gcc/arm-none-eabi/9.2.1/thumb/v8-m.main/nofp\libgcc.a(_arm_mulsf3.o)
 .data          0x00000000        0x0 c:/ncs/v1.6.0/toolchain/opt/bin/../lib/gcc/arm-none-eabi/9.2.1/thumb/v8-m.main/nofp\libgcc.a(_arm_mulsf3.o)
 .bss           0x00000000        0x0 c:/ncs/v1.6.0/toolchain/opt/bin/../lib/gcc/arm-none-eabi/9.2.1/thumb/v8-m.main/nofp\libgcc.a(_arm_mulsf3.o)
 .debug_frame   0x00000000       0x24 c:/ncs/v1.6.0/toolchain/opt/bin/../lib/gcc/arm-none-eabi/9.2.1/thumb/v8-m.main/nofp\libgcc.a(_arm_mulsf3.o)
 .text          0x00000000      0x378 c:/ncs/v1.6.0/toolchain/opt/bin/../lib/gcc/arm-none-eabi/9.2.1/thumb/v8-m.main/nofp\libgcc.a(_arm_addsubdf3.o)
 .data          0x00000000        0x0 c:/ncs/v1.6.0/toolchain/opt/bin/../lib/gcc/arm-none-eabi/9.2.1/thumb/v8-m.main/nofp\libgcc.a(_arm_addsubdf3.o)
 .bss           0x00000000        0x0 c:/ncs/v1.6.0/toolchain/opt/bin/../lib/gcc/arm-none-eabi/9.2.1/thumb/v8-m.main/nofp\libgcc.a(_arm_addsubdf3.o)
 .debug_frame   0x00000000       0xac c:/ncs/v1.6.0/toolchain/opt/bin/../lib/gcc/arm-none-eabi/9.2.1/thumb/v8-m.main/nofp\libgcc.a(_arm_addsubdf3.o)
 .text          0x00000000      0x424 c:/ncs/v1.6.0/toolchain/opt/bin/../lib/gcc/arm-none-eabi/9.2.1/thumb/v8-m.main/nofp\libgcc.a(_arm_muldivdf3.o)
 .data          0x00000000        0x0 c:/ncs/v1.6.0/toolchain/opt/bin/../lib/gcc/arm-none-eabi/9.2.1/thumb/v8-m.main/nofp\libgcc.a(_arm_muldivdf3.o)
 .bss           0x00000000        0x0 c:/ncs/v1.6.0/toolchain/opt/bin/../lib/gcc/arm-none-eabi/9.2.1/thumb/v8-m.main/nofp\libgcc.a(_arm_muldivdf3.o)
 .debug_frame   0x00000000       0x50 c:/ncs/v1.6.0/toolchain/opt/bin/../lib/gcc/arm-none-eabi/9.2.1/thumb/v8-m.main/nofp\libgcc.a(_arm_muldivdf3.o)
 .text          0x00000000       0xa0 c:/ncs/v1.6.0/toolchain/opt/bin/../lib/gcc/arm-none-eabi/9.2.1/thumb/v8-m.main/nofp\libgcc.a(_arm_truncdfsf2.o)
 .data          0x00000000        0x0 c:/ncs/v1.6.0/toolchain/opt/bin/../lib/gcc/arm-none-eabi/9.2.1/thumb/v8-m.main/nofp\libgcc.a(_arm_truncdfsf2.o)
 .bss           0x00000000        0x0 c:/ncs/v1.6.0/toolchain/opt/bin/../lib/gcc/arm-none-eabi/9.2.1/thumb/v8-m.main/nofp\libgcc.a(_arm_truncdfsf2.o)
 .debug_frame   0x00000000       0x24 c:/ncs/v1.6.0/toolchain/opt/bin/../lib/gcc/arm-none-eabi/9.2.1/thumb/v8-m.main/nofp\libgcc.a(_arm_truncdfsf2.o)
 .text          0x00000000      0x21c c:/ncs/v1.6.0/toolchain/opt/bin/../lib/gcc/arm-none-eabi/9.2.1/thumb/v8-m.main/nofp\libgcc.a(_arm_addsubsf3.o)
 .data          0x00000000        0x0 c:/ncs/v1.6.0/toolchain/opt/bin/../lib/gcc/arm-none-eabi/9.2.1/thumb/v8-m.main/nofp\libgcc.a(_arm_addsubsf3.o)
 .bss           0x00000000        0x0 c:/ncs/v1.6.0/toolchain/opt/bin/../lib/gcc/arm-none-eabi/9.2.1/thumb/v8-m.main/nofp\libgcc.a(_arm_addsubsf3.o)
 .debug_frame   0x00000000       0x4c c:/ncs/v1.6.0/toolchain/opt/bin/../lib/gcc/arm-none-eabi/9.2.1/thumb/v8-m.main/nofp\libgcc.a(_arm_addsubsf3.o)
 .text          0x00000000      0x2a0 c:/ncs/v1.6.0/toolchain/opt/bin/../lib/gcc/arm-none-eabi/9.2.1/thumb/v8-m.main/nofp\libgcc.a(_arm_muldivsf3.o)
 .data          0x00000000        0x0 c:/ncs/v1.6.0/toolchain/opt/bin/../lib/gcc/arm-none-eabi/9.2.1/thumb/v8-m.main/nofp\libgcc.a(_arm_muldivsf3.o)
 .bss           0x00000000        0x0 c:/ncs/v1.6.0/toolchain/opt/bin/../lib/gcc/arm-none-eabi/9.2.1/thumb/v8-m.main/nofp\libgcc.a(_arm_muldivsf3.o)
 .debug_frame   0x00000000       0x38 c:/ncs/v1.6.0/toolchain/opt/bin/../lib/gcc/arm-none-eabi/9.2.1/thumb/v8-m.main/nofp\libgcc.a(_arm_muldivsf3.o)
 .text          0x00000000       0xec c:/ncs/v1.6.0/toolchain/opt/bin/../lib/gcc/arm-none-eabi/9.2.1/thumb/v8-m.main/nofp\libgcc.a(_arm_cmpsf2.o)
 .data          0x00000000        0x0 c:/ncs/v1.6.0/toolchain/opt/bin/../lib/gcc/arm-none-eabi/9.2.1/thumb/v8-m.main/nofp\libgcc.a(_arm_cmpsf2.o)
 .bss           0x00000000        0x0 c:/ncs/v1.6.0/toolchain/opt/bin/../lib/gcc/arm-none-eabi/9.2.1/thumb/v8-m.main/nofp\libgcc.a(_arm_cmpsf2.o)
 .debug_frame   0x00000000       0xc8 c:/ncs/v1.6.0/toolchain/opt/bin/../lib/gcc/arm-none-eabi/9.2.1/thumb/v8-m.main/nofp\libgcc.a(_arm_cmpsf2.o)
 .data          0x00000000        0x0 c:/ncs/v1.6.0/toolchain/opt/bin/../lib/gcc/arm-none-eabi/9.2.1/thumb/v8-m.main/nofp\libgcc.a(_aeabi_ldivmod.o)
 .bss           0x00000000        0x0 c:/ncs/v1.6.0/toolchain/opt/bin/../lib/gcc/arm-none-eabi/9.2.1/thumb/v8-m.main/nofp\libgcc.a(_aeabi_ldivmod.o)
 .data          0x00000000        0x0 c:/ncs/v1.6.0/toolchain/opt/bin/../lib/gcc/arm-none-eabi/9.2.1/thumb/v8-m.main/nofp\libgcc.a(_aeabi_uldivmod.o)
 .bss           0x00000000        0x0 c:/ncs/v1.6.0/toolchain/opt/bin/../lib/gcc/arm-none-eabi/9.2.1/thumb/v8-m.main/nofp\libgcc.a(_aeabi_uldivmod.o)
 .text          0x00000000       0x28 c:/ncs/v1.6.0/toolchain/opt/bin/../lib/gcc/arm-none-eabi/9.2.1/thumb/v8-m.main/nofp\libgcc.a(_fixsfdi.o)
 .data          0x00000000        0x0 c:/ncs/v1.6.0/toolchain/opt/bin/../lib/gcc/arm-none-eabi/9.2.1/thumb/v8-m.main/nofp\libgcc.a(_fixsfdi.o)
 .bss           0x00000000        0x0 c:/ncs/v1.6.0/toolchain/opt/bin/../lib/gcc/arm-none-eabi/9.2.1/thumb/v8-m.main/nofp\libgcc.a(_fixsfdi.o)
 .debug_frame   0x00000000       0x30 c:/ncs/v1.6.0/toolchain/opt/bin/../lib/gcc/arm-none-eabi/9.2.1/thumb/v8-m.main/nofp\libgcc.a(_fixsfdi.o)
 .text          0x00000000       0x34 c:/ncs/v1.6.0/toolchain/opt/bin/../lib/gcc/arm-none-eabi/9.2.1/thumb/v8-m.main/nofp\libgcc.a(_fixdfdi.o)
 .data          0x00000000        0x0 c:/ncs/v1.6.0/toolchain/opt/bin/../lib/gcc/arm-none-eabi/9.2.1/thumb/v8-m.main/nofp\libgcc.a(_fixdfdi.o)
 .bss           0x00000000        0x0 c:/ncs/v1.6.0/toolchain/opt/bin/../lib/gcc/arm-none-eabi/9.2.1/thumb/v8-m.main/nofp\libgcc.a(_fixdfdi.o)
 .debug_frame   0x00000000       0x38 c:/ncs/v1.6.0/toolchain/opt/bin/../lib/gcc/arm-none-eabi/9.2.1/thumb/v8-m.main/nofp\libgcc.a(_fixdfdi.o)
 .text          0x00000000       0x40 c:/ncs/v1.6.0/toolchain/opt/bin/../lib/gcc/arm-none-eabi/9.2.1/thumb/v8-m.main/nofp\libgcc.a(_fixunssfdi.o)
 .data          0x00000000        0x0 c:/ncs/v1.6.0/toolchain/opt/bin/../lib/gcc/arm-none-eabi/9.2.1/thumb/v8-m.main/nofp\libgcc.a(_fixunssfdi.o)
 .bss           0x00000000        0x0 c:/ncs/v1.6.0/toolchain/opt/bin/../lib/gcc/arm-none-eabi/9.2.1/thumb/v8-m.main/nofp\libgcc.a(_fixunssfdi.o)
 .debug_frame   0x00000000       0x2c c:/ncs/v1.6.0/toolchain/opt/bin/../lib/gcc/arm-none-eabi/9.2.1/thumb/v8-m.main/nofp\libgcc.a(_fixunssfdi.o)
 .text          0x00000000       0x3c c:/ncs/v1.6.0/toolchain/opt/bin/../lib/gcc/arm-none-eabi/9.2.1/thumb/v8-m.main/nofp\libgcc.a(_fixunsdfdi.o)
 .data          0x00000000        0x0 c:/ncs/v1.6.0/toolchain/opt/bin/../lib/gcc/arm-none-eabi/9.2.1/thumb/v8-m.main/nofp\libgcc.a(_fixunsdfdi.o)
 .bss           0x00000000        0x0 c:/ncs/v1.6.0/toolchain/opt/bin/../lib/gcc/arm-none-eabi/9.2.1/thumb/v8-m.main/nofp\libgcc.a(_fixunsdfdi.o)
 .debug_frame   0x00000000       0x2c c:/ncs/v1.6.0/toolchain/opt/bin/../lib/gcc/arm-none-eabi/9.2.1/thumb/v8-m.main/nofp\libgcc.a(_fixunsdfdi.o)
 .data          0x00000000        0x0 c:/ncs/v1.6.0/toolchain/opt/bin/../lib/gcc/arm-none-eabi/9.2.1/thumb/v8-m.main/nofp\libgcc.a(_udivmoddi4.o)
 .bss           0x00000000        0x0 c:/ncs/v1.6.0/toolchain/opt/bin/../lib/gcc/arm-none-eabi/9.2.1/thumb/v8-m.main/nofp\libgcc.a(_udivmoddi4.o)
 .ARM.extab     0x00000000        0x0 c:/ncs/v1.6.0/toolchain/opt/bin/../lib/gcc/arm-none-eabi/9.2.1/thumb/v8-m.main/nofp\libgcc.a(_udivmoddi4.o)
 .data          0x00000000        0x0 c:/ncs/v1.6.0/toolchain/opt/bin/../lib/gcc/arm-none-eabi/9.2.1/thumb/v8-m.main/nofp\libgcc.a(_dvmd_tls.o)
 .bss           0x00000000        0x0 c:/ncs/v1.6.0/toolchain/opt/bin/../lib/gcc/arm-none-eabi/9.2.1/thumb/v8-m.main/nofp\libgcc.a(_dvmd_tls.o)
 .text          0x00000000      0x110 c:/ncs/v1.6.0/toolchain/opt/bin/../lib/gcc/arm-none-eabi/9.2.1/thumb/v8-m.main/nofp\libgcc.a(_arm_cmpdf2.o)
 .data          0x00000000        0x0 c:/ncs/v1.6.0/toolchain/opt/bin/../lib/gcc/arm-none-eabi/9.2.1/thumb/v8-m.main/nofp\libgcc.a(_arm_cmpdf2.o)
 .bss           0x00000000        0x0 c:/ncs/v1.6.0/toolchain/opt/bin/../lib/gcc/arm-none-eabi/9.2.1/thumb/v8-m.main/nofp\libgcc.a(_arm_cmpdf2.o)
 .debug_frame   0x00000000       0xc4 c:/ncs/v1.6.0/toolchain/opt/bin/../lib/gcc/arm-none-eabi/9.2.1/thumb/v8-m.main/nofp\libgcc.a(_arm_cmpdf2.o)
 .text          0x00000000       0x40 c:/ncs/v1.6.0/toolchain/opt/bin/../lib/gcc/arm-none-eabi/9.2.1/thumb/v8-m.main/nofp\libgcc.a(_arm_fixunsdfsi.o)
 .data          0x00000000        0x0 c:/ncs/v1.6.0/toolchain/opt/bin/../lib/gcc/arm-none-eabi/9.2.1/thumb/v8-m.main/nofp\libgcc.a(_arm_fixunsdfsi.o)
 .bss           0x00000000        0x0 c:/ncs/v1.6.0/toolchain/opt/bin/../lib/gcc/arm-none-eabi/9.2.1/thumb/v8-m.main/nofp\libgcc.a(_arm_fixunsdfsi.o)
 .debug_frame   0x00000000       0x24 c:/ncs/v1.6.0/toolchain/opt/bin/../lib/gcc/arm-none-eabi/9.2.1/thumb/v8-m.main/nofp\libgcc.a(_arm_fixunsdfsi.o)
 .data          0x00000000        0x0 ../mylib/src/libblst.a(server.o)
 .bss           0x00000000        0x0 ../mylib/src/libblst.a(server.o)
 .text          0x00000000        0x0 zephyr/arch/common/libisr_tables.a(isr_tables.c.obj)
 .data          0x00000000        0x0 zephyr/arch/common/libisr_tables.a(isr_tables.c.obj)
 .bss           0x00000000        0x0 zephyr/arch/common/libisr_tables.a(isr_tables.c.obj)

Memory Configuration

Name             Origin             Length             Attributes
FLASH            0x00010000         0x000f0000         xr
SRAM             0x20008000         0x00078000         xw
SRAM1            0x21000000         0x00010000         rw
IDT_LIST         0x20080000         0x00000800         xw
*default*        0x00000000         0xffffffff

Linker script and memory map

LOAD zephyr/CMakeFiles/zephyr_prebuilt.dir/misc/empty_file.c.obj
                0x00000020                _region_min_align = 0x20

.rel.plt        0x00010000        0x0
 *(SORT_BY_ALIGNMENT(.rel.plt))
                [!provide]                PROVIDE (__rel_iplt_start = .)
 *(SORT_BY_ALIGNMENT(.rel.iplt))
 .rel.iplt      0x00010000        0x0 app/libapp.a(main.c.obj)
                [!provide]                PROVIDE (__rel_iplt_end = .)

.rela.plt       0x00000000        0x0
 *(SORT_BY_ALIGNMENT(.rela.plt))
                [!provide]                PROVIDE (__rela_iplt_start = .)
 *(SORT_BY_ALIGNMENT(.rela.iplt))
                [!provide]                PROVIDE (__rela_iplt_end = .)

.rel.dyn
 *(SORT_BY_ALIGNMENT(.rel.*))

.rela.dyn
 *(SORT_BY_ALIGNMENT(.rela.*))

/DISCARD/
 *(SORT_BY_ALIGNMENT(.plt))
 *(SORT_BY_ALIGNMENT(.iplt))
 *(SORT_BY_ALIGNMENT(.got.plt))
 *(SORT_BY_ALIGNMENT(.igot.plt))
 *(SORT_BY_ALIGNMENT(.got))
 *(SORT_BY_ALIGNMENT(.igot))
 *(SORT_BY_ALIGNMENT(.note.GNU-stack))
                0x00010000                _image_rom_start = 0x10000

rom_start       0x00010000      0x23c
                0x00000000                . = 0x0
                0x00000000                . = ALIGN (0x4)
                0x00000000                . = ALIGN (0x80)
                0x00000000                . = ALIGN (0x200)
                0x00010000                _vector_start = .
 *(SORT_BY_ALIGNMENT(.exc_vector_table))
 *(SORT_BY_ALIGNMENT(.exc_vector_table.*))
 .exc_vector_table._vector_table_section
                0x00010000       0x40 zephyr/arch/arch/arm/core/aarch32/cortex_m/libarch__arm__core__aarch32__cortex_m.a(vector_table.S.obj)
                0x00010000                _vector_table
 *(SORT_BY_ALIGNMENT(.gnu.linkonce.irq_vector_table*))
 .gnu.linkonce.irq_vector_table
                0x00010040      0x114 zephyr/arch/common/libisr_tables.a(isr_tables.c.obj)
                0x00010040                _irq_vector_table
 *(SORT_BY_ALIGNMENT(.vectors))
                0x00010154                _vector_end = .
                0x00000200                . = 0x200
 *fill*         0x00010154       0xac 
                0x00010200                _fw_info_start = .
 *(SORT_BY_NAME(SORT_BY_ALIGNMENT(.firmware_info*)))
 .firmware_info
                0x00010200       0x3c modules/nrf/subsys/fw_info/lib..__nrf__subsys__fw_info.a(fw_info.c.obj)
                0x00010200                m_firmware_info
                0x0000003c                _fw_info_size = ABSOLUTE ((. - _fw_info_start))

text            0x00010240    0x1814a
                0x00010240                _image_text_start = .
 *(SORT_BY_ALIGNMENT(.text))
 .text          0x00010240       0xa0 c:/ncs/v1.6.0/toolchain/opt/bin/../lib/gcc/arm-none-eabi/9.2.1/thumb/v8-m.main/nofp\libgcc.a(_aeabi_ldivmod.o)
                0x00010240                __aeabi_ldivmod
 .text          0x000102e0       0x30 c:/ncs/v1.6.0/toolchain/opt/bin/../lib/gcc/arm-none-eabi/9.2.1/thumb/v8-m.main/nofp\libgcc.a(_aeabi_uldivmod.o)
                0x000102e0                __aeabi_uldivmod
 .text          0x00010310      0x2c8 c:/ncs/v1.6.0/toolchain/opt/bin/../lib/gcc/arm-none-eabi/9.2.1/thumb/v8-m.main/nofp\libgcc.a(_udivmoddi4.o)
                0x00010310                __udivmoddi4
 .text          0x000105d8        0x4 c:/ncs/v1.6.0/toolchain/opt/bin/../lib/gcc/arm-none-eabi/9.2.1/thumb/v8-m.main/nofp\libgcc.a(_dvmd_tls.o)
                0x000105d8                __aeabi_idiv0
                0x000105d8                __aeabi_ldiv0
 .text          0x000105dc     0xcb94 ../mylib/src/libblst.a(server.o)
                0x00013be8                blst_p1_cneg
                0x00013bfa                blst_p1_from_affine
                0x00013c5c                blst_p1_affine_on_curve
                0x00013c64                blst_p1_on_curve
                0x00013d68                blst_p1_affine_serialize
                0x00013d9e                blst_p1_affine_compress
                0x00013de8                blst_p1_is_equal
                0x00013df0                blst_p1_is_inf
                0x00013e0e                blst_p1_generator
                0x00013e18                blst_p1_affine_is_inf
                0x00013e34                blst_p1_affine_generator
                0x00013e3c                blst_p1_in_g1
                0x00013e44                blst_p1_affine_in_g1
                0x00013eac                blst_p2_cneg
                0x00013ebe                blst_p2_from_affine
                0x00013f14                blst_p2_affine_serialize
                0x00013f4a                blst_p2_affine_compress
                0x00013f94                blst_p2_is_inf
                0x00013fb2                blst_p2_generator
                0x00013fbc                blst_p2_affine_is_inf
                0x00013fd8                blst_p2_affine_generator
                0x00013fe0                blst_fp12_conjugate
                0x00013fe8                blst_fp12_is_equal
                0x00014010                blst_fp12_is_one
                0x00014064                blst_fp12_one
                0x0001406c                blst_pairing_sizeof
                0x00014072                blst_pairing_init
                0x00014090                blst_pairing_get_dst
                0x0001409e                mul_mont_sparse_256
                0x000140b2                sqr_mont_sparse_256
                0x000140c8                mul_mont_384
                0x000140dc                sqr_mont_384
                0x000140f2                add_mod_256
                0x00014102                add_mod_384
                0x00014112                sub_mod_256
                0x00014122                sub_mod_384
                0x00014132                mul_by_3_mod_256
                0x0001413c                mul_by_3_mod_384
                0x00014146                lshift_mod_256
                0x00014156                lshift_mod_384
                0x00014166                cneg_mod_256
                0x00014176                cneg_mod_384
                0x00014186                check_mod_256
                0x00014190                from_mont_256
                0x000141a0                from_mont_384
                0x000141b0                redc_mont_256
                0x000141c0                redc_mont_384
                0x000141d0                rshift_mod_256
                0x000141e0                rshift_mod_384
                0x000141f0                div_by_2_mod_384
                0x00014206                eucl_inverse_mod_256
                0x00014216                sgn0_pty_mod_384
                0x00014220                sgn0_pty_mont_384
                0x00014244                sgn0_pty_mod_384x
                0x000142be                sgn0_pty_mont_384x
                0x00014354                mul_mont_384x
                0x00014634                blst_fp12_frobenius_map
                0x00014a78                blst_fp12_mul
                0x00014c20                blst_fp12_sqr
                0x00014f64                blst_fp12_mul_by_xy00z0
                0x000150a0                blst_miller_loop_lines
                0x000150a8                sqr_n_mul_mont_383
                0x00015850                blst_p1_from_jacobian
                0x00015858                blst_p1_to_affine
                0x000158ec                blst_p1_serialize
                0x00015924                blst_p1_compress
                0x00015a30                blst_fp2_inverse
                0x00015a38                blst_fp2_eucl_inverse
                0x00015a40                blst_fp_inverse
                0x00015a48                blst_fp_eucl_inverse
                0x00016274                blst_p1_uncompress
                0x0001627c                blst_p1_deserialize
                0x000162e0                blst_aggregate_in_g1
                0x00016380                blst_fp_sqrt
                0x0001671c                blst_map_to_g1
                0x00016724                sqr_mont_382x
                0x00016828                ct_inverse_mod_383
                0x00016838                div_3_limbs
                0x00016a7c                blst_sk_to_pk_in_g1
                0x00016a8c                blst_sign_pk_in_g2
                0x00016a94                blst_sk_to_pk2_in_g1
                0x00016af4                blst_sign_pk2_in_g2
                0x00016b52                blst_p1_mult
                0x00016c30                quot_rem_128
                0x00016c3a                quot_rem_64
                0x00016c44                blst_sha256_block_data_order
                0x00016e58                blst_sha256_hcopy
                0x00016e6c                blst_sha256_emit
                0x00016f4c                blst_sha256_bcopy
                0x00017374                blst_encode_to_g1
                0x0001739e                blst_hash_to_g1
                0x00017500                blst_keygen
                0x00017754                mul_by_8_mod_384
                0x0001776a                mul_by_3_mod_384x
                0x0001778a                mul_by_8_mod_384x
                0x000177b6                mul_by_1_plus_i_mod_384x
                0x00017804                add_mod_384x
                0x0001783a                sub_mod_384x
                0x00017870                sqr_mont_384x
                0x00017980                blst_p2_from_jacobian
                0x000179d8                blst_p2_to_affine
                0x00017a2c                blst_p2_serialize
                0x00017ab0                blst_p2_compress
                0x00017bb8                blst_p2_affine_on_curve
                0x00017ed0                blst_p2_on_curve
                0x000181bc                blst_fp2_sqrt
                0x00018460                blst_p2_uncompress
                0x00018468                blst_p2_deserialize
                0x000185d4                blst_p2_is_equal
                0x000192d0                blst_p2_mult
                0x00019436                blst_p2_in_g2
                0x0001943e                blst_p2_affine_in_g2
                0x000194a4                blst_pairing_merge
                0x000196f0                blst_sk_to_pk_in_g2
                0x00019700                blst_sign_pk_in_g1
                0x00019708                blst_sk_to_pk2_in_g2
                0x00019768                blst_sign_pk2_in_g1
                0x00019fe0                blst_map_to_g2
                0x00019fe8                blst_encode_to_g2
                0x0001a012                blst_hash_to_g2
                0x0001a400                blst_fp12_cyclotomic_sqr
                0x0001a978                blst_fp12_inverse
                0x0001aae4                blst_final_exp
                0x0001b414                blst_miller_loop
                0x0001b6d4                blst_pairing_aggregate_pk_in_g2
                0x0001b6fe                blst_pairing_mul_n_aggregate_pk_in_g2
                0x0001b73e                blst_pairing_chk_n_aggr_pk_in_g2
                0x0001b764                blst_pairing_chk_n_mul_n_aggr_pk_in_g2
                0x0001b7fc                blst_pairing_commit
                0x0001b900                blst_pairing_finalverify
                0x0001b908                blst_core_verify_pk_in_g2
                0x0001b970                blst_aggregated_in_g1
                0x0001b984                blst_aggregated_in_g2
                0x0001ba50                blst_precompute_lines
                0x0001c0d0                blst_pairing_aggregate_pk_in_g1
                0x0001c0fa                blst_pairing_mul_n_aggregate_pk_in_g1
                0x0001c13a                blst_pairing_chk_n_aggr_pk_in_g1
                0x0001c160                blst_pairing_chk_n_mul_n_aggr_pk_in_g1
                0x0001c1a6                blst_core_verify_pk_in_g1
                0x0001c20e                blst_aggregate_in_g2
                0x0001c5ac                blst_fr_add
                0x0001c5c4                blst_fr_sub
                0x0001c5dc                blst_fr_mul_by_3
                0x0001c5ec                blst_fr_lshift
                0x0001c604                blst_fr_rshift
                0x0001c61c                blst_fr_mul
                0x0001c63c                blst_fr_sqr
                0x0001c65c                blst_fr_cneg
                0x0001c680                blst_fr_to
                0x0001c6a8                blst_fr_from
                0x0001c6c4                blst_fr_eucl_inverse
                0x0001c6e4                blst_fp_add
                0x0001c6fc                blst_fp_sub
                0x0001c714                blst_fp_mul_by_3
                0x0001c724                blst_fp_mul_by_8
                0x0001c740                blst_fp_lshift
                0x0001c758                blst_fp_mul
                0x0001c778                blst_fp_sqr
                0x0001c79c                blst_fp_cneg
                0x0001c7c0                blst_fp_to
                0x0001c7e4                blst_fp_from
                0x0001c804                blst_fp_from_uint32
                0x0001c828                blst_uint32_from_fp
                0x0001c848                blst_fp_from_uint64
                0x0001c86c                blst_uint64_from_fp
                0x0001c88c                blst_fp_from_bendian
                0x0001c8d8                blst_bendian_from_fp
                0x0001c924                blst_fp_from_lendian
                0x0001c970                blst_lendian_from_fp
                0x0001c9b8                blst_fp2_add
                0x0001c9f4                blst_fp2_sub
                0x0001ca30                blst_fp2_mul_by_3
                0x0001ca58                blst_fp2_mul_by_8
                0x0001ca88                blst_fp2_lshift
                0x0001cac4                blst_fp2_mul
                0x0001cae0                blst_fp2_sqr
                0x0001caf4                blst_fp2_cneg
                0x0001cb38                blst_p1_add
                0x0001cb40                blst_p1_add_or_double
                0x0001cb4a                blst_p1_add_affine
                0x0001cb52                blst_p1_add_or_double_affine
                0x0001cb5a                blst_p1_double
                0x0001cb62                blst_p1_affine_is_equal
                0x0001cb8a                blst_p2_add
                0x0001cb92                blst_p2_add_or_double
                0x0001cb9c                blst_p2_add_affine
                0x0001cba4                blst_p2_add_or_double_affine
                0x0001cbac                blst_p2_double
                0x0001cbb4                blst_p2_affine_is_equal
                0x0001cbdc                blst_scalar_from_uint32
                0x0001cc0c                blst_uint32_from_scalar
                0x0001cc46                blst_scalar_from_uint64
                0x0001cc9a                blst_uint64_from_scalar
                0x0001ccf4                blst_scalar_from_bendian
                0x0001cd62                blst_bendian_from_scalar
                0x0001cdcc                blst_scalar_from_lendian
                0x0001cde6                blst_lendian_from_scalar
                0x0001ce00                blst_scalar_fr_check
                0x0001ce90                blst_sk_check
                0x0001cea0                blst_fr_from_uint64
                0x0001cec8                blst_uint64_from_fr
                0x0001cee4                blst_fr_from_scalar
                0x0001cf2c                blst_scalar_from_fr
                0x0001cf84                blst_scalar_from_hexascii
                0x0001cf90                blst_fp_from_hexascii
                0x0001cfc0                blst_uniq_sizeof
                0x0001cfc6                blst_uniq_init
                0x0001cfce                blst_uniq_test
 *(SORT_BY_ALIGNMENT(.text.*))
 .text.z_impl_clock_gettime
                0x0001d170       0xa4 zephyr/lib/posix/liblib__posix.a(clock.c.obj)
                0x0001d170                z_impl_clock_gettime
 *fill*         0x0001d214        0x4 
 .text.clock_settime
                0x0001d218       0x88 zephyr/lib/posix/liblib__posix.a(clock.c.obj)
                0x0001d218                clock_settime
 .text.cmd_public_key
                0x0001d2a0       0x54 app/libapp.a(main.c.obj)
 .text.cmd_get_keys
                0x0001d2f4       0x6c app/libapp.a(main.c.obj)
 .text.cmd_keygen
                0x0001d360      0x158 app/libapp.a(main.c.obj)
 .text.cmd_signature_verification
                0x0001d4b8       0x6c app/libapp.a(main.c.obj)
 .text.k_timer_remaining_get.constprop.0
                0x0001d524       0x1c app/libapp.a(main.c.obj)
 .text.cmd_benchmark
                0x0001d540      0x2a4 app/libapp.a(main.c.obj)
 .text.public_key_to_sk
                0x0001d7e4       0x68 app/libapp.a(main.c.obj)
                0x0001d7e4                public_key_to_sk
 .text.cmd_signature_message
                0x0001d84c      0x110 app/libapp.a(main.c.obj)
 .text.dynamic_cmd_get
                0x0001d95c       0x30 app/libapp.a(dynamic_cmd.c.obj)
 .text.cmd_dynamic_show
                0x0001d98c       0x64 app/libapp.a(dynamic_cmd.c.obj)
 .text.cmd_dynamic_execute
                0x0001d9f0       0x6c app/libapp.a(dynamic_cmd.c.obj)
 .text.cmd_dynamic_remove
                0x0001da5c       0x9c app/libapp.a(dynamic_cmd.c.obj)
 .text.cmd_dynamic_add
                0x0001daf8       0xd0 app/libapp.a(dynamic_cmd.c.obj)
 .text.char_out
                0x0001dbc8       0x10 zephyr/libzephyr.a(printk.c.obj)
 .text.__printk_hook_install
                0x0001dbd8        0xc zephyr/libzephyr.a(printk.c.obj)
                0x0001dbd8                __printk_hook_install
 .text.vprintk  0x0001dbe4       0x1c zephyr/libzephyr.a(printk.c.obj)
                0x0001dbe4                vprintk
 .text.vsnprintk
                0x0001dc00       0x28 zephyr/libzephyr.a(printk.c.obj)
                0x0001dc00                vsnprintk
 .text.process_event
                0x0001dc28      0x1cc zephyr/libzephyr.a(onoff.c.obj)
 .text.timeutil_timegm64
                0x0001ddf4      0x104 zephyr/libzephyr.a(timeutil.c.obj)
                0x0001ddf4                timeutil_timegm64
 .text.cbvprintf
                0x0001def8      0x780 zephyr/libzephyr.a(cbprintf_complete.c.obj)
                0x0001def8                cbvprintf
 .text.sys_reboot
                0x0001e678       0x30 zephyr/libzephyr.a(reboot.c.obj)
                0x0001e678                sys_reboot
 .text.arch_busy_wait
                0x0001e6a8       0x24 zephyr/libzephyr.a(soc.c.obj)
                0x0001e6a8                arch_busy_wait
 .text.enable_logger
                0x0001e6cc       0x5c zephyr/libzephyr.a(log_core.c.obj)
 .text.log_process_thread_timer_expiry_fn
                0x0001e728        0xc zephyr/libzephyr.a(log_core.c.obj)
 .text.log_core_init
                0x0001e734       0x7c zephyr/libzephyr.a(log_core.c.obj)
                0x0001e734                log_core_init
 .text.get_msg  0x0001e7b0       0x28 zephyr/libzephyr.a(log_core.c.obj)
                0x0001e7b0                get_msg
 .text.z_log_dropped
                0x0001e7d8       0x18 zephyr/libzephyr.a(log_core.c.obj)
                0x0001e7d8                z_log_dropped
 .text.z_log_dropped_read_and_clear
                0x0001e7f0       0x18 zephyr/libzephyr.a(log_core.c.obj)
                0x0001e7f0                z_log_dropped_read_and_clear
 .text.dropped_notify
                0x0001e808       0x38 zephyr/libzephyr.a(log_core.c.obj)
                0x0001e808                dropped_notify
 .text.log_source_name_get
                0x0001e840       0x1c zephyr/libzephyr.a(log_core.c.obj)
                0x0001e840                log_source_name_get
 .text.z_impl_log_filter_set
                0x0001e85c       0xa4 zephyr/libzephyr.a(log_core.c.obj)
                0x0001e85c                z_impl_log_filter_set
 .text.backend_filter_set
                0x0001e900       0x30 zephyr/libzephyr.a(log_core.c.obj)
 .text.log_backend_enable
                0x0001e930       0x40 zephyr/libzephyr.a(log_core.c.obj)
                0x0001e930                log_backend_enable
 .text.log_init
                0x0001e970       0x50 zephyr/libzephyr.a(log_core.c.obj)
                0x0001e970                log_init
 .text.log_filter_get
                0x0001e9c0       0x34 zephyr/libzephyr.a(log_core.c.obj)
                0x0001e9c0                log_filter_get
 .text.z_log_strdup
                0x0001e9f4       0x64 zephyr/libzephyr.a(log_core.c.obj)
                0x0001e9f4                z_log_strdup
 .text.log_is_strdup
                0x0001ea58       0x1c zephyr/libzephyr.a(log_core.c.obj)
                0x0001ea58                log_is_strdup
 .text.z_impl_log_process
                0x0001ea74      0x188 zephyr/libzephyr.a(log_core.c.obj)
                0x0001ea74                z_impl_log_process
 .text.msg_finalize
                0x0001ebfc       0xbc zephyr/libzephyr.a(log_core.c.obj)
 .text.log_process_thread_func
                0x0001ecb8       0x48 zephyr/libzephyr.a(log_core.c.obj)
 .text.z_impl_log_panic
                0x0001ed00       0x48 zephyr/libzephyr.a(log_core.c.obj)
                0x0001ed00                z_impl_log_panic
 .text.log_free
                0x0001ed48       0x2c zephyr/libzephyr.a(log_core.c.obj)
                0x0001ed48                log_free
 .text.log_msg_pool_init
                0x0001ed74       0x14 zephyr/libzephyr.a(log_msg.c.obj)
                0x0001ed74                log_msg_pool_init
 .text.log_msg_no_space_handle
                0x0001ed88       0x30 zephyr/libzephyr.a(log_msg.c.obj)
                0x0001ed88                log_msg_no_space_handle
 .text.log_msg_chunk_alloc
                0x0001edb8       0x28 zephyr/libzephyr.a(log_msg.c.obj)
                0x0001edb8                log_msg_chunk_alloc
 .text.msg_free
                0x0001ede0       0x7c zephyr/libzephyr.a(log_msg.c.obj)
 .text.print_formatted
                0x0001ee5c       0x24 zephyr/libzephyr.a(log_output.c.obj)
 .text.prefix_print
                0x0001ee80      0x120 zephyr/libzephyr.a(log_output.c.obj)
 .text.postfix_print
                0x0001efa0       0x3c zephyr/libzephyr.a(log_output.c.obj)
 .text.hexdump_line_print
                0x0001efdc       0xdc zephyr/libzephyr.a(log_output.c.obj)
 .text.log_output_msg_process
                0x0001f0b8       0xf8 zephyr/libzephyr.a(log_output.c.obj)
                0x0001f0b8                log_output_msg_process
 .text.log_output_dropped_process
                0x0001f1b0       0x58 zephyr/libzephyr.a(log_output.c.obj)
                0x0001f1b0                log_output_dropped_process
 .text.log_output_timestamp_freq_set
                0x0001f208       0x30 zephyr/libzephyr.a(log_output.c.obj)
                0x0001f208                log_output_timestamp_freq_set
 .text.severity_lvl_get
                0x0001f238       0x24 zephyr/libzephyr.a(log_cmds.c.obj)
 .text.backend_name_get
                0x0001f25c       0x30 zephyr/libzephyr.a(log_cmds.c.obj)
 .text.cmd_log_backends_list
                0x0001f28c       0x60 zephyr/libzephyr.a(log_cmds.c.obj)
 .text.log_status
                0x0001f2ec       0xb8 zephyr/libzephyr.a(log_cmds.c.obj)
 .text.module_name_get
                0x0001f3a4       0x20 zephyr/libzephyr.a(log_cmds.c.obj)
 .text.shell_backend_cmd_execute
                0x0001f3c4       0x78 zephyr/libzephyr.a(log_cmds.c.obj)
 .text.cmd_log_backend_status
                0x0001f43c       0x10 zephyr/libzephyr.a(log_cmds.c.obj)
 .text.cmd_log_backend_halt
                0x0001f44c        0xc zephyr/libzephyr.a(log_cmds.c.obj)
 .text.cmd_log_backend_go
                0x0001f458        0xc zephyr/libzephyr.a(log_cmds.c.obj)
 .text.cmd_log_backend_enable
                0x0001f464        0xc zephyr/libzephyr.a(log_cmds.c.obj)
 .text.cmd_log_backend_disable
                0x0001f470        0xc zephyr/libzephyr.a(log_cmds.c.obj)
 .text.shell_state_precheck
                0x0001f47c       0x20 zephyr/libzephyr.a(log_cmds.c.obj)
 .text.filters_set
                0x0001f49c       0xd0 zephyr/libzephyr.a(log_cmds.c.obj)
 .text.log_enable
                0x0001f56c       0x60 zephyr/libzephyr.a(log_cmds.c.obj)
 .text.cmd_kernel_version
                0x0001f5cc       0x2c zephyr/libzephyr.a(kernel_service.c.obj)
 .text.cmd_kernel_uptime
                0x0001f5f8       0x34 zephyr/libzephyr.a(kernel_service.c.obj)
 .text.cmd_kernel_threads
                0x0001f62c       0x38 zephyr/libzephyr.a(kernel_service.c.obj)
 .text.cmd_kernel_stacks
                0x0001f664       0x5c zephyr/libzephyr.a(kernel_service.c.obj)
 .text.shell_tdata_dump
                0x0001f6c0       0xcc zephyr/libzephyr.a(kernel_service.c.obj)
 .text.cmd_kernel_cycles
                0x0001f78c       0x1c zephyr/libzephyr.a(kernel_service.c.obj)
 .text.shell_stack_dump
                0x0001f7a8       0x68 zephyr/libzephyr.a(kernel_service.c.obj)
 .text.get_device_name
                0x0001f810       0x20 zephyr/libzephyr.a(device_service.c.obj)
 .text.cmd_device_list_visitor
                0x0001f830       0x20 zephyr/libzephyr.a(device_service.c.obj)
 .text.cmd_device_list
                0x0001f850       0x98 zephyr/libzephyr.a(device_service.c.obj)
 .text.device_get_config_level
                0x0001f8e8       0x54 zephyr/libzephyr.a(device_service.c.obj)
 .text.cmd_device_levels
                0x0001f93c       0x94 zephyr/libzephyr.a(device_service.c.obj)
 .text.date_print
                0x0001f9d0       0x30 zephyr/libzephyr.a(date_service.c.obj)
 .text.get_h_m_s
                0x0001fa00       0xa8 zephyr/libzephyr.a(date_service.c.obj)
 .text.cmd_date_set
                0x0001faa8      0x124 zephyr/libzephyr.a(date_service.c.obj)
 .text.shell_internal_help_print
                0x0001fbcc       0x20 zephyr/libzephyr.a(shell.c.obj)
 .text.state_set.part.0
                0x0001fbec       0x44 zephyr/libzephyr.a(shell.c.obj)
 .text.history_handle
                0x0001fc30       0xa0 zephyr/libzephyr.a(shell.c.obj)
 .text.execute  0x0001fcd0      0x2c4 zephyr/libzephyr.a(shell.c.obj)
 .text.shell_process
                0x0001ff94      0x668 zephyr/libzephyr.a(shell.c.obj)
                0x0001ff94                shell_process
 .text.shell_init
                0x000205fc      0x104 zephyr/libzephyr.a(shell.c.obj)
                0x000205fc                shell_init
 .text.shell_start
                0x00020700       0x50 zephyr/libzephyr.a(shell.c.obj)
                0x00020700                shell_start
 .text.shell_thread
                0x00020750       0xc8 zephyr/libzephyr.a(shell.c.obj)
                0x00020750                shell_thread
 .text.cmd_help
                0x00020818       0x4c zephyr/libzephyr.a(shell.c.obj)
 .text.z_shell_fprintf_fmt
                0x00020864       0x28 zephyr/libzephyr.a(shell_fprintf.c.obj)
                0x00020864                z_shell_fprintf_fmt
 .text.z_shell_cmd_get
                0x0002088c       0x4c zephyr/libzephyr.a(shell_utils.c.obj)
                0x0002088c                z_shell_cmd_get
 .text.z_clear_eos.isra.0
                0x000208d8       0x10 zephyr/libzephyr.a(shell_ops.c.obj)
 .text.z_shell_op_cursor_vert_move
                0x000208e8       0x20 zephyr/libzephyr.a(shell_ops.c.obj)
                0x000208e8                z_shell_op_cursor_vert_move
 .text.z_shell_op_cursor_horiz_move
                0x00020908       0x20 zephyr/libzephyr.a(shell_ops.c.obj)
                0x00020908                z_shell_op_cursor_horiz_move
 .text.z_shell_op_cond_next_line
                0x00020928       0x28 zephyr/libzephyr.a(shell_ops.c.obj)
                0x00020928                z_shell_op_cond_next_line
 .text.z_shell_op_cursor_position_synchronize
                0x00020950       0x54 zephyr/libzephyr.a(shell_ops.c.obj)
                0x00020950                z_shell_op_cursor_position_synchronize
 .text.z_shell_print_cmd
                0x000209a4       0x10 zephyr/libzephyr.a(shell_ops.c.obj)
                0x000209a4                z_shell_print_cmd
 .text.z_shell_vt100_color_set
                0x000209b4       0x48 zephyr/libzephyr.a(shell_ops.c.obj)
                0x000209b4                z_shell_vt100_color_set
 .text.z_shell_vt100_colors_restore
                0x000209fc       0x4c zephyr/libzephyr.a(shell_ops.c.obj)
                0x000209fc                z_shell_vt100_colors_restore
 .text.z_shell_op_word_remove
                0x00020a48       0xa8 zephyr/libzephyr.a(shell_ops.c.obj)
                0x00020a48                z_shell_op_word_remove
 .text.reprint_from_cursor
                0x00020af0       0x80 zephyr/libzephyr.a(shell_ops.c.obj)
 .text.z_shell_op_char_insert
                0x00020b70       0x70 zephyr/libzephyr.a(shell_ops.c.obj)
                0x00020b70                z_shell_op_char_insert
 .text.z_shell_print_prompt_and_cmd
                0x00020be0       0x30 zephyr/libzephyr.a(shell_ops.c.obj)
                0x00020be0                z_shell_print_prompt_and_cmd
 .text.enable_shell_uart
                0x00020c10       0x30 zephyr/libzephyr.a(shell_uart.c.obj)
 .text.uart_callback
                0x00020c40      0x10c zephyr/libzephyr.a(shell_uart.c.obj)
 .text.init     0x00020d4c       0x58 zephyr/libzephyr.a(shell_uart.c.obj)
 .text.formatted_text_print.constprop.0
                0x00020da4       0xf4 zephyr/libzephyr.a(shell_help.c.obj)
 .text.z_shell_help_subcmd_print
                0x00020e98       0xbc zephyr/libzephyr.a(shell_help.c.obj)
                0x00020e98                z_shell_help_subcmd_print
 .text.z_shell_help_cmd_print
                0x00020f54       0x48 zephyr/libzephyr.a(shell_help.c.obj)
                0x00020f54                z_shell_help_cmd_print
 .text.z_shell_help_request
                0x00020f9c       0x28 zephyr/libzephyr.a(shell_help.c.obj)
                0x00020f9c                z_shell_help_request
 .text.cmd_clear
                0x00020fc4       0x2c zephyr/libzephyr.a(shell_cmds.c.obj)
 .text.cmd_resize_default
                0x00020ff0       0x24 zephyr/libzephyr.a(shell_cmds.c.obj)
 .text.cmd_shell_stats_show
                0x00021014       0x18 zephyr/libzephyr.a(shell_cmds.c.obj)
 .text.cmd_history
                0x0002102c       0x48 zephyr/libzephyr.a(shell_cmds.c.obj)
 .text.cmd_echo
                0x00021074       0x54 zephyr/libzephyr.a(shell_cmds.c.obj)
 .text.cmd_resize
                0x000210c8      0x17c zephyr/libzephyr.a(shell_cmds.c.obj)
 .text.z_shell_wildcard_process
                0x00021244       0xe8 zephyr/libzephyr.a(shell_wildcard.c.obj)
                0x00021244                z_shell_wildcard_process
 .text.pm_state_notify
                0x0002132c       0x4c zephyr/libzephyr.a(power.c.obj)
 .text.pm_system_resume
                0x00021378       0x2c zephyr/libzephyr.a(power.c.obj)
                0x00021378                pm_system_resume
 .text.pm_system_suspend
                0x000213a4       0x78 zephyr/libzephyr.a(power.c.obj)
                0x000213a4                pm_system_suspend
 .text.uart_console_init
                0x0002141c       0x2c zephyr/libzephyr.a(uart_console.c.obj)
 .text.console_out
                0x00021448       0x28 zephyr/libzephyr.a(uart_console.c.obj)
 .text.onoff_stop
                0x00021470       0x48 zephyr/libzephyr.a(clock_control_nrf.c.obj)
 .text.onoff_start
                0x000214b8       0x54 zephyr/libzephyr.a(clock_control_nrf.c.obj)
 .text.clk_init
                0x0002150c       0x68 zephyr/libzephyr.a(clock_control_nrf.c.obj)
 .text.clkstarted_handle.constprop.0
                0x00021574       0x34 zephyr/libzephyr.a(clock_control_nrf.c.obj)
 .text.clock_event_handler
                0x000215a8       0x30 zephyr/libzephyr.a(clock_control_nrf.c.obj)
 .text.hfclk_start
                0x000215d8       0x30 zephyr/libzephyr.a(clock_control_nrf.c.obj)
 .text.generic_hfclk_start
                0x00021608       0x64 zephyr/libzephyr.a(clock_control_nrf.c.obj)
 .text.hfclk_stop
                0x0002166c       0x30 zephyr/libzephyr.a(clock_control_nrf.c.obj)
 .text.generic_hfclk_stop
                0x0002169c       0x20 zephyr/libzephyr.a(clock_control_nrf.c.obj)
 .text.cmd_status
                0x000216bc       0xfc zephyr/libzephyr.a(clock_control_nrf.c.obj)
 .text.api_blocking_start
                0x000217b8       0x3c zephyr/libzephyr.a(clock_control_nrf.c.obj)
 .text.z_nrf_clock_control_lf_on
                0x000217f4      0x104 zephyr/libzephyr.a(clock_control_nrf.c.obj)
                0x000217f4                z_nrf_clock_control_lf_on
 .text.sys_clock_timeout_handler
                0x000218f8       0x18 zephyr/libzephyr.a(nrf_rtc_timer.c.obj)
 .text.set_absolute_alarm
                0x00021910       0x98 zephyr/libzephyr.a(nrf_rtc_timer.c.obj)
 .text.rtc_nrf_isr
                0x000219a8       0x50 zephyr/libzephyr.a(nrf_rtc_timer.c.obj)
                0x000219a8                rtc_nrf_isr
 .text.sys_clock_driver_init
                0x000219f8       0x54 zephyr/libzephyr.a(nrf_rtc_timer.c.obj)
                0x000219f8                sys_clock_driver_init
 .text.sys_clock_set_timeout
                0x00021a4c       0x64 zephyr/libzephyr.a(nrf_rtc_timer.c.obj)
                0x00021a4c                sys_clock_set_timeout
 .text.sys_clock_elapsed
                0x00021ab0       0x1c zephyr/libzephyr.a(nrf_rtc_timer.c.obj)
                0x00021ab0                sys_clock_elapsed
 .text.sys_clock_cycle_get_32
                0x00021acc       0x34 zephyr/libzephyr.a(nrf_rtc_timer.c.obj)
                0x00021acc                sys_clock_cycle_get_32
 .text.before_nse
                0x00021b00       0x14 zephyr/libzephyr.a(secure_services_ns.c.obj)
                0x00021b00                before_nse
 .text.after_nse
                0x00021b14       0x14 zephyr/libzephyr.a(secure_services_ns.c.obj)
                0x00021b14                after_nse
 .text.arch_swap
                0x00021b28       0x38 zephyr/arch/arch/arm/core/aarch32/libarch__arm__core__aarch32.a(swap.c.obj)
                0x00021b28                arch_swap
 .text.arch_irq_enable
                0x00021b60       0x20 zephyr/arch/arch/arm/core/aarch32/libarch__arm__core__aarch32.a(irq_manage.c.obj)
                0x00021b60                arch_irq_enable
 .text.arch_irq_is_enabled
                0x00021b80       0x1c zephyr/arch/arch/arm/core/aarch32/libarch__arm__core__aarch32.a(irq_manage.c.obj)
                0x00021b80                arch_irq_is_enabled
 .text.z_arm_irq_priority_set
                0x00021b9c       0x2c zephyr/arch/arch/arm/core/aarch32/libarch__arm__core__aarch32.a(irq_manage.c.obj)
                0x00021b9c                z_arm_irq_priority_set
 .text.arch_new_thread
                0x00021bc8       0x38 zephyr/arch/arch/arm/core/aarch32/libarch__arm__core__aarch32.a(thread.c.obj)
                0x00021bc8                arch_new_thread
 .text.arch_switch_to_main_thread
                0x00021c00       0x2c zephyr/arch/arch/arm/core/aarch32/libarch__arm__core__aarch32.a(thread.c.obj)
                0x00021c00                arch_switch_to_main_thread
 .text.z_arm_fatal_error
                0x00021c2c       0x88 zephyr/arch/arch/arm/core/aarch32/libarch__arm__core__aarch32.a(fatal.c.obj)
                0x00021c2c                z_arm_fatal_error
 .text.z_arm_prep_c
                0x00021cb4       0x44 zephyr/arch/arch/arm/core/aarch32/libarch__arm__core__aarch32.a(prep_c.c.obj)
                0x00021cb4                z_arm_prep_c
 .text.z_arm_pendsv
                0x00021cf8       0x5c zephyr/arch/arch/arm/core/aarch32/libarch__arm__core__aarch32.a(swap_helper.S.obj)
                0x00021cf8                z_arm_pendsv
 .text.z_arm_svc
                0x00021d54       0x20 zephyr/arch/arch/arm/core/aarch32/libarch__arm__core__aarch32.a(swap_helper.S.obj)
                0x00021d54                z_arm_svc
 .text.z_arm_cpu_idle_init
                0x00021d74        0xc zephyr/arch/arch/arm/core/aarch32/libarch__arm__core__aarch32.a(cpu_idle.S.obj)
                0x00021d74                z_arm_cpu_idle_init
 .text.arch_cpu_idle
                0x00021d80       0x1c zephyr/arch/arch/arm/core/aarch32/libarch__arm__core__aarch32.a(cpu_idle.S.obj)
                0x00021d80                arch_cpu_idle
 .text.arch_cpu_atomic_idle
                0x00021d9c       0x14 zephyr/arch/arch/arm/core/aarch32/libarch__arm__core__aarch32.a(cpu_idle.S.obj)
                0x00021d9c                arch_cpu_atomic_idle
 .text.z_SysNmiOnReset
                0x00021db0        0x8 zephyr/arch/arch/arm/core/aarch32/libarch__arm__core__aarch32.a(nmi_on_reset.S.obj)
                0x00021db0                z_SysNmiOnReset
 .text._isr_wrapper
                0x00021db8       0x40 zephyr/arch/arch/arm/core/aarch32/libarch__arm__core__aarch32.a(isr_wrapper.S.obj)
                0x00021db8                _isr_wrapper
 .text._reset_section
                0x00021df8       0x3c zephyr/arch/arch/arm/core/aarch32/cortex_m/libarch__arm__core__aarch32__cortex_m.a(reset.S.obj)
                0x00021df8                __start
                0x00021df8                z_arm_reset
 .text.__fault  0x00021e34       0x14 zephyr/arch/arch/arm/core/aarch32/cortex_m/libarch__arm__core__aarch32__cortex_m.a(fault_s.S.obj)
                0x00021e34                z_arm_usage_fault
                0x00021e34                z_arm_mpu_fault
                0x00021e34                z_arm_exc_spurious
                0x00021e34                z_arm_debug_monitor
                0x00021e34                z_arm_hard_fault
                0x00021e34                z_arm_bus_fault
 .text._HandlerModeExit
                0x00021e48       0x1c zephyr/arch/arch/arm/core/aarch32/cortex_m/libarch__arm__core__aarch32__cortex_m.a(exc_exit.S.obj)
                0x00021e48                z_arm_int_exit
                0x00021e48                z_arm_exc_exit
 .text.usage_fault.isra.0
                0x00021e64      0x140 zephyr/arch/arch/arm/core/aarch32/cortex_m/libarch__arm__core__aarch32__cortex_m.a(fault.c.obj)
 .text.mem_manage_fault.isra.0
                0x00021fa4      0x130 zephyr/arch/arch/arm/core/aarch32/cortex_m/libarch__arm__core__aarch32__cortex_m.a(fault.c.obj)
 .text.bus_fault.isra.0
                0x000220d4      0x148 zephyr/arch/arch/arm/core/aarch32/cortex_m/libarch__arm__core__aarch32__cortex_m.a(fault.c.obj)
 .text.z_arm_fault
                0x0002221c      0x1e8 zephyr/arch/arch/arm/core/aarch32/cortex_m/libarch__arm__core__aarch32__cortex_m.a(fault.c.obj)
                0x0002221c                z_arm_fault
 .text.z_arm_fault_init
                0x00022404       0x18 zephyr/arch/arch/arm/core/aarch32/cortex_m/libarch__arm__core__aarch32__cortex_m.a(fault.c.obj)
                0x00022404                z_arm_fault_init
 .text.sys_arch_reboot
                0x0002241c       0x24 zephyr/arch/arch/arm/core/aarch32/cortex_m/libarch__arm__core__aarch32__cortex_m.a(scb.c.obj)
                0x0002241c                sys_arch_reboot
 .text.z_arm_interrupt_init
                0x00022440       0x18 zephyr/arch/arch/arm/core/aarch32/cortex_m/libarch__arm__core__aarch32__cortex_m.a(irq_init.c.obj)
                0x00022440                z_arm_interrupt_init
 .text.z_impl_k_thread_abort
                0x00022458       0x24 zephyr/arch/arch/arm/core/aarch32/cortex_m/libarch__arm__core__aarch32__cortex_m.a(thread_abort.c.obj)
                0x00022458                z_impl_k_thread_abort
 .text.z_arm_configure_static_mpu_regions
                0x0002247c       0x38 zephyr/arch/arch/arm/core/aarch32/mpu/libarch__arm__core__aarch32__mpu.a(arm_core_mpu.c.obj)
                0x0002247c                z_arm_configure_static_mpu_regions
 .text.region_init
                0x000224b4       0x30 zephyr/arch/arch/arm/core/aarch32/mpu/libarch__arm__core__aarch32__mpu.a(arm_mpu.c.obj)
 .text.region_allocate_and_init
                0x000224e4       0x3c zephyr/arch/arch/arm/core/aarch32/mpu/libarch__arm__core__aarch32__mpu.a(arm_mpu.c.obj)
 .text.mpu_configure_regions_and_partition.constprop.0
                0x00022520      0x184 zephyr/arch/arch/arm/core/aarch32/mpu/libarch__arm__core__aarch32__mpu.a(arm_mpu.c.obj)
 .text.arm_core_mpu_enable
                0x000226a4       0x14 zephyr/arch/arch/arm/core/aarch32/mpu/libarch__arm__core__aarch32__mpu.a(arm_mpu.c.obj)
                0x000226a4                arm_core_mpu_enable
 .text.arm_core_mpu_disable
                0x000226b8       0x10 zephyr/arch/arch/arm/core/aarch32/mpu/libarch__arm__core__aarch32__mpu.a(arm_mpu.c.obj)
                0x000226b8                arm_core_mpu_disable
 .text.arm_core_mpu_configure_static_mpu_regions
                0x000226c8       0x14 zephyr/arch/arch/arm/core/aarch32/mpu/libarch__arm__core__aarch32__mpu.a(arm_mpu.c.obj)
                0x000226c8                arm_core_mpu_configure_static_mpu_regions
 .text.arm_core_mpu_mark_areas_for_dynamic_regions
                0x000226dc       0xac zephyr/arch/arch/arm/core/aarch32/mpu/libarch__arm__core__aarch32__mpu.a(arm_mpu.c.obj)
                0x000226dc                arm_core_mpu_mark_areas_for_dynamic_regions
 .text.z_arm_mpu_init
                0x00022788       0x4c zephyr/arch/arch/arm/core/aarch32/mpu/libarch__arm__core__aarch32__mpu.a(arm_mpu.c.obj)
                0x00022788                z_arm_mpu_init
 .text.__stdout_hook_install
                0x000227d4        0xc zephyr/lib/libc/minimal/liblib__libc__minimal.a(stdout_console.c.obj)
                0x000227d4                __stdout_hook_install
 .text.z_impl_zephyr_fputc
                0x000227e0       0x18 zephyr/lib/libc/minimal/liblib__libc__minimal.a(stdout_console.c.obj)
                0x000227e0                z_impl_zephyr_fputc
 .text.snprintf
                0x000227f8       0x30 zephyr/lib/libc/minimal/liblib__libc__minimal.a(sprintf.c.obj)
                0x000227f8                snprintf
 .text.sprintf  0x00022828       0x30 zephyr/lib/libc/minimal/liblib__libc__minimal.a(sprintf.c.obj)
                0x00022828                sprintf
 .text.printf   0x00022858       0x24 zephyr/lib/libc/minimal/liblib__libc__minimal.a(fprintf.c.obj)
                0x00022858                printf
 .text.gmtime_r
                0x0002287c      0x1c4 zephyr/lib/libc/minimal/liblib__libc__minimal.a(gmtime.c.obj)
                0x0002287c                gmtime_r
 .text.gpio_nrfx_init
                0x00022a40       0x30 zephyr/drivers/gpio/libdrivers__gpio.a(gpio_nrfx.c.obj)
 .text.gpio_nrfx_config
                0x00022a70       0xcc zephyr/drivers/gpio/libdrivers__gpio.a(gpio_nrfx.c.obj)
 .text.nrf_gpio_cfg_sense_set
                0x00022b3c       0x30 zephyr/drivers/gpio/libdrivers__gpio.a(gpio_nrfx.c.obj)
 .text.check_level_trigger_pins
                0x00022b6c       0x94 zephyr/drivers/gpio/libdrivers__gpio.a(gpio_nrfx.c.obj)
 .text.gpio_nrfx_pin_interrupt_configure
                0x00022c00      0x1a8 zephyr/drivers/gpio/libdrivers__gpio.a(gpio_nrfx.c.obj)
 .text.gpiote_event_handler
                0x00022da8       0xc0 zephyr/drivers/gpio/libdrivers__gpio.a(gpio_nrfx.c.obj)
 .text.uarte_nrfx_configure
                0x00022e68      0x184 zephyr/drivers/serial/libdrivers__serial.a(uart_nrfx_uarte.c.obj)
 .text.uarte_nrfx_poll_out
                0x00022fec       0x94 zephyr/drivers/serial/libdrivers__serial.a(uart_nrfx_uarte.c.obj)
 .text.nrf_gpio_cfg_input.constprop.0
                0x00023080       0x30 zephyr/drivers/serial/libdrivers__serial.a(uart_nrfx_uarte.c.obj)
 .text.nrf_gpio_pin_set
                0x000230b0       0x24 zephyr/drivers/serial/libdrivers__serial.a(uart_nrfx_uarte.c.obj)
 .text.nrf_gpio_cfg_output
                0x000230d4       0x30 zephyr/drivers/serial/libdrivers__serial.a(uart_nrfx_uarte.c.obj)
 .text.uarte_0_init
                0x00023104      0x124 zephyr/drivers/serial/libdrivers__serial.a(uart_nrfx_uarte.c.obj)
 .text.k_sys_fatal_error_handler
                0x00023228       0x34 modules/nrf/lib/fatal_error/lib..__nrf__lib__fatal_error.a(fatal_error.c.obj)
                0x00023228                k_sys_fatal_error_handler
 .text.check_ext_api_requests
                0x0002325c       0x9c modules/nrf/subsys/fw_info/lib..__nrf__subsys__fw_info.a(fw_info.c.obj)
 .text.SystemCoreClockUpdate
                0x000232f8       0x20 modules/hal_nordic/nrfx/libmodules__hal_nordic__nrfx.a(system_nrf5340_application.c.obj)
                0x000232f8                SystemCoreClockUpdate
 .text.nrfx_clock_init
                0x00023318       0x20 modules/hal_nordic/nrfx/libmodules__hal_nordic__nrfx.a(nrfx_clock.c.obj)
                0x00023318                nrfx_clock_init
 .text.nrfx_clock_enable
                0x00023338       0x24 modules/hal_nordic/nrfx/libmodules__hal_nordic__nrfx.a(nrfx_clock.c.obj)
                0x00023338                nrfx_clock_enable
 .text.nrfx_clock_start
                0x0002335c       0xa0 modules/hal_nordic/nrfx/libmodules__hal_nordic__nrfx.a(nrfx_clock.c.obj)
                0x0002335c                nrfx_clock_start
 .text.nrfx_clock_stop
                0x000233fc       0xd8 modules/hal_nordic/nrfx/libmodules__hal_nordic__nrfx.a(nrfx_clock.c.obj)
                0x000233fc                nrfx_clock_stop
 .text.nrfx_power_clock_irq_handler
                0x000234d4       0xac modules/hal_nordic/nrfx/libmodules__hal_nordic__nrfx.a(nrfx_clock.c.obj)
                0x000234d4                nrfx_power_clock_irq_handler
 .text.nrfx_dppi_channel_alloc
                0x00023580       0x50 modules/hal_nordic/nrfx/libmodules__hal_nordic__nrfx.a(nrfx_dppi.c.obj)
                0x00023580                nrfx_dppi_channel_alloc
 .text.nrfx_gpiote_channel_free
                0x000235d0       0x44 modules/hal_nordic/nrfx/libmodules__hal_nordic__nrfx.a(nrfx_gpiote.c.obj)
                0x000235d0                nrfx_gpiote_channel_free
 .text.nrfx_gpiote_channel_alloc
                0x00023614       0x70 modules/hal_nordic/nrfx/libmodules__hal_nordic__nrfx.a(nrfx_gpiote.c.obj)
                0x00023614                nrfx_gpiote_channel_alloc
 .text.z_sys_init_run_level
                0x00023684       0x40 zephyr/kernel/libkernel.a(device.c.obj)
                0x00023684                z_sys_init_run_level
 .text.z_device_get_all_static
                0x000236c4       0x1c zephyr/kernel/libkernel.a(device.c.obj)
                0x000236c4                z_device_get_all_static
 .text.z_impl_device_get_binding
                0x000236e0       0x58 zephyr/kernel/libkernel.a(device.c.obj)
                0x000236e0                z_impl_device_get_binding
 .text.device_required_foreach
                0x00023738       0x74 zephyr/kernel/libkernel.a(device.c.obj)
                0x00023738                device_required_foreach
 .text.z_impl_z_errno
                0x000237ac        0xc zephyr/kernel/libkernel.a(errno.c.obj)
                0x000237ac                z_impl_z_errno
 .text.z_fatal_error
                0x000237b8       0xf0 zephyr/kernel/libkernel.a(fatal.c.obj)
                0x000237b8                z_fatal_error
 .text.z_bss_zero
                0x000238a8       0x14 zephyr/kernel/libkernel.a(init.c.obj)
                0x000238a8                z_bss_zero
 .text.bg_thread_main
                0x000238bc       0x34 zephyr/kernel/libkernel.a(init.c.obj)
 .text.z_cstart
                0x000238f0      0x128 zephyr/kernel/libkernel.a(init.c.obj)
                0x000238f0                z_cstart
 .text.init_mem_slab_module
                0x00023a18       0x44 zephyr/kernel/libkernel.a(mem_slab.c.obj)
 .text.k_mem_slab_alloc
                0x00023a5c       0x60 zephyr/kernel/libkernel.a(mem_slab.c.obj)
                0x00023a5c                k_mem_slab_alloc
 .text.k_thread_foreach
                0x00023abc       0x34 zephyr/kernel/libkernel.a(thread.c.obj)
                0x00023abc                k_thread_foreach
 .text.z_thread_monitor_exit
                0x00023af0       0x3c zephyr/kernel/libkernel.a(thread.c.obj)
                0x00023af0                z_thread_monitor_exit
 .text.z_impl_k_thread_name_set
                0x00023b2c       0x20 zephyr/kernel/libkernel.a(thread.c.obj)
                0x00023b2c                z_impl_k_thread_name_set
 .text.k_thread_state_str
                0x00023b4c       0x74 zephyr/kernel/libkernel.a(thread.c.obj)
                0x00023b4c                k_thread_state_str
 .text.z_setup_new_thread
                0x00023bc0       0xc0 zephyr/kernel/libkernel.a(thread.c.obj)
                0x00023bc0                z_setup_new_thread
 .text.z_impl_k_thread_create
                0x00023c80       0x58 zephyr/kernel/libkernel.a(thread.c.obj)
                0x00023c80                z_impl_k_thread_create
 .text.z_init_static_threads
                0x00023cd8       0xbc zephyr/kernel/libkernel.a(thread.c.obj)
                0x00023cd8                z_init_static_threads
 .text.sys_kernel_version_get
                0x00023d94        0x8 zephyr/kernel/libkernel.a(version.c.obj)
                0x00023d94                sys_kernel_version_get
 .text.idle     0x00023d9c       0x2c zephyr/kernel/libkernel.a(idle.c.obj)
                0x00023d9c                idle
 .text.z_impl_k_msgq_put
                0x00023dc8       0xb4 zephyr/kernel/libkernel.a(msg_q.c.obj)
                0x00023dc8                z_impl_k_msgq_put
 .text.z_impl_k_msgq_get
                0x00023e7c       0xc0 zephyr/kernel/libkernel.a(msg_q.c.obj)
                0x00023e7c                z_impl_k_msgq_get
 .text.z_impl_k_mutex_lock
                0x00023f3c       0xf0 zephyr/kernel/libkernel.a(mutex.c.obj)
                0x00023f3c                z_impl_k_mutex_lock
 .text.z_impl_k_mutex_unlock
                0x0002402c       0x90 zephyr/kernel/libkernel.a(mutex.c.obj)
                0x0002402c                z_impl_k_mutex_unlock
 .text.z_impl_k_sem_give
                0x000240bc       0x4c zephyr/kernel/libkernel.a(sem.c.obj)
                0x000240bc                z_impl_k_sem_give
 .text.z_impl_k_sem_take
                0x00024108       0x54 zephyr/kernel/libkernel.a(sem.c.obj)
                0x00024108                z_impl_k_sem_take
 .text.z_reset_time_slice
                0x0002415c       0x2c zephyr/kernel/libkernel.a(sched.c.obj)
                0x0002415c                z_reset_time_slice
 .text.k_sched_time_slice_set
                0x00024188       0x64 zephyr/kernel/libkernel.a(sched.c.obj)
                0x00024188                k_sched_time_slice_set
 .text.z_reschedule
                0x000241ec       0x24 zephyr/kernel/libkernel.a(sched.c.obj)
                0x000241ec                z_reschedule
 .text.k_sched_lock
                0x00024210       0x28 zephyr/kernel/libkernel.a(sched.c.obj)
                0x00024210                k_sched_lock
 .text.update_cache
                0x00024238       0x40 zephyr/kernel/libkernel.a(sched.c.obj)
 .text.unready_thread
                0x00024278       0x30 zephyr/kernel/libkernel.a(sched.c.obj)
 .text.pend     0x000242a8       0x4c zephyr/kernel/libkernel.a(sched.c.obj)
 .text.z_pend_curr
                0x000242f4       0x28 zephyr/kernel/libkernel.a(sched.c.obj)
                0x000242f4                z_pend_curr
 .text.z_tick_sleep.part.0
                0x0002431c       0x74 zephyr/kernel/libkernel.a(sched.c.obj)
 .text.z_impl_k_thread_suspend
                0x00024390       0x64 zephyr/kernel/libkernel.a(sched.c.obj)
                0x00024390                z_impl_k_thread_suspend
 .text.k_sched_unlock
                0x000243f4       0x38 zephyr/kernel/libkernel.a(sched.c.obj)
                0x000243f4                k_sched_unlock
 .text.move_thread_to_end_of_prio_q
                0x0002442c       0x7c zephyr/kernel/libkernel.a(sched.c.obj)
 .text.z_time_slice
                0x000244a8       0x84 zephyr/kernel/libkernel.a(sched.c.obj)
                0x000244a8                z_time_slice
 .text.ready_thread
                0x0002452c       0x70 zephyr/kernel/libkernel.a(sched.c.obj)
 .text.z_sched_start
                0x0002459c       0x3c zephyr/kernel/libkernel.a(sched.c.obj)
                0x0002459c                z_sched_start
 .text.z_set_prio
                0x000245d8       0x98 zephyr/kernel/libkernel.a(sched.c.obj)
                0x000245d8                z_set_prio
 .text.z_sched_init
                0x00024670       0x18 zephyr/kernel/libkernel.a(sched.c.obj)
                0x00024670                z_sched_init
 .text.z_impl_k_yield
                0x00024688       0xa4 zephyr/kernel/libkernel.a(sched.c.obj)
                0x00024688                z_impl_k_yield
 .text.z_impl_k_sleep
                0x0002472c       0x44 zephyr/kernel/libkernel.a(sched.c.obj)
                0x0002472c                z_impl_k_sleep
 .text.z_impl_k_current_get
                0x00024770        0xc zephyr/kernel/libkernel.a(sched.c.obj)
                0x00024770                z_impl_k_current_get
 .text.z_impl_k_is_preempt_thread
                0x0002477c       0x20 zephyr/kernel/libkernel.a(sched.c.obj)
                0x0002477c                z_impl_k_is_preempt_thread
 .text.z_thread_abort
                0x0002479c       0xac zephyr/kernel/libkernel.a(sched.c.obj)
                0x0002479c                z_thread_abort
 .text.z_sched_wait
                0x00024848       0x24 zephyr/kernel/libkernel.a(sched.c.obj)
                0x00024848                z_sched_wait
 .text.z_data_copy
                0x0002486c       0x34 zephyr/kernel/libkernel.a(xip.c.obj)
                0x0002486c                z_data_copy
 .text.elapsed  0x000248a0       0x14 zephyr/kernel/libkernel.a(timeout.c.obj)
 .text.remove_timeout
                0x000248b4       0x34 zephyr/kernel/libkernel.a(timeout.c.obj)
 .text.next_timeout
                0x000248e8       0x58 zephyr/kernel/libkernel.a(timeout.c.obj)
 .text.timeout_rem
                0x00024940       0x4c zephyr/kernel/libkernel.a(timeout.c.obj)
 .text.z_add_timeout
                0x0002498c      0x110 zephyr/kernel/libkernel.a(timeout.c.obj)
                0x0002498c                z_add_timeout
 .text.sys_clock_announce
                0x00024a9c       0xd4 zephyr/kernel/libkernel.a(timeout.c.obj)
                0x00024a9c                sys_clock_announce
 .text.sys_clock_tick_get
                0x00024b70       0x34 zephyr/kernel/libkernel.a(timeout.c.obj)
                0x00024b70                sys_clock_tick_get
 .text.z_timer_expiration_handler
                0x00024ba4       0x50 zephyr/kernel/libkernel.a(timer.c.obj)
                0x00024ba4                z_timer_expiration_handler
 .text.z_impl_k_timer_start
                0x00024bf4       0xc0 zephyr/kernel/libkernel.a(timer.c.obj)
                0x00024bf4                z_impl_k_timer_start
 .text.z_impl_k_poll
                0x00024cb4       0xb8 zephyr/kernel/libkernel.a(poll.c.obj)
                0x00024cb4                z_impl_k_poll
 .text.z_impl_k_poll_signal_raise
                0x00024d6c       0x50 zephyr/kernel/libkernel.a(poll.c.obj)
                0x00024d6c                z_impl_k_poll_signal_raise
 .text.statics_init
                0x00024dbc       0x24 zephyr/kernel/libkernel.a(kheap.c.obj)
 .text.k_sys_work_q_init
                0x00024de0       0x34 zephyr/kernel/libkernel.a(system_work_q.c.obj)
 .text.work_queue_main
                0x00024e14      0x13c zephyr/kernel/libkernel.a(work.c.obj)
 .text.submit_to_queue_locked
                0x00024f50       0xa0 zephyr/kernel/libkernel.a(work.c.obj)
 .text.k_work_queue_start
                0x00024ff0       0x70 zephyr/kernel/libkernel.a(work.c.obj)
                0x00024ff0                k_work_queue_start
 .text.main     0x00025060        0x2 app/libapp.a(main.c.obj)
                0x00025060                main
 .text.string_cmp
                0x00025062        0x4 app/libapp.a(dynamic_cmd.c.obj)
 .text.swapfunc
                0x00025066       0x16 app/libapp.a(qsort.c.obj)
 .text.med3.isra.0
                0x0002507c       0x40 app/libapp.a(qsort.c.obj)
 .text.qsort    0x000250bc      0x1e8 app/libapp.a(qsort.c.obj)
                0x000250bc                qsort
 .text.char2hex
                0x000252a4       0x30 zephyr/libzephyr.a(hex.c.obj)
                0x000252a4                char2hex
 .text.hex2char
                0x000252d4       0x1a zephyr/libzephyr.a(hex.c.obj)
                0x000252d4                hex2char
 .text.bin2hex  0x000252ee       0x56 zephyr/libzephyr.a(hex.c.obj)
                0x000252ee                bin2hex
 .text.hex2bin  0x00025344       0x74 zephyr/libzephyr.a(hex.c.obj)
                0x00025344                hex2bin
 .text.sys_notify_validate
                0x000253b8       0x28 zephyr/libzephyr.a(notify.c.obj)
                0x000253b8                sys_notify_validate
 .text.sys_notify_finalize
                0x000253e0       0x32 zephyr/libzephyr.a(notify.c.obj)
                0x000253e0                sys_notify_finalize
 .text.arch_printk_char_out
                0x00025412        0x4 zephyr/libzephyr.a(printk.c.obj)
                0x00025412                arch_printk_char_out
 .text.str_out  0x00025416       0x26 zephyr/libzephyr.a(printk.c.obj)
 .text.printk   0x0002543c       0x1a zephyr/libzephyr.a(printk.c.obj)
                0x0002543c                printk
 .text.snprintk
                0x00025456       0x1a zephyr/libzephyr.a(printk.c.obj)
                0x00025456                snprintk
 .text.process_recheck
                0x00025470       0x38 zephyr/libzephyr.a(onoff.c.obj)
 .text.notify_one
                0x000254a8       0x2c zephyr/libzephyr.a(onoff.c.obj)
 .text.transition_complete
                0x000254d4       0x1c zephyr/libzephyr.a(onoff.c.obj)
 .text.validate_args
                0x000254f0       0x1e zephyr/libzephyr.a(onoff.c.obj)
 .text.onoff_manager_init
                0x0002550e       0x26 zephyr/libzephyr.a(onoff.c.obj)
                0x0002550e                onoff_manager_init
 .text.onoff_request
                0x00025534       0x92 zephyr/libzephyr.a(onoff.c.obj)
                0x00025534                onoff_request
 .text.z_thread_entry
                0x000255c6       0x14 zephyr/libzephyr.a(thread_entry.c.obj)
                0x000255c6                z_thread_entry
 .text.timeutil_timegm
                0x000255da       0x18 zephyr/libzephyr.a(timeutil.c.obj)
                0x000255da                timeutil_timegm
 .text.chunk_field
                0x000255f2       0x16 zephyr/libzephyr.a(heap.c.obj)
 .text.chunk_set
                0x00025608       0x16 zephyr/libzephyr.a(heap.c.obj)
 .text.chunk_size
                0x0002561e        0xc zephyr/libzephyr.a(heap.c.obj)
 .text.set_chunk_used
                0x0002562a       0x30 zephyr/libzephyr.a(heap.c.obj)
 .text.set_chunk_size
                0x0002565a        0x8 zephyr/libzephyr.a(heap.c.obj)
 .text.bucket_idx
                0x00025662       0x1a zephyr/libzephyr.a(heap.c.obj)
 .text.free_list_add
                0x0002567c       0x8a zephyr/libzephyr.a(heap.c.obj)
 .text.sys_heap_init
                0x00025706       0xa8 zephyr/libzephyr.a(heap.c.obj)
                0x00025706                sys_heap_init
 .text.encode_uint
                0x000257ae       0x96 zephyr/libzephyr.a(cbprintf_complete.c.obj)
 .text.outs     0x00025844       0x2c zephyr/libzephyr.a(cbprintf_complete.c.obj)
 .text.ring_buf_get_rewind_threshold
                0x00025870        0x6 zephyr/libzephyr.a(ring_buffer.c.obj)
                0x00025870                ring_buf_get_rewind_threshold
 .text.ring_buf_put_claim
                0x00025876       0x38 zephyr/libzephyr.a(ring_buffer.c.obj)
                0x00025876                ring_buf_put_claim
 .text.ring_buf_put_finish
                0x000258ae       0x1a zephyr/libzephyr.a(ring_buffer.c.obj)
                0x000258ae                ring_buf_put_finish
 .text.ring_buf_put
                0x000258c8       0x3e zephyr/libzephyr.a(ring_buffer.c.obj)
                0x000258c8                ring_buf_put
 .text.ring_buf_get_claim
                0x00025906       0x38 zephyr/libzephyr.a(ring_buffer.c.obj)
                0x00025906                ring_buf_get_claim
 .text.ring_buf_get_finish
                0x0002593e       0x5e zephyr/libzephyr.a(ring_buffer.c.obj)
                0x0002593e                ring_buf_get_finish
 .text.ring_buf_get
                0x0002599c       0x40 zephyr/libzephyr.a(ring_buffer.c.obj)
                0x0002599c                ring_buf_get
 .text.foldcase
                0x000259dc       0x10 zephyr/libzephyr.a(fnmatch.c.obj)
 .text.fnmatchx
                0x000259ec      0x260 zephyr/libzephyr.a(fnmatch.c.obj)
 .text.fnmatch  0x00025c4c        0x6 zephyr/libzephyr.a(fnmatch.c.obj)
                0x00025c4c                fnmatch
 .text._ConfigAbsSyms
                0x00025c52        0x2 zephyr/libzephyr.a(configs.c.obj)
                0x00025c52                _ConfigAbsSyms
 .text.nordicsemi_nrf53_init
                0x00025c54       0x2e zephyr/libzephyr.a(soc.c.obj)
 .text.z_platform_init
                0x00025c82        0x4 zephyr/libzephyr.a(soc.c.obj)
                0x00025c82                z_platform_init
 .text.pm_power_state_set
                0x00025c86       0x26 zephyr/libzephyr.a(power.c.obj)
                0x00025c86                pm_power_state_set
 .text.pm_power_state_exit_post_ops
                0x00025cac       0x16 zephyr/libzephyr.a(power.c.obj)
                0x00025cac                pm_power_state_exit_post_ops
 .text.log_list_init
                0x00025cc2        0x8 zephyr/libzephyr.a(log_list.c.obj)
                0x00025cc2                log_list_init
 .text.log_list_add_tail
                0x00025cca       0x14 zephyr/libzephyr.a(log_list.c.obj)
                0x00025cca                log_list_add_tail
 .text.log_list_head_peek
                0x00025cde        0x4 zephyr/libzephyr.a(log_list.c.obj)
                0x00025cde                log_list_head_peek
 .text.log_list_head_get
                0x00025ce2        0xc zephyr/libzephyr.a(log_list.c.obj)
                0x00025ce2                log_list_head_get
 .text.z_log_msg_std_alloc
                0x00025cee       0x12 zephyr/libzephyr.a(log_core.c.obj)
 .text.default_get_timestamp
                0x00025d00        0x4 zephyr/libzephyr.a(log_core.c.obj)
 .text.dummy_timestamp
                0x00025d04        0x4 zephyr/libzephyr.a(log_core.c.obj)
 .text.z_log_get_s_mask
                0x00025d08       0x40 zephyr/libzephyr.a(log_core.c.obj)
                0x00025d08                z_log_get_s_mask
 .text.log_backend_disable
                0x00025d48        0xa zephyr/libzephyr.a(log_core.c.obj)
                0x00025d48                log_backend_disable
 .text.log_0    0x00025d52       0x1a zephyr/libzephyr.a(log_core.c.obj)
                0x00025d52                log_0
 .text.log_1    0x00025d6c       0x28 zephyr/libzephyr.a(log_core.c.obj)
                0x00025d6c                log_1
 .text.log_2    0x00025d94       0x32 zephyr/libzephyr.a(log_core.c.obj)
                0x00025d94                log_2
 .text.log_3    0x00025dc6       0x38 zephyr/libzephyr.a(log_core.c.obj)
                0x00025dc6                log_3
 .text.log_msg_hexdump_data_op
                0x00025dfe       0xac zephyr/libzephyr.a(log_msg.c.obj)
 .text.log_msg_get
                0x00025eaa       0x12 zephyr/libzephyr.a(log_msg.c.obj)
                0x00025eaa                log_msg_get
 .text.log_msg_nargs_get
                0x00025ebc        0x6 zephyr/libzephyr.a(log_msg.c.obj)
                0x00025ebc                log_msg_nargs_get
 .text.log_msg_arg_get
                0x00025ec2       0x3e zephyr/libzephyr.a(log_msg.c.obj)
                0x00025ec2                log_msg_arg_get
 .text.log_msg_put
                0x00025f00       0x1e zephyr/libzephyr.a(log_msg.c.obj)
                0x00025f00                log_msg_put
 .text.log_msg_str_get
                0x00025f1e        0x4 zephyr/libzephyr.a(log_msg.c.obj)
                0x00025f1e                log_msg_str_get
 .text.log_msg_hexdump_data_get
                0x00025f22        0xe zephyr/libzephyr.a(log_msg.c.obj)
                0x00025f22                log_msg_hexdump_data_get
 .text.buffer_write
                0x00025f30       0x1a zephyr/libzephyr.a(log_output.c.obj)
 .text.std_print
                0x00025f4a      0x2ba zephyr/libzephyr.a(log_output.c.obj)
 .text.log_output_flush
                0x00026204       0x1a zephyr/libzephyr.a(log_output.c.obj)
                0x00026204                log_output_flush
 .text.out_func
                0x0002621e       0x2e zephyr/libzephyr.a(log_output.c.obj)
 .text.log_halt
                0x0002624c        0x8 zephyr/libzephyr.a(log_cmds.c.obj)
 .text.log_go   0x00026254        0xa zephyr/libzephyr.a(log_cmds.c.obj)
 .text.cmd_log_self_halt
                0x0002625e       0x18 zephyr/libzephyr.a(log_cmds.c.obj)
 .text.cmd_log_self_go
                0x00026276       0x18 zephyr/libzephyr.a(log_cmds.c.obj)
 .text.cmd_log_self_status
                0x0002628e       0x20 zephyr/libzephyr.a(log_cmds.c.obj)
 .text.cmd_log_self_enable
                0x000262ae       0x22 zephyr/libzephyr.a(log_cmds.c.obj)
 .text.log_disable
                0x000262d0       0x14 zephyr/libzephyr.a(log_cmds.c.obj)
 .text.cmd_log_self_disable
                0x000262e4       0x22 zephyr/libzephyr.a(log_cmds.c.obj)
 .text.cmd_kernel_reboot_warm
                0x00026306        0xc zephyr/libzephyr.a(kernel_service.c.obj)
 .text.cmd_kernel_reboot_cold
                0x00026312        0xc zephyr/libzephyr.a(kernel_service.c.obj)
 .text.cmd_date_get
                0x0002631e       0x24 zephyr/libzephyr.a(date_service.c.obj)
 .text.atomic_or
                0x00026342       0x16 zephyr/libzephyr.a(shell.c.obj)
 .text.atomic_and
                0x00026358       0x16 zephyr/libzephyr.a(shell.c.obj)
 .text.kill_handler
                0x0002636e       0x50 zephyr/libzephyr.a(shell.c.obj)
 .text.shell_signal_handle
                0x000263be       0x2a zephyr/libzephyr.a(shell.c.obj)
 .text.k_mutex_unlock
                0x000263e8        0x4 zephyr/libzephyr.a(shell.c.obj)
 .text.z_shell_strlen
                0x000263ec        0xc zephyr/libzephyr.a(shell.c.obj)
 .text.z_shell_raw_fprintf
                0x000263f8       0x1a zephyr/libzephyr.a(shell.c.obj)
 .text.z_flag_echo_set.isra.0
                0x00026412       0x20 zephyr/libzephyr.a(shell.c.obj)
 .text.z_flag_obscure_set.isra.0
                0x00026432       0x20 zephyr/libzephyr.a(shell.c.obj)
 .text.z_flag_mode_delete_set.isra.0
                0x00026452       0x20 zephyr/libzephyr.a(shell.c.obj)
 .text.z_flag_use_colors_set.isra.0
                0x00026472       0x20 zephyr/libzephyr.a(shell.c.obj)
 .text.z_flag_history_exit_set.isra.0
                0x00026492       0x20 zephyr/libzephyr.a(shell.c.obj)
 .text.z_flag_insert_mode_set.isra.0
                0x000264b2       0x20 zephyr/libzephyr.a(shell.c.obj)
 .text.transport_evt_handler
                0x000264d2       0x14 zephyr/libzephyr.a(shell.c.obj)
 .text.k_mutex_lock.constprop.0
                0x000264e6        0x4 zephyr/libzephyr.a(shell.c.obj)
 .text.shell_log_process
                0x000264ea       0x48 zephyr/libzephyr.a(shell.c.obj)
 .text.shell_vfprintf
                0x00026532       0x72 zephyr/libzephyr.a(shell.c.obj)
                0x00026532                shell_vfprintf
 .text.shell_fprintf
                0x000265a4       0x1a zephyr/libzephyr.a(shell.c.obj)
                0x000265a4                shell_fprintf
 .text.shell_help
                0x000265be       0x2a zephyr/libzephyr.a(shell.c.obj)
                0x000265be                shell_help
 .text.z_shell_fprintf_buffer_flush
                0x000265e8       0x18 zephyr/libzephyr.a(shell_fprintf.c.obj)
                0x000265e8                z_shell_fprintf_buffer_flush
 .text.out_func
                0x00026600       0x38 zephyr/libzephyr.a(shell_fprintf.c.obj)
 .text.isspace  0x00026638       0x14 zephyr/libzephyr.a(shell_utils.c.obj)
 .text.z_shell_strlen
                0x0002664c        0xc zephyr/libzephyr.a(shell_utils.c.obj)
 .text.z_column_span_with_buffer_offsets_get
                0x00026658       0x1e zephyr/libzephyr.a(shell_utils.c.obj)
                0x00026658                z_column_span_with_buffer_offsets_get
 .text.z_row_span_with_buffer_offsets_get
                0x00026676       0x16 zephyr/libzephyr.a(shell_utils.c.obj)
                0x00026676                z_row_span_with_buffer_offsets_get
 .text.z_shell_multiline_data_calc
                0x0002668c       0x2c zephyr/libzephyr.a(shell_utils.c.obj)
                0x0002668c                z_shell_multiline_data_calc
 .text.z_shell_make_argv
                0x000266b8      0x188 zephyr/libzephyr.a(shell_utils.c.obj)
                0x000266b8                z_shell_make_argv
 .text.z_shell_pattern_remove
                0x00026840       0x4e zephyr/libzephyr.a(shell_utils.c.obj)
                0x00026840                z_shell_pattern_remove
 .text.z_shell_find_cmd
                0x0002688e       0x2e zephyr/libzephyr.a(shell_utils.c.obj)
                0x0002688e                z_shell_find_cmd
 .text.z_shell_get_last_command
                0x000268bc       0x5c zephyr/libzephyr.a(shell_utils.c.obj)
                0x000268bc                z_shell_get_last_command
 .text.z_shell_spaces_trim
                0x00026918       0x6c zephyr/libzephyr.a(shell_utils.c.obj)
                0x00026918                z_shell_spaces_trim
 .text.z_shell_cmd_trim
                0x00026984       0x64 zephyr/libzephyr.a(shell_utils.c.obj)
                0x00026984                z_shell_cmd_trim
 .text.z_shell_raw_fprintf
                0x000269e8       0x1a zephyr/libzephyr.a(shell_ops.c.obj)
 .text.full_line_cmd.isra.0
                0x00026a02       0x28 zephyr/libzephyr.a(shell_ops.c.obj)
 .text.z_shell_cursor_in_empty_line
                0x00026a2a       0x28 zephyr/libzephyr.a(shell_ops.c.obj)
                0x00026a2a                z_shell_cursor_in_empty_line
 .text.z_shell_op_cursor_move
                0x00026a52       0x48 zephyr/libzephyr.a(shell_ops.c.obj)
                0x00026a52                z_shell_op_cursor_move
 .text.z_shell_op_cursor_word_move
                0x00026a9a       0x74 zephyr/libzephyr.a(shell_ops.c.obj)
                0x00026a9a                z_shell_op_cursor_word_move
 .text.z_shell_op_cursor_home_move
                0x00026b0e        0xc zephyr/libzephyr.a(shell_ops.c.obj)
                0x00026b0e                z_shell_op_cursor_home_move
 .text.z_shell_op_cursor_end_move
                0x00026b1a        0xe zephyr/libzephyr.a(shell_ops.c.obj)
                0x00026b1a                z_shell_op_cursor_end_move
 .text.z_shell_op_left_arrow
                0x00026b28       0x10 zephyr/libzephyr.a(shell_ops.c.obj)
                0x00026b28                z_shell_op_left_arrow
 .text.z_shell_op_right_arrow
                0x00026b38       0x12 zephyr/libzephyr.a(shell_ops.c.obj)
                0x00026b38                z_shell_op_right_arrow
 .text.z_shell_op_delete_from_cursor
                0x00026b4a       0x14 zephyr/libzephyr.a(shell_ops.c.obj)
                0x00026b4a                z_shell_op_delete_from_cursor
 .text.z_shell_cmd_line_erase
                0x00026b5e       0x34 zephyr/libzephyr.a(shell_ops.c.obj)
                0x00026b5e                z_shell_cmd_line_erase
 .text.z_shell_write
                0x00026b92       0x76 zephyr/libzephyr.a(shell_ops.c.obj)
                0x00026b92                z_shell_write
 .text.z_shell_print_stream
                0x00026c08        0x4 zephyr/libzephyr.a(shell_ops.c.obj)
                0x00026c08                z_shell_print_stream
 .text.z_shell_vfprintf
                0x00026c0c       0x50 zephyr/libzephyr.a(shell_ops.c.obj)
                0x00026c0c                z_shell_vfprintf
 .text.z_shell_fprintf
                0x00026c5c       0x1a zephyr/libzephyr.a(shell_ops.c.obj)
                0x00026c5c                z_shell_fprintf
 .text.data_insert
                0x00026c76       0x64 zephyr/libzephyr.a(shell_ops.c.obj)
 .text.z_shell_op_completion_insert
                0x00026cda        0x4 zephyr/libzephyr.a(shell_ops.c.obj)
                0x00026cda                z_shell_op_completion_insert
 .text.z_shell_op_char_delete
                0x00026cde       0x36 zephyr/libzephyr.a(shell_ops.c.obj)
                0x00026cde                z_shell_op_char_delete
 .text.z_shell_op_char_backspace
                0x00026d14       0x22 zephyr/libzephyr.a(shell_ops.c.obj)
                0x00026d14                z_shell_op_char_backspace
 .text.z_impl_uart_irq_tx_disable
                0x00026d36        0xa zephyr/libzephyr.a(shell_uart.c.obj)
 .text.read     0x00026d40       0x12 zephyr/libzephyr.a(shell_uart.c.obj)
 .text.write    0x00026d52       0x64 zephyr/libzephyr.a(shell_uart.c.obj)
 .text.uninit   0x00026db6       0x1c zephyr/libzephyr.a(shell_uart.c.obj)
 .text.enable   0x00026dd2       0x14 zephyr/libzephyr.a(shell_uart.c.obj)
 .text.z_shell_raw_fprintf
                0x00026de6       0x1a zephyr/libzephyr.a(shell_help.c.obj)
 .text.cmd_shell_stats_reset
                0x00026e00        0x8 zephyr/libzephyr.a(shell_cmds.c.obj)
 .text.z_shell_raw_fprintf
                0x00026e08       0x1a zephyr/libzephyr.a(shell_cmds.c.obj)
 .text.cmd_echo_on
                0x00026e22       0x1a zephyr/libzephyr.a(shell_cmds.c.obj)
 .text.cmd_colors_off
                0x00026e3c       0x1a zephyr/libzephyr.a(shell_cmds.c.obj)
 .text.cmd_bacskpace_mode_backspace
                0x00026e56       0x1a zephyr/libzephyr.a(shell_cmds.c.obj)
 .text.cmd_echo_off
                0x00026e70       0x1a zephyr/libzephyr.a(shell_cmds.c.obj)
 .text.cmd_bacskpace_mode_delete
                0x00026e8a       0x1a zephyr/libzephyr.a(shell_cmds.c.obj)
 .text.cmd_colors_on
                0x00026ea4       0x1a zephyr/libzephyr.a(shell_cmds.c.obj)
 .text.remove_from_tail.part.0
                0x00026ebe       0x24 zephyr/libzephyr.a(shell_history.c.obj)
 .text.z_shell_history_mode_exit
                0x00026ee2        0x6 zephyr/libzephyr.a(shell_history.c.obj)
                0x00026ee2                z_shell_history_mode_exit
 .text.z_shell_history_get
                0x00026ee8       0x56 zephyr/libzephyr.a(shell_history.c.obj)
                0x00026ee8                z_shell_history_get
 .text.z_shell_history_purge
                0x00026f3e       0x18 zephyr/libzephyr.a(shell_history.c.obj)
                0x00026f3e                z_shell_history_purge
 .text.z_shell_history_put
                0x00026f56       0xd8 zephyr/libzephyr.a(shell_history.c.obj)
                0x00026f56                z_shell_history_put
 .text.z_shell_history_init
                0x0002702e        0xc zephyr/libzephyr.a(shell_history.c.obj)
                0x0002702e                z_shell_history_init
 .text.msg_from_fifo.isra.0
                0x0002703a       0x1a zephyr/libzephyr.a(shell_log_backend.c.obj)
 .text.dropped  0x00027054       0x2a zephyr/libzephyr.a(shell_log_backend.c.obj)
 .text.put      0x0002707e      0x114 zephyr/libzephyr.a(shell_log_backend.c.obj)
 .text.z_shell_log_backend_output_func
                0x00027192       0x14 zephyr/libzephyr.a(shell_log_backend.c.obj)
                0x00027192                z_shell_log_backend_output_func
 .text.z_shell_log_backend_enable
                0x000271a6       0x1e zephyr/libzephyr.a(shell_log_backend.c.obj)
                0x000271a6                z_shell_log_backend_enable
 .text.z_shell_log_backend_disable
                0x000271c4       0x20 zephyr/libzephyr.a(shell_log_backend.c.obj)
                0x000271c4                z_shell_log_backend_disable
 .text.z_shell_log_backend_process
                0x000271e4       0x78 zephyr/libzephyr.a(shell_log_backend.c.obj)
                0x000271e4                z_shell_log_backend_process
 .text.panic    0x0002725c       0x52 zephyr/libzephyr.a(shell_log_backend.c.obj)
 .text.z_shell_has_wildcard
                0x000272ae       0x28 zephyr/libzephyr.a(shell_wildcard.c.obj)
                0x000272ae                z_shell_has_wildcard
 .text.z_shell_wildcard_prepare
                0x000272d6       0x48 zephyr/libzephyr.a(shell_wildcard.c.obj)
                0x000272d6                z_shell_wildcard_prepare
 .text.z_shell_wildcard_finalize
                0x0002731e       0x1a zephyr/libzephyr.a(shell_wildcard.c.obj)
                0x0002731e                z_shell_wildcard_finalize
 .text.pm_policy_next_state
                0x00027338        0xa zephyr/libzephyr.a(policy_residency.c.obj)
                0x00027338                pm_policy_next_state
 .text.get_status
                0x00027342       0x12 zephyr/libzephyr.a(clock_control_nrf.c.obj)
 .text.set_off_state
                0x00027354       0x32 zephyr/libzephyr.a(clock_control_nrf.c.obj)
 .text.set_starting_state
                0x00027386       0x3c zephyr/libzephyr.a(clock_control_nrf.c.obj)
 .text.set_on_state
                0x000273c2       0x26 zephyr/libzephyr.a(clock_control_nrf.c.obj)
 .text.onoff_started_callback
                0x000273e8       0x12 zephyr/libzephyr.a(clock_control_nrf.c.obj)
 .text.hfclkaudio_start
                0x000273fa        0x6 zephyr/libzephyr.a(clock_control_nrf.c.obj)
 .text.hfclk192m_start
                0x00027400        0x6 zephyr/libzephyr.a(clock_control_nrf.c.obj)
 .text.lfclk_start
                0x00027406        0x6 zephyr/libzephyr.a(clock_control_nrf.c.obj)
 .text.hfclkaudio_stop
                0x0002740c        0x6 zephyr/libzephyr.a(clock_control_nrf.c.obj)
 .text.hfclk192m_stop
                0x00027412        0x6 zephyr/libzephyr.a(clock_control_nrf.c.obj)
 .text.lfclk_stop
                0x00027418        0x6 zephyr/libzephyr.a(clock_control_nrf.c.obj)
 .text.blocking_start_callback
                0x0002741e        0x6 zephyr/libzephyr.a(clock_control_nrf.c.obj)
 .text.api_stop
                0x00027424       0x28 zephyr/libzephyr.a(clock_control_nrf.c.obj)
 .text.api_start
                0x0002744c       0x34 zephyr/libzephyr.a(clock_control_nrf.c.obj)
 .text.sys_clock_isr
                0x00027480        0x2 zephyr/libzephyr.a(sys_clock_init.c.obj)
                0x00027480                sys_clock_isr
 .text.sys_clock_idle_exit
                0x00027482        0x2 zephyr/libzephyr.a(sys_clock_init.c.obj)
                0x00027482                sys_clock_idle_exit
 .text.sys_clock_disable
                0x00027484        0x2 zephyr/libzephyr.a(sys_clock_init.c.obj)
                0x00027484                sys_clock_disable
 .text.spm_request_random_number
                0x00027486       0x18 zephyr/libzephyr.a(secure_services_ns.c.obj)
                0x00027486                spm_request_random_number
 .text.z_irq_spurious
                0x0002749e        0x8 zephyr/arch/arch/arm/core/aarch32/libarch__arm__core__aarch32.a(irq_manage.c.obj)
                0x0002749e                z_irq_spurious
 .text.configure_builtin_stack_guard
                0x000274a6        0xa zephyr/arch/arch/arm/core/aarch32/libarch__arm__core__aarch32.a(thread.c.obj)
                0x000274a6                configure_builtin_stack_guard
 .text.z_do_kernel_oops
                0x000274b0        0x8 zephyr/arch/arch/arm/core/aarch32/libarch__arm__core__aarch32.a(fatal.c.obj)
                0x000274b0                z_do_kernel_oops
 .text.z_arm_nmi
                0x000274b8        0xe zephyr/arch/arch/arm/core/aarch32/libarch__arm__core__aarch32.a(nmi.c.obj)
                0x000274b8                z_arm_nmi
 .text.z_arm_save_fp_context
                0x000274c6        0x2 zephyr/arch/arch/arm/core/aarch32/cortex_m/libarch__arm__core__aarch32__cortex_m.a(fpu.c.obj)
                0x000274c6                z_arm_save_fp_context
 .text.z_arm_restore_fp_context
                0x000274c8        0x2 zephyr/arch/arch/arm/core/aarch32/cortex_m/libarch__arm__core__aarch32__cortex_m.a(fpu.c.obj)
                0x000274c8                z_arm_restore_fp_context
 .text.arm_cmse_mpu_region_get
                0x000274ca       0x12 zephyr/arch/arch/arm/core/aarch32/cortex_m/cmse/libarch__arm__core__aarch32__cortex_m__cmse.a(arm_core_cmse.c.obj)
                0x000274ca                arm_cmse_mpu_region_get
 .text.mpu_configure_region
                0x000274dc       0x32 zephyr/arch/arch/arm/core/aarch32/mpu/libarch__arm__core__aarch32__mpu.a(arm_mpu.c.obj)
 .text.strtol   0x0002750e       0xec zephyr/lib/libc/minimal/liblib__libc__minimal.a(strtol.c.obj)
                0x0002750e                strtol
 .text.strstr   0x000275fa       0x40 zephyr/lib/libc/minimal/liblib__libc__minimal.a(strstr.c.obj)
                0x000275fa                strstr
 .text.strcpy   0x0002763a       0x14 zephyr/lib/libc/minimal/liblib__libc__minimal.a(string.c.obj)
                0x0002763a                strcpy
 .text.strncpy  0x0002764e       0x26 zephyr/lib/libc/minimal/liblib__libc__minimal.a(string.c.obj)
                0x0002764e                strncpy
 .text.strchr   0x00027674       0x1c zephyr/lib/libc/minimal/liblib__libc__minimal.a(string.c.obj)
                0x00027674                strchr
 .text.strlen   0x00027690        0xe zephyr/lib/libc/minimal/liblib__libc__minimal.a(string.c.obj)
                0x00027690                strlen
 .text.strnlen  0x0002769e       0x12 zephyr/lib/libc/minimal/liblib__libc__minimal.a(string.c.obj)
                0x0002769e                strnlen
 .text.strcmp   0x000276b0       0x18 zephyr/lib/libc/minimal/liblib__libc__minimal.a(string.c.obj)
                0x000276b0                strcmp
 .text.strncmp  0x000276c8       0x1e zephyr/lib/libc/minimal/liblib__libc__minimal.a(string.c.obj)
                0x000276c8                strncmp
 .text.memcmp   0x000276e6       0x20 zephyr/lib/libc/minimal/liblib__libc__minimal.a(string.c.obj)
                0x000276e6                memcmp
 .text.memmove  0x00027706       0x2e zephyr/lib/libc/minimal/liblib__libc__minimal.a(string.c.obj)
                0x00027706                memmove
 .text.memcpy   0x00027734       0x56 zephyr/lib/libc/minimal/liblib__libc__minimal.a(string.c.obj)
                0x00027734                memcpy
 .text.memset   0x0002778a       0x46 zephyr/lib/libc/minimal/liblib__libc__minimal.a(string.c.obj)
                0x0002778a                memset
 .text._stdout_hook_default
                0x000277d0        0x6 zephyr/lib/libc/minimal/liblib__libc__minimal.a(stdout_console.c.obj)
 .text.fputc    0x000277d6        0x4 zephyr/lib/libc/minimal/liblib__libc__minimal.a(stdout_console.c.obj)
                0x000277d6                fputc
 .text.sprintf_out
                0x000277da       0x1a zephyr/lib/libc/minimal/liblib__libc__minimal.a(sprintf.c.obj)
 .text.gpio_fire_callbacks
                0x000277f4       0x30 zephyr/drivers/gpio/libdrivers__gpio.a(gpio_nrfx.c.obj)
 .text.gpio_nrfx_port_get_raw
                0x00027824        0xc zephyr/drivers/gpio/libdrivers__gpio.a(gpio_nrfx.c.obj)
 .text.gpio_nrfx_port_set_masked_raw
                0x00027830       0x12 zephyr/drivers/gpio/libdrivers__gpio.a(gpio_nrfx.c.obj)
 .text.gpio_nrfx_port_set_bits_raw
                0x00027842        0xa zephyr/drivers/gpio/libdrivers__gpio.a(gpio_nrfx.c.obj)
 .text.gpio_nrfx_port_clear_bits_raw
                0x0002784c        0xa zephyr/drivers/gpio/libdrivers__gpio.a(gpio_nrfx.c.obj)
 .text.gpio_nrfx_port_toggle_bits
                0x00027856        0xe zephyr/drivers/gpio/libdrivers__gpio.a(gpio_nrfx.c.obj)
 .text.gpio_nrfx_manage_callback
                0x00027864       0x56 zephyr/drivers/gpio/libdrivers__gpio.a(gpio_nrfx.c.obj)
 .text.cfg_level_pins
                0x000278ba       0x4c zephyr/drivers/gpio/libdrivers__gpio.a(gpio_nrfx.c.obj)
 .text.uarte_nrfx_isr_int
                0x00027906       0xbc zephyr/drivers/serial/libdrivers__serial.a(uart_nrfx_uarte.c.obj)
 .text.uarte_nrfx_config_get
                0x000279c2       0x10 zephyr/drivers/serial/libdrivers__serial.a(uart_nrfx_uarte.c.obj)
 .text.uarte_nrfx_err_check
                0x000279d2        0xe zephyr/drivers/serial/libdrivers__serial.a(uart_nrfx_uarte.c.obj)
 .text.is_tx_ready
                0x000279e0       0x20 zephyr/drivers/serial/libdrivers__serial.a(uart_nrfx_uarte.c.obj)
 .text.uarte_nrfx_poll_in
                0x00027a00       0x26 zephyr/drivers/serial/libdrivers__serial.a(uart_nrfx_uarte.c.obj)
 .text.uarte_nrfx_fifo_read
                0x00027a26       0x2c zephyr/drivers/serial/libdrivers__serial.a(uart_nrfx_uarte.c.obj)
 .text.uarte_nrfx_irq_tx_enable
                0x00027a52       0x2e zephyr/drivers/serial/libdrivers__serial.a(uart_nrfx_uarte.c.obj)
 .text.uarte_nrfx_irq_tx_disable
                0x00027a80        0xa zephyr/drivers/serial/libdrivers__serial.a(uart_nrfx_uarte.c.obj)
 .text.uarte_nrfx_irq_tx_ready_complete
                0x00027a8a       0x2a zephyr/drivers/serial/libdrivers__serial.a(uart_nrfx_uarte.c.obj)
 .text.uarte_nrfx_irq_rx_ready
                0x00027ab4       0x10 zephyr/drivers/serial/libdrivers__serial.a(uart_nrfx_uarte.c.obj)
 .text.uarte_nrfx_irq_rx_enable
                0x00027ac4        0xc zephyr/drivers/serial/libdrivers__serial.a(uart_nrfx_uarte.c.obj)
 .text.uarte_nrfx_irq_rx_disable
                0x00027ad0        0xc zephyr/drivers/serial/libdrivers__serial.a(uart_nrfx_uarte.c.obj)
 .text.uarte_nrfx_irq_err_enable
                0x00027adc        0xe zephyr/drivers/serial/libdrivers__serial.a(uart_nrfx_uarte.c.obj)
 .text.uarte_nrfx_irq_err_disable
                0x00027aea        0xe zephyr/drivers/serial/libdrivers__serial.a(uart_nrfx_uarte.c.obj)
 .text.uarte_nrfx_irq_update
                0x00027af8        0x4 zephyr/drivers/serial/libdrivers__serial.a(uart_nrfx_uarte.c.obj)
 .text.uarte_nrfx_irq_callback_set
                0x00027afc        0xa zephyr/drivers/serial/libdrivers__serial.a(uart_nrfx_uarte.c.obj)
 .text.tx_start
                0x00027b06       0x38 zephyr/drivers/serial/libdrivers__serial.a(uart_nrfx_uarte.c.obj)
 .text.uarte_nrfx_fifo_fill
                0x00027b3e       0x78 zephyr/drivers/serial/libdrivers__serial.a(uart_nrfx_uarte.c.obj)
 .text.uarte_nrfx_irq_is_pending
                0x00027bb6       0x36 zephyr/drivers/serial/libdrivers__serial.a(uart_nrfx_uarte.c.obj)
 .text.entropy_cc3xx_rng_init
                0x00027bec        0x4 zephyr/drivers/entropy/libdrivers__entropy.a(entropy_cc310.c.obj)
 .text.entropy_cc3xx_rng_get_entropy
                0x00027bf0       0x40 zephyr/drivers/entropy/libdrivers__entropy.a(entropy_cc310.c.obj)
 .text.SystemInit
                0x00027c30        0x4 modules/hal_nordic/nrfx/libmodules__hal_nordic__nrfx.a(system_nrf5340_application.c.obj)
                0x00027c30                SystemInit
 .text.nrfx_isr
                0x00027c34        0x2 modules/hal_nordic/nrfx/libmodules__hal_nordic__nrfx.a(nrfx_glue.c.obj)
                0x00027c34                nrfx_isr
 .text.nrfx_busy_wait
                0x00027c36        0x4 modules/hal_nordic/nrfx/libmodules__hal_nordic__nrfx.a(nrfx_glue.c.obj)
                0x00027c36                nrfx_busy_wait
 .text.z_device_state_init
                0x00027c3a        0x2 zephyr/kernel/libkernel.a(device.c.obj)
                0x00027c3a                z_device_state_init
 .text.z_device_ready
                0x00027c3c       0x12 zephyr/kernel/libkernel.a(device.c.obj)
                0x00027c3c                z_device_ready
 .text.k_mem_slab_init
                0x00027c4e       0x36 zephyr/kernel/libkernel.a(mem_slab.c.obj)
                0x00027c4e                k_mem_slab_init
 .text.k_mem_slab_free
                0x00027c84       0x54 zephyr/kernel/libkernel.a(mem_slab.c.obj)
                0x00027c84                k_mem_slab_free
 .text.k_is_in_isr
                0x00027cd8        0xc zephyr/kernel/libkernel.a(thread.c.obj)
                0x00027cd8                k_is_in_isr
 .text.k_thread_name_get
                0x00027ce4        0x4 zephyr/kernel/libkernel.a(thread.c.obj)
                0x00027ce4                k_thread_name_get
 .text.z_impl_k_thread_start
                0x00027ce8        0x4 zephyr/kernel/libkernel.a(thread.c.obj)
                0x00027ce8                z_impl_k_thread_start
 .text.z_impl_k_thread_stack_space_get
                0x00027cec       0x1c zephyr/kernel/libkernel.a(thread.c.obj)
                0x00027cec                z_impl_k_thread_stack_space_get
 .text.z_pm_save_idle_exit
                0x00027d08        0xe zephyr/kernel/libkernel.a(idle.c.obj)
                0x00027d08                z_pm_save_idle_exit
 .text.z_impl_k_msgq_peek
                0x00027d16       0x34 zephyr/kernel/libkernel.a(msg_q.c.obj)
                0x00027d16                z_impl_k_msgq_peek
 .text.z_impl_k_mutex_init
                0x00027d4a        0xe zephyr/kernel/libkernel.a(mutex.c.obj)
                0x00027d4a                z_impl_k_mutex_init
 .text.sys_dlist_remove
                0x00027d58       0x10 zephyr/kernel/libkernel.a(sched.c.obj)
 .text.unpend_thread_no_timeout
                0x00027d68       0x14 zephyr/kernel/libkernel.a(sched.c.obj)
 .text.z_sched_prio_cmp
                0x00027d7c       0x12 zephyr/kernel/libkernel.a(sched.c.obj)
                0x00027d7c                z_sched_prio_cmp
 .text.z_unpend_thread_no_timeout
                0x00027d8e       0x20 zephyr/kernel/libkernel.a(sched.c.obj)
                0x00027d8e                z_unpend_thread_no_timeout
 .text.z_unpend_thread
                0x00027dae       0x28 zephyr/kernel/libkernel.a(sched.c.obj)
                0x00027dae                z_unpend_thread
 .text.z_reschedule_irqlock
                0x00027dd6       0x18 zephyr/kernel/libkernel.a(sched.c.obj)
                0x00027dd6                z_reschedule_irqlock
 .text.z_reschedule_unlocked
                0x00027dee       0x14 zephyr/kernel/libkernel.a(sched.c.obj)
 .text.z_priq_dumb_best
                0x00027e02       0x14 zephyr/kernel/libkernel.a(sched.c.obj)
                0x00027e02                z_priq_dumb_best
 .text.add_to_waitq_locked
                0x00027e16       0x5a zephyr/kernel/libkernel.a(sched.c.obj)
 .text.z_ready_thread
                0x00027e70       0x20 zephyr/kernel/libkernel.a(sched.c.obj)
                0x00027e70                z_ready_thread
 .text.z_thread_timeout
                0x00027e90       0x44 zephyr/kernel/libkernel.a(sched.c.obj)
                0x00027e90                z_thread_timeout
 .text.z_unpend1_no_timeout
                0x00027ed4       0x2a zephyr/kernel/libkernel.a(sched.c.obj)
                0x00027ed4                z_unpend1_no_timeout
 .text.z_unpend_first_thread
                0x00027efe       0x30 zephyr/kernel/libkernel.a(sched.c.obj)
                0x00027efe                z_unpend_first_thread
 .text.z_sched_wake
                0x00027f2e       0x3c zephyr/kernel/libkernel.a(sched.c.obj)
                0x00027f2e                z_sched_wake
 .text.z_abort_timeout
                0x00027f6a       0x2c zephyr/kernel/libkernel.a(timeout.c.obj)
                0x00027f6a                z_abort_timeout
 .text.z_timeout_remaining
                0x00027f96       0x20 zephyr/kernel/libkernel.a(timeout.c.obj)
                0x00027f96                z_timeout_remaining
 .text.z_get_next_timeout_expiry
                0x00027fb6       0x20 zephyr/kernel/libkernel.a(timeout.c.obj)
                0x00027fb6                z_get_next_timeout_expiry
 .text.z_set_timeout_expiry
                0x00027fd6       0x34 zephyr/kernel/libkernel.a(timeout.c.obj)
                0x00027fd6                z_set_timeout_expiry
 .text.sys_clock_tick_get_32
                0x0002800a        0x8 zephyr/kernel/libkernel.a(timeout.c.obj)
                0x0002800a                sys_clock_tick_get_32
 .text.z_impl_k_uptime_ticks
                0x00028012        0x4 zephyr/kernel/libkernel.a(timeout.c.obj)
                0x00028012                z_impl_k_uptime_ticks
 .text.z_impl_k_busy_wait
                0x00028016        0x8 zephyr/kernel/libkernel.a(timeout.c.obj)
                0x00028016                z_impl_k_busy_wait
 .text.k_timer_init
                0x0002801e       0x18 zephyr/kernel/libkernel.a(timer.c.obj)
                0x0002801e                k_timer_init
 .text.z_impl_k_timer_stop
                0x00028036       0x3a zephyr/kernel/libkernel.a(timer.c.obj)
                0x00028036                z_impl_k_timer_stop
 .text.clear_event_registrations
                0x00028070       0x5a zephyr/kernel/libkernel.a(poll.c.obj)
 .text.add_event
                0x000280ca       0x6a zephyr/kernel/libkernel.a(poll.c.obj)
 .text.register_events
                0x00028134       0xee zephyr/kernel/libkernel.a(poll.c.obj)
 .text.signal_poll_event
                0x00028222       0xb8 zephyr/kernel/libkernel.a(poll.c.obj)
 .text.k_poll_event_init
                0x000282da       0x1e zephyr/kernel/libkernel.a(poll.c.obj)
                0x000282da                k_poll_event_init
 .text.z_handle_obj_poll_events
                0x000282f8       0x1c zephyr/kernel/libkernel.a(poll.c.obj)
                0x000282f8                z_handle_obj_poll_events
 .text.z_impl_k_poll_signal_init
                0x00028314        0xa zephyr/kernel/libkernel.a(poll.c.obj)
                0x00028314                z_impl_k_poll_signal_init
 .text.z_impl_k_poll_signal_reset
                0x0002831e        0x6 zephyr/kernel/libkernel.a(poll.c.obj)
                0x0002831e                z_impl_k_poll_signal_reset
 .text.z_impl_k_poll_signal_check
                0x00028324        0xa zephyr/kernel/libkernel.a(poll.c.obj)
                0x00028324                z_impl_k_poll_signal_check
 .text.boot_banner
                0x0002832e        0x2 zephyr/kernel/libkernel.a(banner.c.obj)
                0x0002832e                boot_banner
 .text.k_heap_init
                0x00028330       0x10 zephyr/kernel/libkernel.a(kheap.c.obj)
                0x00028330                k_heap_init
 .text.notify_queue_locked
                0x00028340        0xe zephyr/kernel/libkernel.a(work.c.obj)
 .text.k_work_submit_to_queue
                0x0002834e       0x3a zephyr/kernel/libkernel.a(work.c.obj)
                0x0002834e                k_work_submit_to_queue
 .text._OffsetAbsSyms
                0x00028388        0x2 zephyr/CMakeFiles/offsets.dir/./arch/arm/core/offsets/offsets.c.obj
                0x00028388                _OffsetAbsSyms
 *(SORT_BY_ALIGNMENT(.TEXT.*))
 *(SORT_BY_ALIGNMENT(.gnu.linkonce.t.*))
 *(SORT_BY_ALIGNMENT(.glue_7t))
 .glue_7t       0x0002838a        0x0 linker stubs
 *(SORT_BY_ALIGNMENT(.glue_7))
 .glue_7        0x0002838a        0x0 linker stubs
 *(SORT_BY_ALIGNMENT(.vfp11_veneer))
 .vfp11_veneer  0x0002838a        0x0 linker stubs
 *(SORT_BY_ALIGNMENT(.v4_bx))
 .v4_bx         0x0002838a        0x0 linker stubs
                0x0002838a                _image_text_end = .

.ARM.exidx      0x0002838c        0x8
                0x0002838c                __exidx_start = .
 *(SORT_BY_ALIGNMENT(.ARM.exidx*) SORT_BY_ALIGNMENT(gnu.linkonce.armexidx.*))
 .ARM.exidx     0x0002838c        0x8 c:/ncs/v1.6.0/toolchain/opt/bin/../lib/gcc/arm-none-eabi/9.2.1/thumb/v8-m.main/nofp\libgcc.a(_udivmoddi4.o)
                0x00028394                __exidx_end = .
                0x00028394                _image_rodata_start = .

initlevel       0x00028394       0x70
                0x00028394                __init_start = .
                0x00028394                __init_PRE_KERNEL_1_start = .
 *(SORT_BY_NAME(SORT_BY_ALIGNMENT(.z_init_PRE_KERNEL_1[0-9]_*)))
 .z_init_PRE_KERNEL_10_
                0x00028394        0x8 zephyr/libzephyr.a(soc.c.obj)
 *(SORT_BY_NAME(SORT_BY_ALIGNMENT(.z_init_PRE_KERNEL_1[1-9][0-9]_*)))
 .z_init_PRE_KERNEL_130_
                0x0002839c        0x8 zephyr/kernel/libkernel.a(mem_slab.c.obj)
 .z_init_PRE_KERNEL_130_
                0x000283a4        0x8 zephyr/kernel/libkernel.a(kheap.c.obj)
 .z_init_PRE_KERNEL_150_
                0x000283ac        0x8 zephyr/libzephyr.a(clock_control_nrf.c.obj)
 .z_init_PRE_KERNEL_150_
                0x000283b4        0x8 zephyr/drivers/serial/libdrivers__serial.a(uart_nrfx_uarte.c.obj)
 .z_init_PRE_KERNEL_150_
                0x000283bc        0x8 zephyr/drivers/entropy/libdrivers__entropy.a(entropy_cc310.c.obj)
                0x000283c4                __init_PRE_KERNEL_2_start = .
 *(SORT_BY_NAME(SORT_BY_ALIGNMENT(.z_init_PRE_KERNEL_2[0-9]_*)))
 .z_init_PRE_KERNEL_20_
                0x000283c4        0x8 zephyr/libzephyr.a(sys_clock_init.c.obj)
 *(SORT_BY_NAME(SORT_BY_ALIGNMENT(.z_init_PRE_KERNEL_2[1-9][0-9]_*)))
                0x000283cc                __init_POST_KERNEL_start = .
 *(SORT_BY_NAME(SORT_BY_ALIGNMENT(.z_init_POST_KERNEL[0-9]_*)))
 .z_init_POST_KERNEL0_
                0x000283cc        0x8 zephyr/libzephyr.a(log_core.c.obj)
 .z_init_POST_KERNEL0_
                0x000283d4        0x8 zephyr/libzephyr.a(shell_uart.c.obj)
 *(SORT_BY_NAME(SORT_BY_ALIGNMENT(.z_init_POST_KERNEL[1-9][0-9]_*)))
 .z_init_POST_KERNEL40_
                0x000283dc       0x10 zephyr/drivers/gpio/libdrivers__gpio.a(gpio_nrfx.c.obj)
 .z_init_POST_KERNEL40_
                0x000283ec        0x8 zephyr/kernel/libkernel.a(system_work_q.c.obj)
 .z_init_POST_KERNEL60_
                0x000283f4        0x8 zephyr/libzephyr.a(uart_console.c.obj)
 .z_init_POST_KERNEL90_
                0x000283fc        0x8 modules/nrf/subsys/fw_info/lib..__nrf__subsys__fw_info.a(fw_info.c.obj)
                0x00028404                __init_APPLICATION_start = .
 *(SORT_BY_NAME(SORT_BY_ALIGNMENT(.z_init_APPLICATION[0-9]_*)))
 *(SORT_BY_NAME(SORT_BY_ALIGNMENT(.z_init_APPLICATION[1-9][0-9]_*)))
                0x00028404                __init_SMP_start = .
 *(SORT_BY_NAME(SORT_BY_ALIGNMENT(.z_init_SMP[0-9]_*)))
 *(SORT_BY_NAME(SORT_BY_ALIGNMENT(.z_init_SMP[1-9][0-9]_*)))
                0x00028404                __init_end = .

sw_isr_table    0x00028404      0x228
                0x00028404                . = ALIGN (0x0)
 *(SORT_BY_ALIGNMENT(.gnu.linkonce.sw_isr_table*))
 .gnu.linkonce.sw_isr_table
                0x00028404      0x228 zephyr/arch/common/libisr_tables.a(isr_tables.c.obj)
                0x00028404                _sw_isr_table

initlevel_error
                0x00028394        0x0
 *(SORT_BY_NAME(SORT_BY_ALIGNMENT(.z_init_[_A-Z0-9]*)))
                0x00000001                ASSERT ((SIZEOF (initlevel_error) == 0x0), Undefined initialization levels used.)

app_shmem_regions
                0x0002862c        0x0
                0x0002862c                __app_shmem_regions_start = .
 *(SORT_BY_NAME(SORT_BY_ALIGNMENT(.app_regions.*)))
                0x0002862c                __app_shmem_regions_end = .

bt_l2cap_fixed_chan_area
                0x0002862c        0x0
                0x0002862c                _bt_l2cap_fixed_chan_list_start = .
 *(SORT_BY_NAME(SORT_BY_ALIGNMENT(._bt_l2cap_fixed_chan.static.*)))
                0x0002862c                _bt_l2cap_fixed_chan_list_end = .

bt_gatt_service_static_area
                0x0002862c        0x0
                0x0002862c                _bt_gatt_service_static_list_start = .
 *(SORT_BY_NAME(SORT_BY_ALIGNMENT(._bt_gatt_service_static.static.*)))
                0x0002862c                _bt_gatt_service_static_list_end = .

k_p4wq_initparam_area
                0x0002862c        0x0
                0x0002862c                _k_p4wq_initparam_list_start = .
 *(SORT_BY_NAME(SORT_BY_ALIGNMENT(._k_p4wq_initparam.static.*)))
                0x0002862c                _k_p4wq_initparam_list_end = .

log_strings_sections
                0x0002862c        0x0
                0x0002862c                __log_strings_start = .
 *(SORT_BY_NAME(SORT_BY_ALIGNMENT(.log_strings*)))
                0x0002862c                __log_strings_end = .

log_const_sections
                0x0002862c       0x60
                0x0002862c                __log_const_start = .
 *(SORT_BY_NAME(SORT_BY_ALIGNMENT(.log_const_*)))
 .log_const_app
                0x0002862c        0x8 app/libapp.a(main.c.obj)
                0x0002862c                log_const_app
 .log_const_app_test
                0x00028634        0x8 app/libapp.a(test_module.c.obj)
                0x00028634                log_const_app_test
 .log_const_clock_control
                0x0002863c        0x8 zephyr/libzephyr.a(clock_control_nrf.c.obj)
                0x0002863c                log_const_clock_control
 .log_const_fatal_error
                0x00028644        0x8 modules/nrf/lib/fatal_error/lib..__nrf__lib__fatal_error.a(fatal_error.c.obj)
                0x00028644                log_const_fatal_error
 .log_const_log
                0x0002864c        0x8 zephyr/libzephyr.a(log_core.c.obj)
                0x0002864c                log_const_log
 .log_const_mpu
                0x00028654        0x8 zephyr/arch/arch/arm/core/aarch32/mpu/libarch__arm__core__aarch32__mpu.a(arm_core_mpu.c.obj)
                0x00028654                log_const_mpu
 .log_const_os  0x0002865c        0x8 zephyr/kernel/libkernel.a(init.c.obj)
                0x0002865c                log_const_os
 .log_const_power
                0x00028664        0x8 zephyr/libzephyr.a(power.c.obj)
                0x00028664                log_const_power
 .log_const_shell_shell_uart
                0x0002866c        0x8 zephyr/libzephyr.a(shell_uart.c.obj)
                0x0002866c                log_const_shell_shell_uart
 .log_const_shell_uart
                0x00028674        0x8 zephyr/libzephyr.a(shell_uart.c.obj)
                0x00028674                log_const_shell_uart
 .log_const_soc
                0x0002867c        0x8 zephyr/libzephyr.a(soc.c.obj)
                0x0002867c                log_const_soc
 .log_const_uart_nrfx_uarte
                0x00028684        0x8 zephyr/drivers/serial/libdrivers__serial.a(uart_nrfx_uarte.c.obj)
                0x00028684                log_const_uart_nrfx_uarte
                0x0002868c                __log_const_end = .

log_backends_sections
                0x0002868c       0x10
                0x0002868c                __log_backends_start = .
 *(SORT_BY_ALIGNMENT(._log_backend.*))
 ._log_backend.static.shell_uart_backend
                0x0002868c       0x10 zephyr/libzephyr.a(shell_uart.c.obj)
                0x0002869c                __log_backends_end = .

shell_area      0x0002869c       0x30
                0x0002869c                _shell_list_start = .
 *(SORT_BY_NAME(SORT_BY_ALIGNMENT(._shell.static.*)))
 ._shell.static.shell_uart
                0x0002869c       0x30 zephyr/libzephyr.a(shell_uart.c.obj)
                0x000286cc                _shell_list_end = .

shell_root_cmds_sections
                0x000286cc       0x88
                0x000286cc                __shell_root_cmds_start = .
 *(SORT_BY_NAME(SORT_BY_ALIGNMENT(.shell_root_cmd_*)))
 .shell_root_cmd_benchmark
                0x000286cc        0x8 app/libapp.a(main.c.obj)
 .shell_root_cmd_clear
                0x000286d4        0x8 zephyr/libzephyr.a(shell_cmds.c.obj)
 .shell_root_cmd_date
                0x000286dc        0x8 zephyr/libzephyr.a(date_service.c.obj)
 .shell_root_cmd_device
                0x000286e4        0x8 zephyr/libzephyr.a(device_service.c.obj)
 .shell_root_cmd_dynamic
                0x000286ec        0x8 app/libapp.a(dynamic_cmd.c.obj)
 .shell_root_cmd_getkeys
                0x000286f4        0x8 app/libapp.a(main.c.obj)
 .shell_root_cmd_help
                0x000286fc        0x8 zephyr/libzephyr.a(shell.c.obj)
 .shell_root_cmd_history
                0x00028704        0x8 zephyr/libzephyr.a(shell_cmds.c.obj)
 .shell_root_cmd_kernel
                0x0002870c        0x8 zephyr/libzephyr.a(kernel_service.c.obj)
 .shell_root_cmd_keygen
                0x00028714        0x8 app/libapp.a(main.c.obj)
 .shell_root_cmd_log
                0x0002871c        0x8 zephyr/libzephyr.a(log_cmds.c.obj)
 .shell_root_cmd_nrf_clock_control
                0x00028724        0x8 zephyr/libzephyr.a(clock_control_nrf.c.obj)
 .shell_root_cmd_publickey
                0x0002872c        0x8 app/libapp.a(main.c.obj)
 .shell_root_cmd_resize
                0x00028734        0x8 zephyr/libzephyr.a(shell_cmds.c.obj)
 .shell_root_cmd_shell
                0x0002873c        0x8 zephyr/libzephyr.a(shell_cmds.c.obj)
 .shell_root_cmd_signature
                0x00028744        0x8 app/libapp.a(main.c.obj)
 .shell_root_cmd_verify
                0x0002874c        0x8 app/libapp.a(main.c.obj)
                0x00028754                __shell_root_cmds_end = .

font_entry_sections
                0x00028754        0x0
                0x00028754                __font_entry_start = .
 *(SORT_BY_NAME(SORT_BY_ALIGNMENT(._cfb_font.*)))
                0x00028754                __font_entry_end = .

tracing_backend_area
                0x00028754        0x0
                0x00028754                _tracing_backend_list_start = .
 *(SORT_BY_NAME(SORT_BY_ALIGNMENT(._tracing_backend.static.*)))
                0x00028754                _tracing_backend_list_end = .

zephyr_dbg_info
 *(SORT_BY_ALIGNMENT(.dbg_thread_info))

device_handles  0x00028754       0x32
                0x00028754                __device_handles_start = .
 *(SORT_BY_NAME(SORT_BY_ALIGNMENT(.__device_handles_pass1*)))
 .__device_handles_pass1
                0x00028754        0xa zephyr/libzephyr.a(clock_control_nrf.c.obj)
                0x00028754                __devicehdl_DT_N_S_soc_S_peripheral_40000000_S_clock_5000
 .__device_handles_pass1
                0x0002875e        0x6 zephyr/libzephyr.a(sys_clock_init.c.obj)
                0x0002875e                __devicehdl_sys_init_sys_clock_driver_init0
 .__device_handles_pass1
                0x00028764       0x10 zephyr/drivers/gpio/libdrivers__gpio.a(gpio_nrfx.c.obj)
                0x00028764                __devicehdl_DT_N_S_soc_S_peripheral_40000000_S_gpio_842800
                0x0002876c                __devicehdl_DT_N_S_soc_S_peripheral_40000000_S_gpio_842500
 .__device_handles_pass1
                0x00028774        0xa zephyr/drivers/serial/libdrivers__serial.a(uart_nrfx_uarte.c.obj)
                0x00028774                __devicehdl_DT_N_S_soc_S_peripheral_40000000_S_uart_8000
 .__device_handles_pass1
                0x0002877e        0x8 zephyr/drivers/entropy/libdrivers__entropy.a(entropy_cc310.c.obj)
                0x0002877e                __devicehdl_DT_N_S_soc_S_cryptocell_sw
                0x00028786                __device_handles_end = .

rodata          0x00028790     0x45c0
 *(SORT_BY_ALIGNMENT(.rodata))
 .rodata        0x00028790       0x18 modules/nrf/subsys/fw_info/lib..__nrf__subsys__fw_info.a(fw_info.c.obj)
 .rodata        0x000287a8     0x200c ../mylib/src/libblst.a(server.o)
                0x000287a8                BLS12_381_P
                0x00028838                BLS12_381_Rx
                0x00028a78                BLS12_381_RR
                0x00029498                BLS12_381_G1
                0x00029528                BLS12_381_G2
                0x00029b68                BLS12_381_r
                0x00029ce0                BLS12_381_rRR
                0x0002a600                BLS12_381_p0
                0x0002a604                BLS12_381_NEG_G2
                0x0002a724                BLS12_381_NEG_G1
 .rodata        0x0002a7b4       0x20 app/libapp.a(main.c.obj)
 *(SORT_BY_ALIGNMENT(.rodata.*))
 *fill*         0x0002a7d4        0xc 
 .rodata.delay_machine_code.9365
                0x0002a7e0        0x6 zephyr/libzephyr.a(soc.c.obj)
 *fill*         0x0002a7e6        0x2 
 .rodata._shell_benchmark
                0x0002a7e8       0x14 app/libapp.a(main.c.obj)
 .rodata._shell_getkeys
                0x0002a7fc       0x14 app/libapp.a(main.c.obj)
 .rodata._shell_keygen
                0x0002a810       0x14 app/libapp.a(main.c.obj)
 .rodata._shell_publickey
                0x0002a824       0x14 app/libapp.a(main.c.obj)
 .rodata._shell_signature
                0x0002a838       0x14 app/libapp.a(main.c.obj)
 .rodata._shell_verify
                0x0002a84c       0x14 app/libapp.a(main.c.obj)
 .rodata._shell_dynamic
                0x0002a860       0x14 app/libapp.a(dynamic_cmd.c.obj)
 .rodata.m_sub_dynamic
                0x0002a874        0x8 app/libapp.a(dynamic_cmd.c.obj)
 .rodata.m_sub_dynamic_set
                0x0002a87c        0x8 app/libapp.a(dynamic_cmd.c.obj)
 .rodata.shell_m_sub_dynamic
                0x0002a884       0x64 app/libapp.a(dynamic_cmd.c.obj)
 .rodata.colors
                0x0002a8e8       0x14 zephyr/libzephyr.a(log_output.c.obj)
 .rodata.severity
                0x0002a8fc       0x14 zephyr/libzephyr.a(log_output.c.obj)
 .rodata._shell_log
                0x0002a910       0x14 zephyr/libzephyr.a(log_cmds.c.obj)
 .rodata.dsub_backend_name_dynamic
                0x0002a924        0x8 zephyr/libzephyr.a(log_cmds.c.obj)
 .rodata.dsub_module_name
                0x0002a92c        0x8 zephyr/libzephyr.a(log_cmds.c.obj)
 .rodata.dsub_severity_lvl
                0x0002a934        0x8 zephyr/libzephyr.a(log_cmds.c.obj)
 .rodata.severity_lvls
                0x0002a93c       0x14 zephyr/libzephyr.a(log_cmds.c.obj)
 .rodata.severity_lvls_sorted
                0x0002a950       0x14 zephyr/libzephyr.a(log_cmds.c.obj)
 .rodata.shell_sub_log_backend
                0x0002a964       0x78 zephyr/libzephyr.a(log_cmds.c.obj)
 .rodata.shell_sub_log_stat
                0x0002a9dc       0xb4 zephyr/libzephyr.a(log_cmds.c.obj)
 .rodata.sub_log_backend
                0x0002aa90        0x8 zephyr/libzephyr.a(log_cmds.c.obj)
 .rodata.sub_log_stat
                0x0002aa98        0x8 zephyr/libzephyr.a(log_cmds.c.obj)
 .rodata._shell_kernel
                0x0002aaa0       0x14 zephyr/libzephyr.a(kernel_service.c.obj)
 .rodata.shell_sub_kernel
                0x0002aab4       0x8c zephyr/libzephyr.a(kernel_service.c.obj)
 .rodata.shell_sub_kernel_reboot
                0x0002ab40       0x3c zephyr/libzephyr.a(kernel_service.c.obj)
 .rodata.sub_kernel
                0x0002ab7c        0x8 zephyr/libzephyr.a(kernel_service.c.obj)
 .rodata.sub_kernel_reboot
                0x0002ab84        0x8 zephyr/libzephyr.a(kernel_service.c.obj)
 .rodata._shell_device
                0x0002ab8c       0x14 zephyr/libzephyr.a(device_service.c.obj)
 .rodata.levels
                0x0002aba0       0x14 zephyr/libzephyr.a(device_service.c.obj)
 .rodata.shell_sub_device
                0x0002abb4       0x3c zephyr/libzephyr.a(device_service.c.obj)
 .rodata.sub_device
                0x0002abf0        0x8 zephyr/libzephyr.a(device_service.c.obj)
 .rodata._shell_date
                0x0002abf8       0x14 zephyr/libzephyr.a(date_service.c.obj)
 .rodata.shell_sub_date
                0x0002ac0c       0x3c zephyr/libzephyr.a(date_service.c.obj)
 .rodata.sub_date
                0x0002ac48        0x8 zephyr/libzephyr.a(date_service.c.obj)
 .rodata._shell_help
                0x0002ac50       0x14 zephyr/libzephyr.a(shell.c.obj)
 .rodata.shell_transport_uart_shell_uart
                0x0002ac64       0x10 zephyr/libzephyr.a(shell_uart.c.obj)
 .rodata.shell_uart_fprintf
                0x0002ac74       0x14 zephyr/libzephyr.a(shell_uart.c.obj)
 .rodata.shell_uart_log_backend
                0x0002ac88       0x1c zephyr/libzephyr.a(shell_uart.c.obj)
 .rodata.shell_uart_log_output
                0x0002aca4       0x10 zephyr/libzephyr.a(shell_uart.c.obj)
 .rodata.shell_uart_transport_api
                0x0002acb4       0x18 zephyr/libzephyr.a(shell_uart.c.obj)
                0x0002acb4                shell_uart_transport_api
 .rodata._shell_clear
                0x0002accc       0x14 zephyr/libzephyr.a(shell_cmds.c.obj)
 .rodata._shell_history
                0x0002ace0       0x14 zephyr/libzephyr.a(shell_cmds.c.obj)
 .rodata._shell_resize
                0x0002acf4       0x14 zephyr/libzephyr.a(shell_cmds.c.obj)
 .rodata._shell_shell
                0x0002ad08       0x14 zephyr/libzephyr.a(shell_cmds.c.obj)
 .rodata.m_sub_backspace_mode
                0x0002ad1c        0x8 zephyr/libzephyr.a(shell_cmds.c.obj)
 .rodata.m_sub_colors
                0x0002ad24        0x8 zephyr/libzephyr.a(shell_cmds.c.obj)
 .rodata.m_sub_echo
                0x0002ad2c        0x8 zephyr/libzephyr.a(shell_cmds.c.obj)
 .rodata.m_sub_resize
                0x0002ad34        0x8 zephyr/libzephyr.a(shell_cmds.c.obj)
 .rodata.m_sub_shell
                0x0002ad3c        0x8 zephyr/libzephyr.a(shell_cmds.c.obj)
 .rodata.m_sub_shell_stats
                0x0002ad44        0x8 zephyr/libzephyr.a(shell_cmds.c.obj)
 .rodata.shell_m_sub_backspace_mode
                0x0002ad4c       0x3c zephyr/libzephyr.a(shell_cmds.c.obj)
 .rodata.shell_m_sub_colors
                0x0002ad88       0x3c zephyr/libzephyr.a(shell_cmds.c.obj)
 .rodata.shell_m_sub_echo
                0x0002adc4       0x3c zephyr/libzephyr.a(shell_cmds.c.obj)
 .rodata.shell_m_sub_resize
                0x0002ae00       0x28 zephyr/libzephyr.a(shell_cmds.c.obj)
 .rodata.shell_m_sub_shell
                0x0002ae28       0x64 zephyr/libzephyr.a(shell_cmds.c.obj)
 .rodata.shell_m_sub_shell_stats
                0x0002ae8c       0x3c zephyr/libzephyr.a(shell_cmds.c.obj)
 .rodata.log_backend_shell_api
                0x0002aec8       0x1c zephyr/libzephyr.a(shell_log_backend.c.obj)
                0x0002aec8                log_backend_shell_api
 .rodata._shell_nrf_clock_control
                0x0002aee4       0x14 zephyr/libzephyr.a(clock_control_nrf.c.obj)
 .rodata.clock_control_api
                0x0002aef8       0x14 zephyr/libzephyr.a(clock_control_nrf.c.obj)
 .rodata.config
                0x0002af0c       0x30 zephyr/libzephyr.a(clock_control_nrf.c.obj)
 .rodata.shell_subcmds
                0x0002af3c       0x28 zephyr/libzephyr.a(clock_control_nrf.c.obj)
 .rodata.subcmds
                0x0002af64        0x8 zephyr/libzephyr.a(clock_control_nrf.c.obj)
 .rodata.transitions.11813
                0x0002af6c        0xc zephyr/libzephyr.a(clock_control_nrf.c.obj)
 .rodata.static_regions
                0x0002af78        0xc zephyr/arch/arch/arm/core/aarch32/mpu/libarch__arm__core__aarch32__mpu.a(arm_core_mpu.c.obj)
 .rodata.mpu_config
                0x0002af84        0x8 zephyr/soc/arm/common/cortex_m/libsoc__arm__common__cortex_m.a(arm_mpu_regions.c.obj)
                0x0002af84                mpu_config
 .rodata.mpu_regions
                0x0002af8c       0x20 zephyr/soc/arm/common/cortex_m/libsoc__arm__common__cortex_m.a(arm_mpu_regions.c.obj)
 .rodata.gpio_nrfx_drv_api_funcs
                0x0002afac       0x24 zephyr/drivers/gpio/libdrivers__gpio.a(gpio_nrfx.c.obj)
 .rodata.gpio_nrfx_p0_cfg
                0x0002afd0        0xc zephyr/drivers/gpio/libdrivers__gpio.a(gpio_nrfx.c.obj)
 .rodata.gpio_nrfx_p1_cfg
                0x0002afdc        0xc zephyr/drivers/gpio/libdrivers__gpio.a(gpio_nrfx.c.obj)
 .rodata.uart_nrfx_uarte_driver_api
                0x0002afe8       0x4c zephyr/drivers/serial/libdrivers__serial.a(uart_nrfx_uarte.c.obj)
 .rodata.uarte_0z_config
                0x0002b034        0x8 zephyr/drivers/serial/libdrivers__serial.a(uart_nrfx_uarte.c.obj)
 .rodata.entropy_cc3xx_rng_api
                0x0002b03c        0x8 zephyr/drivers/entropy/libdrivers__entropy.a(entropy_cc310.c.obj)
 .rodata.levels.9669
                0x0002b044       0x14 zephyr/kernel/libkernel.a(device.c.obj)
 .rodata._k_neg_eagain
                0x0002b058        0x4 zephyr/kernel/libkernel.a(errno.c.obj)
                0x0002b058                _k_neg_eagain
 .rodata.CSWTCH.424
                0x0002b05c       0x14 zephyr/kernel/libkernel.a(fatal.c.obj)
 .rodata.str1.4
                0x0002b070       0x12 ../mylib/src/libblst.a(server.o)
 .rodata.cmd_public_key.str1.1
                0x0002b082       0x11 app/libapp.a(main.c.obj)
                                 0x16 (size before relaxing)
 .rodata.cmd_get_keys.str1.1
                0x0002b093       0x14 app/libapp.a(main.c.obj)
 .rodata.cmd_keygen.str1.1
                0x0002b0a7       0x45 app/libapp.a(main.c.obj)
                                 0x49 (size before relaxing)
 .rodata.cmd_signature_verification.str1.1
                0x0002b0ec       0x3b app/libapp.a(main.c.obj)
 .rodata.cmd_benchmark.str1.1
                0x0002b127       0xde app/libapp.a(main.c.obj)
 .rodata.cmd_signature_message.str1.1
                0x0002b205       0xde app/libapp.a(main.c.obj)
                                 0x10 (size before relaxing)
 .rodata.str1.1
                0x0002b205      0x136 app/libapp.a(main.c.obj)
                                0x140 (size before relaxing)
 .rodata.str1.1
                0x0002b33b        0x9 app/libapp.a(test_module.c.obj)
 .rodata.dynamic_cmd_get.str1.1
                0x0002b344       0x1b app/libapp.a(dynamic_cmd.c.obj)
 .rodata.cmd_dynamic_show.str1.1
                0x0002b35f       0x42 app/libapp.a(dynamic_cmd.c.obj)
 .rodata.cmd_dynamic_execute.str1.1
                0x0002b3a1       0x2f app/libapp.a(dynamic_cmd.c.obj)
 .rodata.cmd_dynamic_remove.str1.1
                0x0002b3d0       0x38 app/libapp.a(dynamic_cmd.c.obj)
 .rodata.cmd_dynamic_add.str1.1
                0x0002b408       0x97 app/libapp.a(dynamic_cmd.c.obj)
                                 0x9a (size before relaxing)
 .rodata.str1.1
                0x0002b49f      0x18d app/libapp.a(dynamic_cmd.c.obj)
 .rodata.cbvprintf.str1.1
                0x0002b62c        0x6 zephyr/libzephyr.a(cbprintf_complete.c.obj)
 .rodata.sys_reboot.str1.1
                0x0002b632       0x29 zephyr/libzephyr.a(reboot.c.obj)
 .rodata.str1.1
                0x0002b65b        0x4 zephyr/libzephyr.a(soc.c.obj)
 .rodata.enable_logger.str1.1
                0x0002b65f        0x4 zephyr/libzephyr.a(log_core.c.obj)
                                  0x8 (size before relaxing)
 .rodata.z_log_strdup.str1.1
                0x0002b65f       0x1a zephyr/libzephyr.a(log_core.c.obj)
 .rodata.z_impl_log_process.str1.1
                0x0002b679       0x3f zephyr/libzephyr.a(log_core.c.obj)
 .rodata.str1.1
                0x0002b6b8        0x4 zephyr/libzephyr.a(log_core.c.obj)
 .rodata.prefix_print.str1.1
                0x0002b6bc       0x39 zephyr/libzephyr.a(log_output.c.obj)
                                 0x3c (size before relaxing)
 .rodata.postfix_print.str1.1
                0x0002b6f5       0x39 zephyr/libzephyr.a(log_output.c.obj)
                                  0x5 (size before relaxing)
 .rodata.hexdump_line_print.str1.1
                0x0002b6f5        0xc zephyr/libzephyr.a(log_output.c.obj)
                                 0x11 (size before relaxing)
 .rodata.log_output_msg_process.str1.1
                0x0002b701        0x2 zephyr/libzephyr.a(log_output.c.obj)
 .rodata.log_output_dropped_process.str1.1
                0x0002b703        0x2 zephyr/libzephyr.a(log_output.c.obj)
                                  0x3 (size before relaxing)
 .rodata.str1.1
                0x0002b703       0x20 zephyr/libzephyr.a(log_output.c.obj)
 .rodata.postfix.10544
                0x0002b723       0x18 zephyr/libzephyr.a(log_output.c.obj)
 .rodata.prefix.10543
                0x0002b73b        0x5 zephyr/libzephyr.a(log_output.c.obj)
 .rodata.cmd_log_backends_list.str1.1
                0x0002b740       0x32 zephyr/libzephyr.a(log_cmds.c.obj)
 .rodata.log_status.str1.1
                0x0002b772       0x8d zephyr/libzephyr.a(log_cmds.c.obj)
 .rodata.shell_backend_cmd_execute.str1.1
                0x0002b7ff       0x15 zephyr/libzephyr.a(log_cmds.c.obj)
 .rodata.shell_state_precheck.str1.1
                0x0002b814       0x24 zephyr/libzephyr.a(log_cmds.c.obj)
 .rodata.filters_set.str1.1
                0x0002b838       0x45 zephyr/libzephyr.a(log_cmds.c.obj)
 .rodata.log_enable.str1.1
                0x0002b87d       0x16 zephyr/libzephyr.a(log_cmds.c.obj)
 .rodata.str1.1
                0x0002b893      0x191 zephyr/libzephyr.a(log_cmds.c.obj)
                                0x1b5 (size before relaxing)
 .rodata.cmd_kernel_version.str1.1
                0x0002ba24       0x19 zephyr/libzephyr.a(kernel_service.c.obj)
 .rodata.cmd_kernel_uptime.str1.1
                0x0002ba3d        0xf zephyr/libzephyr.a(kernel_service.c.obj)
 .rodata.cmd_kernel_threads.str1.1
                0x0002ba4c       0x29 zephyr/libzephyr.a(kernel_service.c.obj)
 .rodata.cmd_kernel_stacks.str1.1
                0x0002ba75       0x46 zephyr/libzephyr.a(kernel_service.c.obj)
 .rodata.shell_tdata_dump.str1.1
                0x0002babb       0xb4 zephyr/libzephyr.a(kernel_service.c.obj)
                                 0xb8 (size before relaxing)
 .rodata.cmd_kernel_cycles.str1.1
                0x0002bb6f       0x16 zephyr/libzephyr.a(kernel_service.c.obj)
 .rodata.shell_stack_dump.str1.1
                0x0002bb85       0x3a zephyr/libzephyr.a(kernel_service.c.obj)
 .rodata.str1.1
                0x0002bbbf       0xcc zephyr/libzephyr.a(kernel_service.c.obj)
 .rodata.get_device_name.str1.1
                0x0002bc8b        0x5 zephyr/libzephyr.a(device_service.c.obj)
 .rodata.cmd_device_list_visitor.str1.1
                0x0002bc90       0x10 zephyr/libzephyr.a(device_service.c.obj)
 .rodata.cmd_device_list.str1.1
                0x0002bca0       0x25 zephyr/libzephyr.a(device_service.c.obj)
 .rodata.device_get_config_level.str1.1
                0x0002bcc5        0x6 zephyr/libzephyr.a(device_service.c.obj)
 .rodata.cmd_device_levels.str1.1
                0x0002bccb       0x42 zephyr/libzephyr.a(device_service.c.obj)
 .rodata.str1.1
                0x0002bd0d       0x56 zephyr/libzephyr.a(device_service.c.obj)
                                 0x5d (size before relaxing)
 .rodata.date_print.str1.1
                0x0002bd63       0x21 zephyr/libzephyr.a(date_service.c.obj)
 .rodata.get_h_m_s.str1.1
                0x0002bd84       0x2e zephyr/libzephyr.a(date_service.c.obj)
 .rodata.cmd_date_set.str1.1
                0x0002bdb2       0x5c zephyr/libzephyr.a(date_service.c.obj)
 .rodata.str1.1
                0x0002be0e       0x2e zephyr/libzephyr.a(date_service.c.obj)
                                 0x32 (size before relaxing)
 .rodata.shell_internal_help_print.str1.1
                0x0002be3c        0xe zephyr/libzephyr.a(shell.c.obj)
 .rodata.state_set.part.0.str1.1
                0x0002be4a       0x44 zephyr/libzephyr.a(shell.c.obj)
                                 0x47 (size before relaxing)
 .rodata.execute.str1.1
                0x0002be8e       0xb4 zephyr/libzephyr.a(shell.c.obj)
                                 0xc0 (size before relaxing)
 .rodata.shell_process.str1.1
                0x0002bf42        0x6 zephyr/libzephyr.a(shell.c.obj)
                                  0x9 (size before relaxing)
 .rodata.shell_start.str1.1
                0x0002bf48        0x3 zephyr/libzephyr.a(shell.c.obj)
 .rodata.shell_thread.str1.1
                0x0002bf48       0x17 zephyr/libzephyr.a(shell.c.obj)
 .rodata.cmd_help.str1.1
                0x0002bf5f      0x1a1 zephyr/libzephyr.a(shell.c.obj)
 .rodata.str1.1
                0x0002c100       0x19 zephyr/libzephyr.a(shell.c.obj)
                                 0x1e (size before relaxing)
 .rodata.cmd.10672
                0x0002c119        0x4 zephyr/libzephyr.a(shell.c.obj)
 .rodata.cmd.11120
                0x0002c11d        0x4 zephyr/libzephyr.a(shell.c.obj)
 .rodata.cmd.11121
                0x0002c121        0x5 zephyr/libzephyr.a(shell.c.obj)
 .rodata.z_clear_eos.isra.0.str1.1
                0x0002c126        0x3 zephyr/libzephyr.a(shell_ops.c.obj)
 .rodata.z_shell_op_cursor_vert_move.str1.1
                0x0002c126        0x7 zephyr/libzephyr.a(shell_ops.c.obj)
 .rodata.z_shell_op_cond_next_line.str1.1
                0x0002c12d        0x2 zephyr/libzephyr.a(shell_ops.c.obj)
 .rodata.reprint_from_cursor.str1.1
                0x0002c12d        0x2 zephyr/libzephyr.a(shell_ops.c.obj)
 .rodata.z_shell_op_char_insert.str1.1
                0x0002c12d        0x3 zephyr/libzephyr.a(shell_ops.c.obj)
 .rodata.cmd.10610
                0x0002c12d        0x4 zephyr/libzephyr.a(shell_ops.c.obj)
 .rodata.cmd.10614
                0x0002c131        0x3 zephyr/libzephyr.a(shell_ops.c.obj)
 .rodata.cmd.10618
                0x0002c134        0x3 zephyr/libzephyr.a(shell_ops.c.obj)
 .rodata.cmd.10965
                0x0002c137        0x4 zephyr/libzephyr.a(shell_ops.c.obj)
 .rodata.enable_shell_uart.str1.1
                0x0002c13b        0x7 zephyr/libzephyr.a(shell_uart.c.obj)
 .rodata.uart_callback.str1.1
                0x0002c142       0x15 zephyr/libzephyr.a(shell_uart.c.obj)
 .rodata.str1.1
                0x0002c157       0x2d zephyr/libzephyr.a(shell_uart.c.obj)
                                 0x38 (size before relaxing)
 .rodata.formatted_text_print.constprop.0.str1.1
                0x0002c184        0x2 zephyr/libzephyr.a(shell_help.c.obj)
 .rodata.z_shell_help_subcmd_print.str1.1
                0x0002c184        0xa zephyr/libzephyr.a(shell_help.c.obj)
 .rodata.z_shell_help_cmd_print.str1.1
                0x0002c18e        0xa zephyr/libzephyr.a(shell_help.c.obj)
                                  0x5 (size before relaxing)
 .rodata.z_shell_help_request.str1.1
                0x0002c18e        0xa zephyr/libzephyr.a(shell_help.c.obj)
 .rodata.cmd_sep.10873
                0x0002c198        0x4 zephyr/libzephyr.a(shell_help.c.obj)
 .rodata.tabulator.10843
                0x0002c19c        0x3 zephyr/libzephyr.a(shell_help.c.obj)
 .rodata.cmd_clear.str1.1
                0x0002c19f        0x3 zephyr/libzephyr.a(shell_cmds.c.obj)
 .rodata.cmd_shell_stats_show.str1.1
                0x0002c19f        0xf zephyr/libzephyr.a(shell_cmds.c.obj)
 .rodata.cmd_history.str1.1
                0x0002c1ae        0xa zephyr/libzephyr.a(shell_cmds.c.obj)
 .rodata.cmd_echo.str1.1
                0x0002c1ae       0x33 zephyr/libzephyr.a(shell_cmds.c.obj)
                                 0x36 (size before relaxing)
 .rodata.cmd_resize.str1.1
                0x0002c1e1       0x3a zephyr/libzephyr.a(shell_cmds.c.obj)
 .rodata.str1.1
                0x0002c21b      0x3bf zephyr/libzephyr.a(shell_cmds.c.obj)
                                0x3c4 (size before relaxing)
 .rodata.cmd.10592
                0x0002c5da        0x3 zephyr/libzephyr.a(shell_cmds.c.obj)
 .rodata.cmd.10596
                0x0002c5dd        0x3 zephyr/libzephyr.a(shell_cmds.c.obj)
 .rodata.cmd.10817
                0x0002c5e0        0x4 zephyr/libzephyr.a(shell_cmds.c.obj)
 .rodata.cmd.10818
                0x0002c5e4        0x5 zephyr/libzephyr.a(shell_cmds.c.obj)
 .rodata.cmd.10878
                0x0002c5e9        0x6 zephyr/libzephyr.a(shell_cmds.c.obj)
 .rodata.cmd_get_terminal_size.10792
                0x0002c5ef        0x5 zephyr/libzephyr.a(shell_cmds.c.obj)
 .rodata.z_shell_wildcard_process.str1.1
                0x0002c5f4       0x52 zephyr/libzephyr.a(shell_wildcard.c.obj)
 .rodata.str1.1
                0x0002c646        0x6 zephyr/libzephyr.a(power.c.obj)
 .rodata.uart_console_init.str1.1
                0x0002c64c        0x7 zephyr/libzephyr.a(uart_console.c.obj)
 .rodata.cmd_status.str1.1
                0x0002c64c       0x78 zephyr/libzephyr.a(clock_control_nrf.c.obj)
                                 0x79 (size before relaxing)
 .rodata.str1.1
                0x0002c6c4       0x58 zephyr/libzephyr.a(clock_control_nrf.c.obj)
                                 0x6d (size before relaxing)
 .rodata.str1.1
                0x0002c71c        0xa zephyr/libzephyr.a(sys_clock_init.c.obj)
 .rodata.z_arm_fatal_error.str1.1
                0x0002c726       0x9b zephyr/arch/arch/arm/core/aarch32/libarch__arm__core__aarch32.a(fatal.c.obj)
 .rodata.usage_fault.isra.0.str1.1
                0x0002c7c1       0xf7 zephyr/arch/arch/arm/core/aarch32/cortex_m/libarch__arm__core__aarch32__cortex_m.a(fault.c.obj)
 .rodata.mem_manage_fault.isra.0.str1.1
                0x0002c8b8       0xd8 zephyr/arch/arch/arm/core/aarch32/cortex_m/libarch__arm__core__aarch32__cortex_m.a(fault.c.obj)
 .rodata.bus_fault.isra.0.str1.1
                0x0002c990       0x88 zephyr/arch/arch/arm/core/aarch32/cortex_m/libarch__arm__core__aarch32__cortex_m.a(fault.c.obj)
 .rodata.z_arm_fault.str1.1
                0x0002ca18       0xdf zephyr/arch/arch/arm/core/aarch32/cortex_m/libarch__arm__core__aarch32__cortex_m.a(fault.c.obj)
 .rodata.str1.1
                0x0002caf7        0x4 zephyr/arch/arch/arm/core/aarch32/mpu/libarch__arm__core__aarch32__mpu.a(arm_core_mpu.c.obj)
 .rodata.region_allocate_and_init.str1.1
                0x0002cafb       0x26 zephyr/arch/arch/arm/core/aarch32/mpu/libarch__arm__core__aarch32__mpu.a(arm_mpu.c.obj)
 .rodata.mpu_configure_regions_and_partition.constprop.0.str1.1
                0x0002cb21       0x46 zephyr/arch/arch/arm/core/aarch32/mpu/libarch__arm__core__aarch32__mpu.a(arm_mpu.c.obj)
 .rodata.str1.1
                0x0002cb67        0xf zephyr/soc/arm/common/cortex_m/libsoc__arm__common__cortex_m.a(arm_mpu_regions.c.obj)
 .rodata.str1.1
                0x0002cb76        0xe zephyr/drivers/gpio/libdrivers__gpio.a(gpio_nrfx.c.obj)
 .rodata.uarte_0_init.str1.1
                0x0002cb84       0x1f zephyr/drivers/serial/libdrivers__serial.a(uart_nrfx_uarte.c.obj)
 .rodata.str1.1
                0x0002cba3       0x10 zephyr/drivers/serial/libdrivers__serial.a(uart_nrfx_uarte.c.obj)
                                 0x17 (size before relaxing)
 .rodata.str1.1
                0x0002cbb3        0xe zephyr/drivers/entropy/libdrivers__entropy.a(entropy_cc310.c.obj)
 .rodata.k_sys_fatal_error_handler.str1.1
                0x0002cbc1       0x11 modules/nrf/lib/fatal_error/lib..__nrf__lib__fatal_error.a(fatal_error.c.obj)
 .rodata.str1.1
                0x0002cbd2        0xc modules/nrf/lib/fatal_error/lib..__nrf__lib__fatal_error.a(fatal_error.c.obj)
 .rodata.check_ext_api_requests.str1.1
                0x0002cbde       0x5c modules/nrf/subsys/fw_info/lib..__nrf__subsys__fw_info.a(fw_info.c.obj)
 .rodata.z_fatal_error.str1.1
                0x0002cc3a       0x77 zephyr/kernel/libkernel.a(fatal.c.obj)
 .rodata.str1.1
                0x0002ccb1       0x4a zephyr/kernel/libkernel.a(fatal.c.obj)
 .rodata.z_cstart.str1.1
                0x0002ccfb        0xf zephyr/kernel/libkernel.a(init.c.obj)
 .rodata.str1.1
                0x0002cd0a        0x3 zephyr/kernel/libkernel.a(init.c.obj)
 .rodata.k_thread_state_str.str1.1
                0x0002cd0d       0x36 zephyr/kernel/libkernel.a(thread.c.obj)
                                 0x3f (size before relaxing)
 .rodata.k_sys_work_q_init.str1.1
                0x0002cd43        0x9 zephyr/kernel/libkernel.a(system_work_q.c.obj)
 *(SORT_BY_ALIGNMENT(.gnu.linkonce.r.*))
                0x0002cd4c                . = ALIGN (0x4)
                0x0002cd4c                _fw_info_images_start = .
 *(SORT_BY_ALIGNMENT(.fw_info_images))
 .fw_info_images
                0x0002cd4c        0x4 modules/nrf/subsys/fw_info/lib..__nrf__subsys__fw_info.a(fw_info.c.obj)
                0x0002cd4c                self_image
                0x00000001                _fw_info_images_size = ABSOLUTE (((. - _fw_info_images_start) / 0x4))
                0x0002cd50                _ext_apis_start = .
 *(SORT_BY_ALIGNMENT(.ext_apis))
                0x00000000                _ext_apis_size = ABSOLUTE ((. - _ext_apis_start))
                0x0002cd50                _ext_apis_req_start = .
 *(SORT_BY_ALIGNMENT(.ext_apis_req))
                0x00000000                _ext_apis_req_size = ABSOLUTE ((. - _ext_apis_req_start))
                0x0002cd50                . = ALIGN (0x4)
                0x0002cd50                _image_rodata_end = .
                0x0002cd60                . = ALIGN (_region_min_align)
                0x0002cd60                _image_rom_end = .
                0x20008000                . = 0x20008000
                0x20008000                . = ALIGN (_region_min_align)
                0x20008000                _image_ram_start = .

.ramfunc        0x20008000        0x0 load address 0x0002cd50
                0x20008000                . = ALIGN (_region_min_align)
                0x20008000                _ramfunc_ram_start = .
 *(SORT_BY_ALIGNMENT(.ramfunc))
 *(SORT_BY_ALIGNMENT(.ramfunc.*))
                0x20008000                . = ALIGN (_region_min_align)
                0x20008000                _ramfunc_ram_end = .
                0x00000000                _ramfunc_ram_size = (_ramfunc_ram_end - _ramfunc_ram_start)
                0x0002cd50                _ramfunc_rom_start = LOADADDR (.ramfunc)

datas           0x20008000       0xc4 load address 0x0002cd50
                0x20008000                __data_ram_start = .
 *(SORT_BY_ALIGNMENT(.data))
 *(SORT_BY_ALIGNMENT(.data.*))
 .data._char_out
                0x20008000        0x4 zephyr/libzephyr.a(printk.c.obj)
                0x20008000                _char_out
 .data.timestamp_func
                0x20008004        0x4 zephyr/libzephyr.a(log_core.c.obj)
 .data.shell_transport_uart
                0x20008008        0x8 zephyr/libzephyr.a(shell_uart.c.obj)
                0x20008008                shell_transport_uart
 .data.shell_transport_uart_rx_ringbuf
                0x20008010       0x1c zephyr/libzephyr.a(shell_uart.c.obj)
                0x20008010                shell_transport_uart_rx_ringbuf
 .data.shell_transport_uart_tx_ringbuf
                0x2000802c       0x1c zephyr/libzephyr.a(shell_uart.c.obj)
                0x2000802c                shell_transport_uart_tx_ringbuf
 .data.shell_uart_fprintf_shell_fprintf_ctx
                0x20008048        0x8 zephyr/libzephyr.a(shell_uart.c.obj)
 .data.shell_uart_history
                0x20008050       0x10 zephyr/libzephyr.a(shell_uart.c.obj)
 .data.shell_uart_history_ring_buf
                0x20008060       0x1c zephyr/libzephyr.a(shell_uart.c.obj)
 .data.post_ops_done
                0x2000807c        0x4 zephyr/libzephyr.a(power.c.obj)
 .data._stdout_hook
                0x20008080        0x4 zephyr/lib/libc/minimal/liblib__libc__minimal.a(stdout_console.c.obj)
 .data.uarte0_int_driven
                0x20008084       0x14 zephyr/drivers/serial/libdrivers__serial.a(uart_nrfx_uarte.c.obj)
 .data.uarte_0_data
                0x20008098       0x18 zephyr/drivers/serial/libdrivers__serial.a(uart_nrfx_uarte.c.obj)
 .data.SystemCoreClock
                0x200080b0        0x4 modules/hal_nordic/nrfx/libmodules__hal_nordic__nrfx.a(system_nrf5340_application.c.obj)
                0x200080b0                SystemCoreClock
 .data.timeout_list
                0x200080b4        0x8 zephyr/kernel/libkernel.a(timeout.c.obj)
 .data.wait_q.9901
                0x200080bc        0x8 zephyr/kernel/libkernel.a(poll.c.obj)
 *(SORT_BY_ALIGNMENT(.kernel.*))
                0x0002cd50                __data_rom_start = LOADADDR (datas)

devices         0x200080c4       0x90 load address 0x0002ce14
                0x200080c4                __device_start = .
                0x200080c4                __device_PRE_KERNEL_1_start = .
 *(SORT_BY_NAME(SORT_BY_ALIGNMENT(.z_device_PRE_KERNEL_1[0-9]_*)))
 *(SORT_BY_NAME(SORT_BY_ALIGNMENT(.z_device_PRE_KERNEL_1[1-9][0-9]_*)))
 .z_device_PRE_KERNEL_150_
                0x200080c4       0x18 zephyr/libzephyr.a(clock_control_nrf.c.obj)
                0x200080c4                __device_dts_ord_36
 .z_device_PRE_KERNEL_150_
                0x200080dc       0x18 zephyr/drivers/serial/libdrivers__serial.a(uart_nrfx_uarte.c.obj)
                0x200080dc                __device_dts_ord_70
 .z_device_PRE_KERNEL_150_
                0x200080f4       0x18 zephyr/drivers/entropy/libdrivers__entropy.a(entropy_cc310.c.obj)
                0x200080f4                __device_dts_ord_30
                0x2000810c                __device_PRE_KERNEL_2_start = .
 *(SORT_BY_NAME(SORT_BY_ALIGNMENT(.z_device_PRE_KERNEL_2[0-9]_*)))
 .z_device_PRE_KERNEL_20_
                0x2000810c       0x18 zephyr/libzephyr.a(sys_clock_init.c.obj)
 *(SORT_BY_NAME(SORT_BY_ALIGNMENT(.z_device_PRE_KERNEL_2[1-9][0-9]_*)))
                0x20008124                __device_POST_KERNEL_start = .
 *(SORT_BY_NAME(SORT_BY_ALIGNMENT(.z_device_POST_KERNEL[0-9]_*)))
 *(SORT_BY_NAME(SORT_BY_ALIGNMENT(.z_device_POST_KERNEL[1-9][0-9]_*)))
 .z_device_POST_KERNEL40_
                0x20008124       0x30 zephyr/drivers/gpio/libdrivers__gpio.a(gpio_nrfx.c.obj)
                0x20008124                __device_dts_ord_8
                0x2000813c                __device_dts_ord_63
                0x20008154                __device_APPLICATION_start = .
 *(SORT_BY_NAME(SORT_BY_ALIGNMENT(.z_device_APPLICATION[0-9]_*)))
 *(SORT_BY_NAME(SORT_BY_ALIGNMENT(.z_device_APPLICATION[1-9][0-9]_*)))
                0x20008154                __device_SMP_start = .
 *(SORT_BY_NAME(SORT_BY_ALIGNMENT(.z_device_SMP[0-9]_*)))
 *(SORT_BY_NAME(SORT_BY_ALIGNMENT(.z_device_SMP[1-9][0-9]_*)))
                0x20008154                __device_end = .

initshell       0x20008154        0x0 load address 0x0002cea4
                0x20008154                __shell_module_start = .
 *(SORT_BY_ALIGNMENT(.shell_module_*))
                0x20008154                __shell_module_end = .
                0x20008154                __shell_cmd_start = .
 *(SORT_BY_ALIGNMENT(.shell_cmd_*))
                0x20008154                __shell_cmd_end = .

log_dynamic_sections
                0x20008154       0x30 load address 0x0002cea4
                0x20008154                __log_dynamic_start = .
 *(SORT_BY_NAME(SORT_BY_ALIGNMENT(.log_dynamic_*)))
 .log_dynamic_app
                0x20008154        0x4 app/libapp.a(main.c.obj)
                0x20008154                log_dynamic_app
 .log_dynamic_app_test
                0x20008158        0x4 app/libapp.a(test_module.c.obj)
                0x20008158                log_dynamic_app_test
 .log_dynamic_clock_control
                0x2000815c        0x4 zephyr/libzephyr.a(clock_control_nrf.c.obj)
                0x2000815c                log_dynamic_clock_control
 .log_dynamic_fatal_error
                0x20008160        0x4 modules/nrf/lib/fatal_error/lib..__nrf__lib__fatal_error.a(fatal_error.c.obj)
                0x20008160                log_dynamic_fatal_error
 .log_dynamic_log
                0x20008164        0x4 zephyr/libzephyr.a(log_core.c.obj)
                0x20008164                log_dynamic_log
 .log_dynamic_mpu
                0x20008168        0x4 zephyr/arch/arch/arm/core/aarch32/mpu/libarch__arm__core__aarch32__mpu.a(arm_core_mpu.c.obj)
                0x20008168                log_dynamic_mpu
 .log_dynamic_os
                0x2000816c        0x4 zephyr/kernel/libkernel.a(init.c.obj)
                0x2000816c                log_dynamic_os
 .log_dynamic_power
                0x20008170        0x4 zephyr/libzephyr.a(power.c.obj)
                0x20008170                log_dynamic_power
 .log_dynamic_shell_shell_uart
                0x20008174        0x4 zephyr/libzephyr.a(shell_uart.c.obj)
                0x20008174                log_dynamic_shell_shell_uart
 .log_dynamic_shell_uart
                0x20008178        0x4 zephyr/libzephyr.a(shell_uart.c.obj)
                0x20008178                log_dynamic_shell_uart
 .log_dynamic_soc
                0x2000817c        0x4 zephyr/libzephyr.a(soc.c.obj)
                0x2000817c                log_dynamic_soc
 .log_dynamic_uart_nrfx_uarte
                0x20008180        0x4 zephyr/drivers/serial/libdrivers__serial.a(uart_nrfx_uarte.c.obj)
                0x20008180                log_dynamic_uart_nrfx_uarte
                0x20008184                __log_dynamic_end = .

_static_thread_data_area
                0x20008184        0x0 load address 0x0002ced4
                0x20008184                __static_thread_data_list_start = .
 *(SORT_BY_NAME(SORT_BY_ALIGNMENT(.__static_thread_data.static.*)))
                0x20008184                __static_thread_data_list_end = .

k_timer_area    0x20008188       0x38 load address 0x0002ced8
                0x20008188                _k_timer_list_start = .
 *(SORT_BY_NAME(SORT_BY_ALIGNMENT(._k_timer.static.*)))
 ._k_timer.static.my_timer
                0x20008188       0x38 app/libapp.a(main.c.obj)
                0x20008188                my_timer
                0x200081c0                _k_timer_list_end = .

k_mem_slab_area
                0x200081c0        0x0 load address 0x0002cf10
                0x200081c0                _k_mem_slab_list_start = .
 *(SORT_BY_NAME(SORT_BY_ALIGNMENT(._k_mem_slab.static.*)))
                0x200081c0                _k_mem_slab_list_end = .

k_mem_pool_area
                0x200081c0        0x0 load address 0x0002cf10
                0x200081c0                _k_mem_pool_list_start = .
 *(SORT_BY_NAME(SORT_BY_ALIGNMENT(._k_mem_pool.static.*)))
                0x200081c0                _k_mem_pool_list_end = .

k_heap_area     0x200081c0        0x0 load address 0x0002cf10
                0x200081c0                _k_heap_list_start = .
 *(SORT_BY_NAME(SORT_BY_ALIGNMENT(._k_heap.static.*)))
                0x200081c0                _k_heap_list_end = .

k_mutex_area    0x200081c0        0x0 load address 0x0002cf10
                0x200081c0                _k_mutex_list_start = .
 *(SORT_BY_NAME(SORT_BY_ALIGNMENT(._k_mutex.static.*)))
                0x200081c0                _k_mutex_list_end = .

k_stack_area    0x200081c0        0x0 load address 0x0002cf10
                0x200081c0                _k_stack_list_start = .
 *(SORT_BY_NAME(SORT_BY_ALIGNMENT(._k_stack.static.*)))
                0x200081c0                _k_stack_list_end = .

k_msgq_area     0x200081c0       0x30 load address 0x0002cf10
                0x200081c0                _k_msgq_list_start = .
 *(SORT_BY_NAME(SORT_BY_ALIGNMENT(._k_msgq.static.*)))
 ._k_msgq.static.shell_uart_msgq
                0x200081c0       0x30 zephyr/libzephyr.a(shell_uart.c.obj)
                0x200081c0                shell_uart_msgq
                0x200081f0                _k_msgq_list_end = .

k_mbox_area     0x200081f0        0x0 load address 0x0002cf40
                0x200081f0                _k_mbox_list_start = .
 *(SORT_BY_NAME(SORT_BY_ALIGNMENT(._k_mbox.static.*)))
                0x200081f0                _k_mbox_list_end = .

k_pipe_area     0x200081f0        0x0 load address 0x0002cf40
                0x200081f0                _k_pipe_list_start = .
 *(SORT_BY_NAME(SORT_BY_ALIGNMENT(._k_pipe.static.*)))
                0x200081f0                _k_pipe_list_end = .

k_sem_area      0x200081f0       0x18 load address 0x0002cf40
                0x200081f0                _k_sem_list_start = .
 *(SORT_BY_NAME(SORT_BY_ALIGNMENT(._k_sem.static.*)))
 ._k_sem.static.log_process_thread_sem
                0x200081f0       0x18 zephyr/libzephyr.a(log_core.c.obj)
                0x200081f0                log_process_thread_sem
                0x20008208                _k_sem_list_end = .

k_queue_area    0x20008208        0x0 load address 0x0002cf58
                0x20008208                _k_queue_list_start = .
 *(SORT_BY_NAME(SORT_BY_ALIGNMENT(._k_queue.static.*)))
                0x20008208                _k_queue_list_end = .

k_condvar_area  0x20008208        0x0 load address 0x0002cf58
                0x20008208                _k_condvar_list_start = .
 *(SORT_BY_NAME(SORT_BY_ALIGNMENT(._k_condvar.static.*)))
                0x20008208                _k_condvar_list_end = .

_net_buf_pool_area
                0x20008208        0x0 load address 0x0002cf58
                0x20008208                _net_buf_pool_list = .
 *(SORT_BY_NAME(SORT_BY_ALIGNMENT(._net_buf_pool.static.*)))
                0x20008208                __data_ram_end = .

bss             0x20008208     0x14d4
                0x20008208                . = ALIGN (0x4)
                0x20008208                __bss_start = .
                0x20008208                __kernel_ram_start = .
 *(SORT_BY_ALIGNMENT(.bss))
 *(SORT_BY_ALIGNMENT(.bss.*))
 .bss.hash      0x20008208      0x120 app/libapp.a(main.c.obj)
                0x20008208                hash
 .bss.pk2       0x20008328       0x60 app/libapp.a(main.c.obj)
                0x20008328                pk2
 .bss.sig2      0x20008388       0xc0 app/libapp.a(main.c.obj)
                0x20008388                sig2
 .bss.log_process_thread_timer
                0x20008448       0x38 zephyr/libzephyr.a(log_core.c.obj)
 .bss.logging_thread
                0x20008480       0xb8 zephyr/libzephyr.a(log_core.c.obj)
                0x20008480                logging_thread
 .bss.shell_uart_thread
                0x20008538       0xb8 zephyr/libzephyr.a(shell_uart.c.obj)
 .bss.hf_start_tstamp
                0x200085f0        0x8 zephyr/libzephyr.a(clock_control_nrf.c.obj)
 .bss.hf_stop_tstamp
                0x200085f8        0x8 zephyr/libzephyr.a(clock_control_nrf.c.obj)
 .bss.rt_clock_base
                0x20008600       0x10 zephyr/lib/posix/liblib__posix.a(clock.c.obj)
 .bss.z_idle_threads
                0x20008610       0xb8 zephyr/kernel/libkernel.a(init.c.obj)
                0x20008610                z_idle_threads
 .bss.z_main_thread
                0x200086c8       0xb8 zephyr/kernel/libkernel.a(init.c.obj)
                0x200086c8                z_main_thread
 .bss.curr_tick
                0x20008780        0x8 zephyr/kernel/libkernel.a(timeout.c.obj)
 .bss.k_sys_work_q
                0x20008788       0xd8 zephyr/kernel/libkernel.a(system_work_q.c.obj)
                0x20008788                k_sys_work_q
 .bss.keys_counter
                0x20008860        0x4 app/libapp.a(main.c.obj)
                0x20008860                keys_counter
 .bss.buffered_cnt
                0x20008864        0x4 zephyr/libzephyr.a(log_core.c.obj)
 .bss.dropped_cnt
                0x20008868        0x4 zephyr/libzephyr.a(log_core.c.obj)
 .bss.initialized
                0x2000886c        0x4 zephyr/libzephyr.a(log_core.c.obj)
 .bss.list      0x20008870        0x8 zephyr/libzephyr.a(log_core.c.obj)
 .bss.log_strdup_pool
                0x20008878       0x1c zephyr/libzephyr.a(log_core.c.obj)
                0x20008878                log_strdup_pool
 .bss.proc_tid  0x20008894        0x4 zephyr/libzephyr.a(log_core.c.obj)
 .bss.log_msg_pool
                0x20008898       0x1c zephyr/libzephyr.a(log_msg.c.obj)
                0x20008898                log_msg_pool
 .bss.freq      0x200088b4        0x4 zephyr/libzephyr.a(log_output.c.obj)
 .bss.timestamp_div
                0x200088b8        0x4 zephyr/libzephyr.a(log_output.c.obj)
 .bss.backend_cb_shell_uart_backend
                0x200088bc        0x8 zephyr/libzephyr.a(shell_uart.c.obj)
 .bss.shell_transport_uart_ctrl_blk
                0x200088c4       0x14 zephyr/libzephyr.a(shell_uart.c.obj)
 .bss.shell_uart_control_block
                0x200088d8        0x8 zephyr/libzephyr.a(shell_uart.c.obj)
 .bss.shell_uart_ctx
                0x200088e0      0x308 zephyr/libzephyr.a(shell_uart.c.obj)
 .bss.shell_uart_log_output_control_block
                0x20008be8        0xc zephyr/libzephyr.a(shell_uart.c.obj)
 .bss.shell_uart_stats
                0x20008bf4        0x4 zephyr/libzephyr.a(shell_uart.c.obj)
 .bss.pm_notifiers
                0x20008bf8        0x8 zephyr/libzephyr.a(power.c.obj)
 .bss.z_power_state
                0x20008c00        0xc zephyr/libzephyr.a(power.c.obj)
 .bss.uart_console_dev
                0x20008c0c        0x4 zephyr/libzephyr.a(uart_console.c.obj)
 .bss.__devstate_dts_ord_36
                0x20008c10        0x4 zephyr/libzephyr.a(clock_control_nrf.c.obj)
 .bss.cli.11788
                0x20008c14       0x10 zephyr/libzephyr.a(clock_control_nrf.c.obj)
 .bss.data      0x20008c24       0xa0 zephyr/libzephyr.a(clock_control_nrf.c.obj)
 .bss.hfclk_users
                0x20008cc4        0x4 zephyr/libzephyr.a(clock_control_nrf.c.obj)
 .bss.on.11787  0x20008cc8        0x4 zephyr/libzephyr.a(clock_control_nrf.c.obj)
 .bss.__devstate_sys_init_sys_clock_driver_init0
                0x20008ccc        0x4 zephyr/libzephyr.a(sys_clock_init.c.obj)
 .bss.cc_data   0x20008cd0        0x8 zephyr/libzephyr.a(nrf_rtc_timer.c.obj)
 .bss.int_mask  0x20008cd8        0x4 zephyr/libzephyr.a(nrf_rtc_timer.c.obj)
 .bss.last_count
                0x20008cdc        0x4 zephyr/libzephyr.a(nrf_rtc_timer.c.obj)
 .bss.context_buffer
                0x20008ce0       0x88 zephyr/libzephyr.a(secure_services_ns.c.obj)
 .bss.dyn_reg_info
                0x20008d68       0x14 zephyr/arch/arch/arm/core/aarch32/mpu/libarch__arm__core__aarch32__mpu.a(arm_mpu.c.obj)
 .bss.__devstate_dts_ord_63
                0x20008d7c        0x4 zephyr/drivers/gpio/libdrivers__gpio.a(gpio_nrfx.c.obj)
 .bss.__devstate_dts_ord_8
                0x20008d80        0x4 zephyr/drivers/gpio/libdrivers__gpio.a(gpio_nrfx.c.obj)
 .bss.gpio_nrfx_p0_data
                0x20008d84       0x1c zephyr/drivers/gpio/libdrivers__gpio.a(gpio_nrfx.c.obj)
 .bss.gpio_nrfx_p1_data
                0x20008da0       0x1c zephyr/drivers/gpio/libdrivers__gpio.a(gpio_nrfx.c.obj)
 .bss.__devstate_dts_ord_70
                0x20008dbc        0x4 zephyr/drivers/serial/libdrivers__serial.a(uart_nrfx_uarte.c.obj)
 .bss.__devstate_dts_ord_30
                0x20008dc0        0x4 zephyr/drivers/entropy/libdrivers__entropy.a(entropy_cc310.c.obj)
 .bss.m_clock_cb
                0x20008dc4        0x8 modules/hal_nordic/nrfx/libmodules__hal_nordic__nrfx.a(nrfx_clock.c.obj)
 .bss.m_allocated_channels
                0x20008dcc        0x4 modules/hal_nordic/nrfx/libmodules__hal_nordic__nrfx.a(nrfx_dppi.c.obj)
 .bss.m_cb      0x20008dd0       0x60 modules/hal_nordic/nrfx/libmodules__hal_nordic__nrfx.a(nrfx_gpiote.c.obj)
 .bss._kernel   0x20008e30       0x34 zephyr/kernel/libkernel.a(init.c.obj)
                0x20008e30                _kernel
 .bss.pending_current
                0x20008e64        0x4 zephyr/kernel/libkernel.a(sched.c.obj)
 .bss.slice_max_prio
                0x20008e68        0x4 zephyr/kernel/libkernel.a(sched.c.obj)
 .bss.slice_time
                0x20008e6c        0x4 zephyr/kernel/libkernel.a(sched.c.obj)
 .bss.announce_remaining
                0x20008e70        0x4 zephyr/kernel/libkernel.a(timeout.c.obj)
 .bss.pending_cancels
                0x20008e74        0x8 zephyr/kernel/libkernel.a(work.c.obj)
 .bss.msg_bin   0x20008e7c       0x20 app/libapp.a(main.c.obj)
                0x20008e7c                msg_bin
 .bss.public_keys_hex_store
                0x20008e9c      0x3c0 app/libapp.a(main.c.obj)
                0x20008e9c                public_keys_hex_store
 .bss.secret_keys_store
                0x2000925c      0x140 app/libapp.a(main.c.obj)
                0x2000925c                secret_keys_store
 .bss.sk        0x2000939c       0x20 app/libapp.a(main.c.obj)
                0x2000939c                sk
 .bss.dynamic_cmd_buffer
                0x200093bc      0x294 app/libapp.a(dynamic_cmd.c.obj)
 .bss.dynamic_cmd_cnt
                0x20009650        0x1 app/libapp.a(dynamic_cmd.c.obj)
 .bss.backend_attached
                0x20009651        0x1 zephyr/libzephyr.a(log_core.c.obj)
 .bss.panic_mode
                0x20009652        0x1 zephyr/libzephyr.a(log_core.c.obj)
 .bss._ring_buffer_data_shell_transport_uart_rx_ringbuf
                0x20009653       0x40 zephyr/libzephyr.a(shell_uart.c.obj)
 .bss._ring_buffer_data_shell_transport_uart_tx_ringbuf
                0x20009693        0x8 zephyr/libzephyr.a(shell_uart.c.obj)
 .bss.shell_uart_out_buffer
                0x2000969b       0x1e zephyr/libzephyr.a(shell_uart.c.obj)
 .bss.static_regions_num
                0x200096b9        0x1 zephyr/arch/arch/arm/core/aarch32/mpu/libarch__arm__core__aarch32__mpu.a(arm_mpu.c.obj)
 .bss.gpio_initialized.10785
                0x200096ba        0x1 zephyr/drivers/gpio/libdrivers__gpio.a(gpio_nrfx.c.obj)
 .bss.uarte0_tx_buffer
                0x200096bb       0x20 zephyr/drivers/serial/libdrivers__serial.a(uart_nrfx_uarte.c.obj)
 .bss.z_sys_post_kernel
                0x200096db        0x1 zephyr/kernel/libkernel.a(init.c.obj)
                0x200096db                z_sys_post_kernel
 .bss.lock      0x200096dc        0x0 zephyr/kernel/libkernel.a(mutex.c.obj)
 .bss.lock      0x200096dc        0x0 zephyr/kernel/libkernel.a(sem.c.obj)
 .bss.sched_spinlock
                0x200096dc        0x0 zephyr/kernel/libkernel.a(sched.c.obj)
                0x200096dc                sched_spinlock
 .bss.lock      0x200096dc        0x0 zephyr/kernel/libkernel.a(poll.c.obj)
 .bss.lock      0x200096dc        0x0 zephyr/kernel/libkernel.a(work.c.obj)
 *(SORT_BY_ALIGNMENT(COMMON))
 *(SORT_BY_ALIGNMENT(.kernel_bss.*))
                0x200096dc                __bss_end = ALIGN (0x4)

noinit          0x200096e0     0xdb30
 *(SORT_BY_ALIGNMENT(.noinit))
 *(SORT_BY_ALIGNMENT(.noinit.*))
 .noinit."WEST_TOPDIR/zephyr/subsys/logging/log_core.c".1
                0x200096e0      0x300 zephyr/libzephyr.a(log_core.c.obj)
                0x200096e0                logging_stack
 .noinit."WEST_TOPDIR/zephyr/subsys/shell/shell_uart.c".2
                0x200099e0     0xc000 zephyr/libzephyr.a(shell_uart.c.obj)
 .noinit."WEST_TOPDIR/zephyr/kernel/init.c".2
                0x200159e0      0x400 zephyr/kernel/libkernel.a(init.c.obj)
                0x200159e0                z_main_stack
 .noinit."WEST_TOPDIR/zephyr/kernel/init.c".3
                0x20015de0      0x140 zephyr/kernel/libkernel.a(init.c.obj)
 .noinit."WEST_TOPDIR/zephyr/kernel/init.c".4
                0x20015f20      0x800 zephyr/kernel/libkernel.a(init.c.obj)
                0x20015f20                z_interrupt_stacks
 .noinit."WEST_TOPDIR/zephyr/kernel/system_work_q.c".0
                0x20016720      0x400 zephyr/kernel/libkernel.a(system_work_q.c.obj)
 .noinit."WEST_TOPDIR/zephyr/subsys/logging/log_core.c".0
                0x20016b20       0xa0 zephyr/libzephyr.a(log_core.c.obj)
 .noinit."WEST_TOPDIR/zephyr/subsys/logging/log_msg.c".0
                0x20016bc0      0x400 zephyr/libzephyr.a(log_msg.c.obj)
 .noinit."WEST_TOPDIR/zephyr/subsys/shell/shell_uart.c".0
                0x20016fc0       0x50 zephyr/libzephyr.a(shell_uart.c.obj)
 .noinit."WEST_TOPDIR/zephyr/subsys/shell/shell_uart.c".1
                0x20017010      0x200 zephyr/libzephyr.a(shell_uart.c.obj)
 *(SORT_BY_ALIGNMENT(.kernel_noinit.*))
                0x20017210                _image_ram_end = .
                0x20017210                _end = .
                0x20080000                __kernel_ram_end = 0x20080000
                0x00077df8                __kernel_ram_size = (__kernel_ram_end - __kernel_ram_start)

.intList        0x20080000       0x48
 *(SORT_BY_ALIGNMENT(.irq_info*))
 .irq_info      0x20080000        0x8 zephyr/arch/common/libisr_tables.a(isr_tables.c.obj)
                0x20080000                _iheader
 *(SORT_BY_ALIGNMENT(.intList*))
 .intList       0x20080008       0x10 zephyr/libzephyr.a(clock_control_nrf.c.obj)
 .intList       0x20080018       0x10 zephyr/libzephyr.a(nrf_rtc_timer.c.obj)
 .intList       0x20080028       0x10 zephyr/drivers/gpio/libdrivers__gpio.a(gpio_nrfx.c.obj)
 .intList       0x20080038       0x10 zephyr/drivers/serial/libdrivers__serial.a(uart_nrfx_uarte.c.obj)

.stab
 *(SORT_BY_ALIGNMENT(.stab))

.stabstr
 *(SORT_BY_ALIGNMENT(.stabstr))

.stab.excl
 *(SORT_BY_ALIGNMENT(.stab.excl))

.stab.exclstr
 *(SORT_BY_ALIGNMENT(.stab.exclstr))

.stab.index
 *(SORT_BY_ALIGNMENT(.stab.index))

.stab.indexstr
 *(SORT_BY_ALIGNMENT(.stab.indexstr))

.gnu.build.attributes
 *(SORT_BY_ALIGNMENT(.gnu.build.attributes) SORT_BY_ALIGNMENT(.gnu.build.attributes.*))

.comment        0x00000000       0xc6
 *(SORT_BY_ALIGNMENT(.comment))
 .comment       0x00000000       0x79 app/libapp.a(main.c.obj)
                                 0x7a (size before relaxing)
 .comment       0x00000079       0x7a app/libapp.a(test_module.c.obj)
 .comment       0x00000079       0x7a app/libapp.a(dynamic_cmd.c.obj)
 .comment       0x00000079       0x7a app/libapp.a(qsort.c.obj)
 .comment       0x00000079       0x7a zephyr/libzephyr.a(hex.c.obj)
 .comment       0x00000079       0x7a zephyr/libzephyr.a(notify.c.obj)
 .comment       0x00000079       0x7a zephyr/libzephyr.a(printk.c.obj)
 .comment       0x00000079       0x7a zephyr/libzephyr.a(onoff.c.obj)
 .comment       0x00000079       0x7a zephyr/libzephyr.a(thread_entry.c.obj)
 .comment       0x00000079       0x7a zephyr/libzephyr.a(timeutil.c.obj)
 .comment       0x00000079       0x7a zephyr/libzephyr.a(heap.c.obj)
 .comment       0x00000079       0x7a zephyr/libzephyr.a(cbprintf_complete.c.obj)
 .comment       0x00000079       0x7a zephyr/libzephyr.a(ring_buffer.c.obj)
 .comment       0x00000079       0x7a zephyr/libzephyr.a(reboot.c.obj)
 .comment       0x00000079       0x7a zephyr/libzephyr.a(fnmatch.c.obj)
 .comment       0x00000079       0x7a zephyr/libzephyr.a(configs.c.obj)
 .comment       0x00000079       0x7a zephyr/libzephyr.a(soc.c.obj)
 .comment       0x00000079       0x7a zephyr/libzephyr.a(power.c.obj)
 .comment       0x00000079       0x7a zephyr/libzephyr.a(log_list.c.obj)
 .comment       0x00000079       0x7a zephyr/libzephyr.a(log_core.c.obj)
 .comment       0x00000079       0x7a zephyr/libzephyr.a(log_msg.c.obj)
 .comment       0x00000079       0x7a zephyr/libzephyr.a(log_output.c.obj)
 .comment       0x00000079       0x7a zephyr/libzephyr.a(log_cmds.c.obj)
 .comment       0x00000079       0x7a zephyr/libzephyr.a(kernel_service.c.obj)
 .comment       0x00000079       0x7a zephyr/libzephyr.a(device_service.c.obj)
 .comment       0x00000079       0x7a zephyr/libzephyr.a(date_service.c.obj)
 .comment       0x00000079       0x7a zephyr/libzephyr.a(shell.c.obj)
 .comment       0x00000079       0x7a zephyr/libzephyr.a(shell_fprintf.c.obj)
 .comment       0x00000079       0x7a zephyr/libzephyr.a(shell_utils.c.obj)
 .comment       0x00000079       0x7a zephyr/libzephyr.a(shell_ops.c.obj)
 .comment       0x00000079       0x7a zephyr/libzephyr.a(shell_uart.c.obj)
 .comment       0x00000079       0x7a zephyr/libzephyr.a(shell_help.c.obj)
 .comment       0x00000079       0x7a zephyr/libzephyr.a(shell_cmds.c.obj)
 .comment       0x00000079       0x7a zephyr/libzephyr.a(shell_history.c.obj)
 .comment       0x00000079       0x7a zephyr/libzephyr.a(shell_log_backend.c.obj)
 .comment       0x00000079       0x7a zephyr/libzephyr.a(shell_wildcard.c.obj)
 .comment       0x00000079       0x7a zephyr/libzephyr.a(power.c.obj)
 .comment       0x00000079       0x7a zephyr/libzephyr.a(policy_residency.c.obj)
 .comment       0x00000079       0x7a zephyr/libzephyr.a(uart_console.c.obj)
 .comment       0x00000079       0x7a zephyr/libzephyr.a(clock_control_nrf.c.obj)
 .comment       0x00000079       0x7a zephyr/libzephyr.a(sys_clock_init.c.obj)
 .comment       0x00000079       0x7a zephyr/libzephyr.a(nrf_rtc_timer.c.obj)
 .comment       0x00000079       0x7a zephyr/libzephyr.a(secure_services_ns.c.obj)
 .comment       0x00000079       0x7a zephyr/arch/arch/arm/core/aarch32/libarch__arm__core__aarch32.a(swap.c.obj)
 .comment       0x00000079       0x7a zephyr/arch/arch/arm/core/aarch32/libarch__arm__core__aarch32.a(irq_manage.c.obj)
 .comment       0x00000079       0x7a zephyr/arch/arch/arm/core/aarch32/libarch__arm__core__aarch32.a(thread.c.obj)
 .comment       0x00000079       0x7a zephyr/arch/arch/arm/core/aarch32/libarch__arm__core__aarch32.a(fatal.c.obj)
 .comment       0x00000079       0x7a zephyr/arch/arch/arm/core/aarch32/libarch__arm__core__aarch32.a(nmi.c.obj)
 .comment       0x00000079       0x7a zephyr/arch/arch/arm/core/aarch32/libarch__arm__core__aarch32.a(prep_c.c.obj)
 .comment       0x00000079       0x7a zephyr/arch/arch/arm/core/aarch32/cortex_m/libarch__arm__core__aarch32__cortex_m.a(fault.c.obj)
 .comment       0x00000079       0x7a zephyr/arch/arch/arm/core/aarch32/cortex_m/libarch__arm__core__aarch32__cortex_m.a(fpu.c.obj)
 .comment       0x00000079       0x7a zephyr/arch/arch/arm/core/aarch32/cortex_m/libarch__arm__core__aarch32__cortex_m.a(scb.c.obj)
 .comment       0x00000079       0x7a zephyr/arch/arch/arm/core/aarch32/cortex_m/libarch__arm__core__aarch32__cortex_m.a(irq_init.c.obj)
 .comment       0x00000079       0x7a zephyr/arch/arch/arm/core/aarch32/cortex_m/libarch__arm__core__aarch32__cortex_m.a(thread_abort.c.obj)
 .comment       0x00000079       0x7a zephyr/arch/arch/arm/core/aarch32/cortex_m/cmse/libarch__arm__core__aarch32__cortex_m__cmse.a(arm_core_cmse.c.obj)
 .comment       0x00000079       0x7a zephyr/arch/arch/arm/core/aarch32/mpu/libarch__arm__core__aarch32__mpu.a(arm_core_mpu.c.obj)
 .comment       0x00000079       0x7a zephyr/arch/arch/arm/core/aarch32/mpu/libarch__arm__core__aarch32__mpu.a(arm_mpu.c.obj)
 .comment       0x00000079       0x7a zephyr/lib/libc/minimal/liblib__libc__minimal.a(strtol.c.obj)
 .comment       0x00000079       0x7a zephyr/lib/libc/minimal/liblib__libc__minimal.a(strstr.c.obj)
 .comment       0x00000079       0x7a zephyr/lib/libc/minimal/liblib__libc__minimal.a(string.c.obj)
 .comment       0x00000079       0x7a zephyr/lib/libc/minimal/liblib__libc__minimal.a(stdout_console.c.obj)
 .comment       0x00000079       0x7a zephyr/lib/libc/minimal/liblib__libc__minimal.a(sprintf.c.obj)
 .comment       0x00000079       0x7a zephyr/lib/libc/minimal/liblib__libc__minimal.a(fprintf.c.obj)
 .comment       0x00000079       0x7a zephyr/lib/libc/minimal/liblib__libc__minimal.a(gmtime.c.obj)
 .comment       0x00000079       0x7a zephyr/lib/posix/liblib__posix.a(clock.c.obj)
 .comment       0x00000079       0x7a zephyr/soc/arm/common/cortex_m/libsoc__arm__common__cortex_m.a(arm_mpu_regions.c.obj)
 .comment       0x00000079       0x7a zephyr/drivers/gpio/libdrivers__gpio.a(gpio_nrfx.c.obj)
 .comment       0x00000079       0x7a zephyr/drivers/serial/libdrivers__serial.a(uart_nrfx_uarte.c.obj)
 .comment       0x00000079       0x7a zephyr/drivers/entropy/libdrivers__entropy.a(entropy_cc310.c.obj)
 .comment       0x00000079       0x7a modules/nrf/lib/fatal_error/lib..__nrf__lib__fatal_error.a(fatal_error.c.obj)
 .comment       0x00000079       0x7a modules/nrf/subsys/fw_info/lib..__nrf__subsys__fw_info.a(fw_info.c.obj)
 .comment       0x00000079       0x7a modules/hal_nordic/nrfx/libmodules__hal_nordic__nrfx.a(system_nrf5340_application.c.obj)
 .comment       0x00000079       0x7a modules/hal_nordic/nrfx/libmodules__hal_nordic__nrfx.a(nrfx_glue.c.obj)
 .comment       0x00000079       0x7a modules/hal_nordic/nrfx/libmodules__hal_nordic__nrfx.a(nrfx_clock.c.obj)
 .comment       0x00000079       0x7a modules/hal_nordic/nrfx/libmodules__hal_nordic__nrfx.a(nrfx_dppi.c.obj)
 .comment       0x00000079       0x7a modules/hal_nordic/nrfx/libmodules__hal_nordic__nrfx.a(nrfx_gpiote.c.obj)
 .comment       0x00000079       0x7a zephyr/kernel/libkernel.a(device.c.obj)
 .comment       0x00000079       0x7a zephyr/kernel/libkernel.a(errno.c.obj)
 .comment       0x00000079       0x7a zephyr/kernel/libkernel.a(fatal.c.obj)
 .comment       0x00000079       0x7a zephyr/kernel/libkernel.a(init.c.obj)
 .comment       0x00000079       0x7a zephyr/kernel/libkernel.a(mem_slab.c.obj)
 .comment       0x00000079       0x7a zephyr/kernel/libkernel.a(thread.c.obj)
 .comment       0x00000079       0x7a zephyr/kernel/libkernel.a(version.c.obj)
 .comment       0x00000079       0x7a zephyr/kernel/libkernel.a(idle.c.obj)
 .comment       0x00000079       0x7a zephyr/kernel/libkernel.a(msg_q.c.obj)
 .comment       0x00000079       0x7a zephyr/kernel/libkernel.a(mutex.c.obj)
 .comment       0x00000079       0x7a zephyr/kernel/libkernel.a(sem.c.obj)
 .comment       0x00000079       0x7a zephyr/kernel/libkernel.a(sched.c.obj)
 .comment       0x00000079       0x7a zephyr/kernel/libkernel.a(xip.c.obj)
 .comment       0x00000079       0x7a zephyr/kernel/libkernel.a(timeout.c.obj)
 .comment       0x00000079       0x7a zephyr/kernel/libkernel.a(timer.c.obj)
 .comment       0x00000079       0x7a zephyr/kernel/libkernel.a(poll.c.obj)
 .comment       0x00000079       0x7a zephyr/kernel/libkernel.a(banner.c.obj)
 .comment       0x00000079       0x7a zephyr/kernel/libkernel.a(kheap.c.obj)
 .comment       0x00000079       0x7a zephyr/kernel/libkernel.a(system_work_q.c.obj)
 .comment       0x00000079       0x7a zephyr/kernel/libkernel.a(work.c.obj)
 .comment       0x00000079       0x7a zephyr/CMakeFiles/offsets.dir/./arch/arm/core/offsets/offsets.c.obj
 .comment       0x00000079       0x4d ../mylib/src/libblst.a(server.o)
                                 0x4e (size before relaxing)
 .comment       0x000000c6       0x7a zephyr/arch/common/libisr_tables.a(isr_tables.c.obj)

.debug
 *(SORT_BY_ALIGNMENT(.debug))

.line
 *(SORT_BY_ALIGNMENT(.line))

.debug_srcinfo
 *(SORT_BY_ALIGNMENT(.debug_srcinfo))

.debug_sfnames
 *(SORT_BY_ALIGNMENT(.debug_sfnames))

.debug_aranges  0x00000000     0x23c8
 *(SORT_BY_ALIGNMENT(.debug_aranges))
 .debug_aranges
                0x00000000       0x28 zephyr/arch/arch/arm/core/aarch32/libarch__arm__core__aarch32.a(swap_helper.S.obj)
 .debug_aranges
                0x00000028       0x30 zephyr/arch/arch/arm/core/aarch32/libarch__arm__core__aarch32.a(cpu_idle.S.obj)
 .debug_aranges
                0x00000058       0x20 zephyr/arch/arch/arm/core/aarch32/libarch__arm__core__aarch32.a(nmi_on_reset.S.obj)
 .debug_aranges
                0x00000078       0x20 zephyr/arch/arch/arm/core/aarch32/libarch__arm__core__aarch32.a(isr_wrapper.S.obj)
 .debug_aranges
                0x00000098       0x20 zephyr/arch/arch/arm/core/aarch32/cortex_m/libarch__arm__core__aarch32__cortex_m.a(reset.S.obj)
 .debug_aranges
                0x000000b8       0x20 zephyr/arch/arch/arm/core/aarch32/cortex_m/libarch__arm__core__aarch32__cortex_m.a(fault_s.S.obj)
 .debug_aranges
                0x000000d8       0x20 zephyr/arch/arch/arm/core/aarch32/cortex_m/libarch__arm__core__aarch32__cortex_m.a(exc_exit.S.obj)
 .debug_aranges
                0x000000f8       0x60 app/libapp.a(main.c.obj)
 .debug_aranges
                0x00000158       0x20 app/libapp.a(test_module.c.obj)
 .debug_aranges
                0x00000178       0x48 app/libapp.a(dynamic_cmd.c.obj)
 .debug_aranges
                0x000001c0       0x30 app/libapp.a(qsort.c.obj)
 .debug_aranges
                0x000001f0       0x38 zephyr/libzephyr.a(hex.c.obj)
 .debug_aranges
                0x00000228       0x28 zephyr/libzephyr.a(notify.c.obj)
 .debug_aranges
                0x00000250       0x68 zephyr/libzephyr.a(printk.c.obj)
 .debug_aranges
                0x000002b8       0x88 zephyr/libzephyr.a(onoff.c.obj)
 .debug_aranges
                0x00000340       0x20 zephyr/libzephyr.a(thread_entry.c.obj)
 .debug_aranges
                0x00000360       0x58 zephyr/libzephyr.a(timeutil.c.obj)
 .debug_aranges
                0x000003b8       0xa8 zephyr/libzephyr.a(heap.c.obj)
 .debug_aranges
                0x00000460       0x30 zephyr/libzephyr.a(cbprintf_complete.c.obj)
 .debug_aranges
                0x00000490       0x60 zephyr/libzephyr.a(ring_buffer.c.obj)
 .debug_aranges
                0x000004f0       0x20 zephyr/libzephyr.a(reboot.c.obj)
 .debug_aranges
                0x00000510       0x30 zephyr/libzephyr.a(fnmatch.c.obj)
 .debug_aranges
                0x00000540       0x20 zephyr/libzephyr.a(configs.c.obj)
 .debug_aranges
                0x00000560       0x30 zephyr/libzephyr.a(soc.c.obj)
 .debug_aranges
                0x00000590       0x28 zephyr/libzephyr.a(power.c.obj)
 .debug_aranges
                0x000005b8       0x38 zephyr/libzephyr.a(log_list.c.obj)
 .debug_aranges
                0x000005f0      0x1d8 zephyr/libzephyr.a(log_core.c.obj)
 .debug_aranges
                0x000007c8       0x88 zephyr/libzephyr.a(log_msg.c.obj)
 .debug_aranges
                0x00000850       0x98 zephyr/libzephyr.a(log_output.c.obj)
 .debug_aranges
                0x000008e8       0xc8 zephyr/libzephyr.a(log_cmds.c.obj)
 .debug_aranges
                0x000009b0       0x60 zephyr/libzephyr.a(kernel_service.c.obj)
 .debug_aranges
                0x00000a10       0x40 zephyr/libzephyr.a(device_service.c.obj)
 .debug_aranges
                0x00000a50       0x38 zephyr/libzephyr.a(date_service.c.obj)
 .debug_aranges
                0x00000a88      0x150 zephyr/libzephyr.a(shell.c.obj)
 .debug_aranges
                0x00000bd8       0x30 zephyr/libzephyr.a(shell_fprintf.c.obj)
 .debug_aranges
                0x00000c08       0x88 zephyr/libzephyr.a(shell_utils.c.obj)
 .debug_aranges
                0x00000c90      0x110 zephyr/libzephyr.a(shell_ops.c.obj)
 .debug_aranges
                0x00000da0       0x68 zephyr/libzephyr.a(shell_uart.c.obj)
 .debug_aranges
                0x00000e08       0x40 zephyr/libzephyr.a(shell_help.c.obj)
 .debug_aranges
                0x00000e48       0x88 zephyr/libzephyr.a(shell_cmds.c.obj)
 .debug_aranges
                0x00000ed0       0x48 zephyr/libzephyr.a(shell_history.c.obj)
 .debug_aranges
                0x00000f18       0x58 zephyr/libzephyr.a(shell_log_backend.c.obj)
 .debug_aranges
                0x00000f70       0x38 zephyr/libzephyr.a(shell_wildcard.c.obj)
 .debug_aranges
                0x00000fa8       0x60 zephyr/libzephyr.a(power.c.obj)
 .debug_aranges
                0x00001008       0x20 zephyr/libzephyr.a(policy_residency.c.obj)
 .debug_aranges
                0x00001028       0x28 zephyr/libzephyr.a(uart_console.c.obj)
 .debug_aranges
                0x00001050      0x100 zephyr/libzephyr.a(clock_control_nrf.c.obj)
 .debug_aranges
                0x00001150       0x40 zephyr/libzephyr.a(sys_clock_init.c.obj)
 .debug_aranges
                0x00001190       0x98 zephyr/libzephyr.a(nrf_rtc_timer.c.obj)
 .debug_aranges
                0x00001228       0x40 zephyr/libzephyr.a(secure_services_ns.c.obj)
 .debug_aranges
                0x00001268       0x20 zephyr/arch/arch/arm/core/aarch32/libarch__arm__core__aarch32.a(swap.c.obj)
 .debug_aranges
                0x00001288       0x48 zephyr/arch/arch/arm/core/aarch32/libarch__arm__core__aarch32.a(irq_manage.c.obj)
 .debug_aranges
                0x000012d0       0x30 zephyr/arch/arch/arm/core/aarch32/libarch__arm__core__aarch32.a(thread.c.obj)
 .debug_aranges
                0x00001300       0x30 zephyr/arch/arch/arm/core/aarch32/libarch__arm__core__aarch32.a(fatal.c.obj)
 .debug_aranges
                0x00001330       0x20 zephyr/arch/arch/arm/core/aarch32/libarch__arm__core__aarch32.a(nmi.c.obj)
 .debug_aranges
                0x00001350       0x20 zephyr/arch/arch/arm/core/aarch32/libarch__arm__core__aarch32.a(prep_c.c.obj)
 .debug_aranges
                0x00001370       0x40 zephyr/arch/arch/arm/core/aarch32/cortex_m/libarch__arm__core__aarch32__cortex_m.a(fault.c.obj)
 .debug_aranges
                0x000013b0       0x20 zephyr/arch/arch/arm/core/aarch32/cortex_m/libarch__arm__core__aarch32__cortex_m.a(fpu.c.obj)
 .debug_aranges
                0x000013d0       0x28 zephyr/arch/arch/arm/core/aarch32/cortex_m/libarch__arm__core__aarch32__cortex_m.a(scb.c.obj)
 .debug_aranges
                0x000013f8       0x20 zephyr/arch/arch/arm/core/aarch32/cortex_m/libarch__arm__core__aarch32__cortex_m.a(irq_init.c.obj)
 .debug_aranges
                0x00001418       0x20 zephyr/arch/arch/arm/core/aarch32/cortex_m/libarch__arm__core__aarch32__cortex_m.a(thread_abort.c.obj)
 .debug_aranges
                0x00001438       0x40 zephyr/arch/arch/arm/core/aarch32/cortex_m/cmse/libarch__arm__core__aarch32__cortex_m__cmse.a(arm_core_cmse.c.obj)
 .debug_aranges
                0x00001478       0x28 zephyr/arch/arch/arm/core/aarch32/mpu/libarch__arm__core__aarch32__mpu.a(arm_core_mpu.c.obj)
 .debug_aranges
                0x000014a0       0x68 zephyr/arch/arch/arm/core/aarch32/mpu/libarch__arm__core__aarch32__mpu.a(arm_mpu.c.obj)
 .debug_aranges
                0x00001508       0x20 zephyr/lib/libc/minimal/liblib__libc__minimal.a(strtol.c.obj)
 .debug_aranges
                0x00001528       0x20 zephyr/lib/libc/minimal/liblib__libc__minimal.a(strstr.c.obj)
 .debug_aranges
                0x00001548       0x98 zephyr/lib/libc/minimal/liblib__libc__minimal.a(string.c.obj)
 .debug_aranges
                0x000015e0       0x58 zephyr/lib/libc/minimal/liblib__libc__minimal.a(stdout_console.c.obj)
 .debug_aranges
                0x00001638       0x40 zephyr/lib/libc/minimal/liblib__libc__minimal.a(sprintf.c.obj)
 .debug_aranges
                0x00001678       0x38 zephyr/lib/libc/minimal/liblib__libc__minimal.a(fprintf.c.obj)
 .debug_aranges
                0x000016b0       0x28 zephyr/lib/libc/minimal/liblib__libc__minimal.a(gmtime.c.obj)
 .debug_aranges
                0x000016d8       0x30 zephyr/lib/posix/liblib__posix.a(clock.c.obj)
 .debug_aranges
                0x00001708       0x18 zephyr/soc/arm/common/cortex_m/libsoc__arm__common__cortex_m.a(arm_mpu_regions.c.obj)
 .debug_aranges
                0x00001720       0x88 zephyr/drivers/gpio/libdrivers__gpio.a(gpio_nrfx.c.obj)
 .debug_aranges
                0x000017a8       0xe0 zephyr/drivers/serial/libdrivers__serial.a(uart_nrfx_uarte.c.obj)
 .debug_aranges
                0x00001888       0x28 zephyr/drivers/entropy/libdrivers__entropy.a(entropy_cc310.c.obj)
 .debug_aranges
                0x000018b0       0x20 modules/nrf/lib/fatal_error/lib..__nrf__lib__fatal_error.a(fatal_error.c.obj)
 .debug_aranges
                0x000018d0       0x30 modules/nrf/subsys/fw_info/lib..__nrf__subsys__fw_info.a(fw_info.c.obj)
 .debug_aranges
                0x00001900       0x28 modules/hal_nordic/nrfx/libmodules__hal_nordic__nrfx.a(system_nrf5340_application.c.obj)
 .debug_aranges
                0x00001928       0x30 modules/hal_nordic/nrfx/libmodules__hal_nordic__nrfx.a(nrfx_glue.c.obj)
 .debug_aranges
                0x00001958       0x70 modules/hal_nordic/nrfx/libmodules__hal_nordic__nrfx.a(nrfx_clock.c.obj)
 .debug_aranges
                0x000019c8       0x78 modules/hal_nordic/nrfx/libmodules__hal_nordic__nrfx.a(nrfx_dppi.c.obj)
 .debug_aranges
                0x00001a40      0x150 modules/hal_nordic/nrfx/libmodules__hal_nordic__nrfx.a(nrfx_gpiote.c.obj)
 .debug_aranges
                0x00001b90       0x50 zephyr/kernel/libkernel.a(device.c.obj)
 .debug_aranges
                0x00001be0       0x20 zephyr/kernel/libkernel.a(errno.c.obj)
 .debug_aranges
                0x00001c00       0x58 zephyr/kernel/libkernel.a(fatal.c.obj)
 .debug_aranges
                0x00001c58       0x40 zephyr/kernel/libkernel.a(init.c.obj)
 .debug_aranges
                0x00001c98       0x38 zephyr/kernel/libkernel.a(mem_slab.c.obj)
 .debug_aranges
                0x00001cd0       0xb8 zephyr/kernel/libkernel.a(thread.c.obj)
 .debug_aranges
                0x00001d88       0x20 zephyr/kernel/libkernel.a(version.c.obj)
 .debug_aranges
                0x00001da8       0x28 zephyr/kernel/libkernel.a(idle.c.obj)
 .debug_aranges
                0x00001dd0       0x58 zephyr/kernel/libkernel.a(msg_q.c.obj)
 .debug_aranges
                0x00001e28       0x30 zephyr/kernel/libkernel.a(mutex.c.obj)
 .debug_aranges
                0x00001e58       0x38 zephyr/kernel/libkernel.a(sem.c.obj)
 .debug_aranges
                0x00001e90      0x1e8 zephyr/kernel/libkernel.a(sched.c.obj)
 .debug_aranges
                0x00002078       0x20 zephyr/kernel/libkernel.a(xip.c.obj)
 .debug_aranges
                0x00002098       0x98 zephyr/kernel/libkernel.a(timeout.c.obj)
 .debug_aranges
                0x00002130       0x48 zephyr/kernel/libkernel.a(timer.c.obj)
 .debug_aranges
                0x00002178       0xa0 zephyr/kernel/libkernel.a(poll.c.obj)
 .debug_aranges
                0x00002218       0x20 zephyr/kernel/libkernel.a(banner.c.obj)
 .debug_aranges
                0x00002238       0x40 zephyr/kernel/libkernel.a(kheap.c.obj)
 .debug_aranges
                0x00002278       0x20 zephyr/kernel/libkernel.a(system_work_q.c.obj)
 .debug_aranges
                0x00002298       0xf8 zephyr/kernel/libkernel.a(work.c.obj)
 .debug_aranges
                0x00002390       0x20 zephyr/CMakeFiles/offsets.dir/./arch/arm/core/offsets/offsets.c.obj
 .debug_aranges
                0x000023b0       0x18 zephyr/arch/common/libisr_tables.a(isr_tables.c.obj)

.debug_pubnames
 *(SORT_BY_ALIGNMENT(.debug_pubnames))

.debug_info     0x00000000    0xd0f45
 *(SORT_BY_ALIGNMENT(.debug_info) SORT_BY_ALIGNMENT(.gnu.linkonce.wi.*))
 .debug_info    0x00000000     0x3c82 app/libapp.a(main.c.obj)
 .debug_info    0x00003c82     0x10f3 app/libapp.a(test_module.c.obj)
 .debug_info    0x00004d75     0x2981 app/libapp.a(dynamic_cmd.c.obj)
 .debug_info    0x000076f6      0x667 app/libapp.a(qsort.c.obj)
 .debug_info    0x00007d5d      0x2d6 zephyr/libzephyr.a(hex.c.obj)
 .debug_info    0x00008033      0xb44 zephyr/libzephyr.a(notify.c.obj)
 .debug_info    0x00008b77      0xdaa zephyr/libzephyr.a(printk.c.obj)
 .debug_info    0x00009921     0x295e zephyr/libzephyr.a(onoff.c.obj)
 .debug_info    0x0000c27f      0x9cc zephyr/libzephyr.a(thread_entry.c.obj)
 .debug_info    0x0000cc4b      0x754 zephyr/libzephyr.a(timeutil.c.obj)
 .debug_info    0x0000d39f     0x2e10 zephyr/libzephyr.a(heap.c.obj)
 .debug_info    0x000101af     0x101c zephyr/libzephyr.a(cbprintf_complete.c.obj)
 .debug_info    0x000111cb     0x1399 zephyr/libzephyr.a(ring_buffer.c.obj)
 .debug_info    0x00012564      0x9b3 zephyr/libzephyr.a(reboot.c.obj)
 .debug_info    0x00012f17      0x482 zephyr/libzephyr.a(fnmatch.c.obj)
 .debug_info    0x00013399       0x38 zephyr/libzephyr.a(configs.c.obj)
 .debug_info    0x000133d1      0xf71 zephyr/libzephyr.a(soc.c.obj)
 .debug_info    0x00014342     0x1ea2 zephyr/libzephyr.a(power.c.obj)
 .debug_info    0x000161e4      0x4d3 zephyr/libzephyr.a(log_list.c.obj)
 .debug_info    0x000166b7     0x5bab zephyr/libzephyr.a(log_core.c.obj)
 .debug_info    0x0001c262     0x2071 zephyr/libzephyr.a(log_msg.c.obj)
 .debug_info    0x0001e2d3     0x3250 zephyr/libzephyr.a(log_output.c.obj)
 .debug_info    0x00021523     0x38b8 zephyr/libzephyr.a(log_cmds.c.obj)
 .debug_info    0x00024ddb     0x3289 zephyr/libzephyr.a(kernel_service.c.obj)
 .debug_info    0x00028064     0x2f5a zephyr/libzephyr.a(device_service.c.obj)
 .debug_info    0x0002afbe     0x28dd zephyr/libzephyr.a(date_service.c.obj)
 .debug_info    0x0002d89b     0x6f99 zephyr/libzephyr.a(shell.c.obj)
 .debug_info    0x00034834     0x22af zephyr/libzephyr.a(shell_fprintf.c.obj)
 .debug_info    0x00036ae3     0x3478 zephyr/libzephyr.a(shell_utils.c.obj)
 .debug_info    0x00039f5b     0x3b24 zephyr/libzephyr.a(shell_ops.c.obj)
 .debug_info    0x0003da7f     0x4640 zephyr/libzephyr.a(shell_uart.c.obj)
 .debug_info    0x000420bf     0x2a07 zephyr/libzephyr.a(shell_help.c.obj)
 .debug_info    0x00044ac6     0x3431 zephyr/libzephyr.a(shell_cmds.c.obj)
 .debug_info    0x00047ef7     0x1308 zephyr/libzephyr.a(shell_history.c.obj)
 .debug_info    0x000491ff     0x329b zephyr/libzephyr.a(shell_log_backend.c.obj)
 .debug_info    0x0004c49a     0x26c0 zephyr/libzephyr.a(shell_wildcard.c.obj)
 .debug_info    0x0004eb5a     0x1f39 zephyr/libzephyr.a(power.c.obj)
 .debug_info    0x00050a93     0x1ef9 zephyr/libzephyr.a(policy_residency.c.obj)
 .debug_info    0x0005298c     0x1398 zephyr/libzephyr.a(uart_console.c.obj)
 .debug_info    0x00053d24     0x64fa zephyr/libzephyr.a(clock_control_nrf.c.obj)
 .debug_info    0x0005a21e     0x1011 zephyr/libzephyr.a(sys_clock_init.c.obj)
 .debug_info    0x0005b22f     0x2b47 zephyr/libzephyr.a(nrf_rtc_timer.c.obj)
 .debug_info    0x0005dd76      0xbed zephyr/libzephyr.a(secure_services_ns.c.obj)
 .debug_info    0x0005e963      0xca2 zephyr/arch/arch/arm/core/aarch32/libarch__arm__core__aarch32.a(swap.c.obj)
 .debug_info    0x0005f605     0x1102 zephyr/arch/arch/arm/core/aarch32/libarch__arm__core__aarch32.a(irq_manage.c.obj)
 .debug_info    0x00060707      0xbe2 zephyr/arch/arch/arm/core/aarch32/libarch__arm__core__aarch32.a(thread.c.obj)
 .debug_info    0x000612e9     0x2f85 zephyr/arch/arch/arm/core/aarch32/libarch__arm__core__aarch32.a(fatal.c.obj)
 .debug_info    0x0006426e      0x8ec zephyr/arch/arch/arm/core/aarch32/libarch__arm__core__aarch32.a(nmi.c.obj)
 .debug_info    0x00064b5a      0xf21 zephyr/arch/arch/arm/core/aarch32/libarch__arm__core__aarch32.a(prep_c.c.obj)
 .debug_info    0x00065a7b       0x22 zephyr/arch/arch/arm/core/aarch32/libarch__arm__core__aarch32.a(swap_helper.S.obj)
 .debug_info    0x00065a9d       0x22 zephyr/arch/arch/arm/core/aarch32/libarch__arm__core__aarch32.a(cpu_idle.S.obj)
 .debug_info    0x00065abf       0x26 zephyr/arch/arch/arm/core/aarch32/libarch__arm__core__aarch32.a(nmi_on_reset.S.obj)
 .debug_info    0x00065ae5       0x26 zephyr/arch/arch/arm/core/aarch32/libarch__arm__core__aarch32.a(isr_wrapper.S.obj)
 .debug_info    0x00065b0b       0x26 zephyr/arch/arch/arm/core/aarch32/cortex_m/libarch__arm__core__aarch32__cortex_m.a(reset.S.obj)
 .debug_info    0x00065b31       0x26 zephyr/arch/arch/arm/core/aarch32/cortex_m/libarch__arm__core__aarch32__cortex_m.a(fault_s.S.obj)
 .debug_info    0x00065b57       0x26 zephyr/arch/arch/arm/core/aarch32/cortex_m/libarch__arm__core__aarch32__cortex_m.a(exc_exit.S.obj)
 .debug_info    0x00065b7d     0xa863 zephyr/arch/arch/arm/core/aarch32/cortex_m/libarch__arm__core__aarch32__cortex_m.a(fault.c.obj)
 .debug_info    0x000703e0      0x958 zephyr/arch/arch/arm/core/aarch32/cortex_m/libarch__arm__core__aarch32__cortex_m.a(fpu.c.obj)
 .debug_info    0x00070d38      0xfb9 zephyr/arch/arch/arm/core/aarch32/cortex_m/libarch__arm__core__aarch32__cortex_m.a(scb.c.obj)
 .debug_info    0x00071cf1      0x812 zephyr/arch/arch/arm/core/aarch32/cortex_m/libarch__arm__core__aarch32__cortex_m.a(irq_init.c.obj)
 .debug_info    0x00072503      0xce8 zephyr/arch/arch/arm/core/aarch32/cortex_m/libarch__arm__core__aarch32__cortex_m.a(thread_abort.c.obj)
 .debug_info    0x000731eb      0xe10 zephyr/arch/arch/arm/core/aarch32/cortex_m/cmse/libarch__arm__core__aarch32__cortex_m__cmse.a(arm_core_cmse.c.obj)
 .debug_info    0x00073ffb     0x1268 zephyr/arch/arch/arm/core/aarch32/mpu/libarch__arm__core__aarch32__mpu.a(arm_core_mpu.c.obj)
 .debug_info    0x00075263     0x5d11 zephyr/arch/arch/arm/core/aarch32/mpu/libarch__arm__core__aarch32__mpu.a(arm_mpu.c.obj)
 .debug_info    0x0007af74      0x2ba zephyr/lib/libc/minimal/liblib__libc__minimal.a(strtol.c.obj)
 .debug_info    0x0007b22e      0x11a zephyr/lib/libc/minimal/liblib__libc__minimal.a(strstr.c.obj)
 .debug_info    0x0007b348      0x7bb zephyr/lib/libc/minimal/liblib__libc__minimal.a(string.c.obj)
 .debug_info    0x0007bb03      0x692 zephyr/lib/libc/minimal/liblib__libc__minimal.a(stdout_console.c.obj)
 .debug_info    0x0007c195      0x41c zephyr/lib/libc/minimal/liblib__libc__minimal.a(sprintf.c.obj)
 .debug_info    0x0007c5b1      0x2a1 zephyr/lib/libc/minimal/liblib__libc__minimal.a(fprintf.c.obj)
 .debug_info    0x0007c852      0x351 zephyr/lib/libc/minimal/liblib__libc__minimal.a(gmtime.c.obj)
 .debug_info    0x0007cba3      0xece zephyr/lib/posix/liblib__posix.a(clock.c.obj)
 .debug_info    0x0007da71      0x217 zephyr/soc/arm/common/cortex_m/libsoc__arm__common__cortex_m.a(arm_mpu_regions.c.obj)
 .debug_info    0x0007dc88     0x3777 zephyr/drivers/gpio/libdrivers__gpio.a(gpio_nrfx.c.obj)
 .debug_info    0x000813ff     0x53d9 zephyr/drivers/serial/libdrivers__serial.a(uart_nrfx_uarte.c.obj)
 .debug_info    0x000867d8     0x102e zephyr/drivers/entropy/libdrivers__entropy.a(entropy_cc310.c.obj)
 .debug_info    0x00087806     0x1d4f modules/nrf/lib/fatal_error/lib..__nrf__lib__fatal_error.a(fatal_error.c.obj)
 .debug_info    0x00089555     0x11e7 modules/nrf/subsys/fw_info/lib..__nrf__subsys__fw_info.a(fw_info.c.obj)
 .debug_info    0x0008a73c      0x5eb modules/hal_nordic/nrfx/libmodules__hal_nordic__nrfx.a(system_nrf5340_application.c.obj)
 .debug_info    0x0008ad27      0xa51 modules/hal_nordic/nrfx/libmodules__hal_nordic__nrfx.a(nrfx_glue.c.obj)
 .debug_info    0x0008b778     0x5dce modules/hal_nordic/nrfx/libmodules__hal_nordic__nrfx.a(nrfx_clock.c.obj)
 .debug_info    0x00091546     0x7a54 modules/hal_nordic/nrfx/libmodules__hal_nordic__nrfx.a(nrfx_dppi.c.obj)
 .debug_info    0x00098f9a     0xb29a modules/hal_nordic/nrfx/libmodules__hal_nordic__nrfx.a(nrfx_gpiote.c.obj)
 .debug_info    0x000a4234     0x12fa zephyr/kernel/libkernel.a(device.c.obj)
 .debug_info    0x000a552e      0x954 zephyr/kernel/libkernel.a(errno.c.obj)
 .debug_info    0x000a5e82     0x352d zephyr/kernel/libkernel.a(fatal.c.obj)
 .debug_info    0x000a93af     0x2b2b zephyr/kernel/libkernel.a(init.c.obj)
 .debug_info    0x000abeda     0x1116 zephyr/kernel/libkernel.a(mem_slab.c.obj)
 .debug_info    0x000acff0     0x3386 zephyr/kernel/libkernel.a(thread.c.obj)
 .debug_info    0x000b0376       0x95 zephyr/kernel/libkernel.a(version.c.obj)
 .debug_info    0x000b040b     0x10d0 zephyr/kernel/libkernel.a(idle.c.obj)
 .debug_info    0x000b14db     0x15d2 zephyr/kernel/libkernel.a(msg_q.c.obj)
 .debug_info    0x000b2aad     0x74f7 zephyr/kernel/libkernel.a(mutex.c.obj)
 .debug_info    0x000b9fa4     0x106d zephyr/kernel/libkernel.a(sem.c.obj)
 .debug_info    0x000bb011     0x6c35 zephyr/kernel/libkernel.a(sched.c.obj)
 .debug_info    0x000c1c46      0xa6f zephyr/kernel/libkernel.a(xip.c.obj)
 .debug_info    0x000c26b5     0x22c4 zephyr/kernel/libkernel.a(timeout.c.obj)
 .debug_info    0x000c4979     0x12ff zephyr/kernel/libkernel.a(timer.c.obj)
 .debug_info    0x000c5c78     0x2d12 zephyr/kernel/libkernel.a(poll.c.obj)
 .debug_info    0x000c898a      0xdf1 zephyr/kernel/libkernel.a(banner.c.obj)
 .debug_info    0x000c977b     0x1085 zephyr/kernel/libkernel.a(kheap.c.obj)
 .debug_info    0x000ca800      0xa79 zephyr/kernel/libkernel.a(system_work_q.c.obj)
 .debug_info    0x000cb279     0x4c6f zephyr/kernel/libkernel.a(work.c.obj)
 .debug_info    0x000cfee8      0xe05 zephyr/CMakeFiles/offsets.dir/./arch/arm/core/offsets/offsets.c.obj
 .debug_info    0x000d0ced      0x258 zephyr/arch/common/libisr_tables.a(isr_tables.c.obj)

.debug_abbrev   0x00000000    0x170cf
 *(SORT_BY_ALIGNMENT(.debug_abbrev))
 .debug_abbrev  0x00000000      0x638 app/libapp.a(main.c.obj)
 .debug_abbrev  0x00000638      0x26f app/libapp.a(test_module.c.obj)
 .debug_abbrev  0x000008a7      0x47a app/libapp.a(dynamic_cmd.c.obj)
 .debug_abbrev  0x00000d21      0x1b6 app/libapp.a(qsort.c.obj)
 .debug_abbrev  0x00000ed7      0x15c zephyr/libzephyr.a(hex.c.obj)
 .debug_abbrev  0x00001033      0x2d0 zephyr/libzephyr.a(notify.c.obj)
 .debug_abbrev  0x00001303      0x340 zephyr/libzephyr.a(printk.c.obj)
 .debug_abbrev  0x00001643      0x571 zephyr/libzephyr.a(onoff.c.obj)
 .debug_abbrev  0x00001bb4      0x24f zephyr/libzephyr.a(thread_entry.c.obj)
 .debug_abbrev  0x00001e03      0x208 zephyr/libzephyr.a(timeutil.c.obj)
 .debug_abbrev  0x0000200b      0x4b5 zephyr/libzephyr.a(heap.c.obj)
 .debug_abbrev  0x000024c0      0x40e zephyr/libzephyr.a(cbprintf_complete.c.obj)
 .debug_abbrev  0x000028ce      0x40f zephyr/libzephyr.a(ring_buffer.c.obj)
 .debug_abbrev  0x00002cdd      0x24d zephyr/libzephyr.a(reboot.c.obj)
 .debug_abbrev  0x00002f2a      0x1ee zephyr/libzephyr.a(fnmatch.c.obj)
 .debug_abbrev  0x00003118       0x2e zephyr/libzephyr.a(configs.c.obj)
 .debug_abbrev  0x00003146      0x389 zephyr/libzephyr.a(soc.c.obj)
 .debug_abbrev  0x000034cf      0x328 zephyr/libzephyr.a(power.c.obj)
 .debug_abbrev  0x000037f7      0x189 zephyr/libzephyr.a(log_list.c.obj)
 .debug_abbrev  0x00003980      0x8c1 zephyr/libzephyr.a(log_core.c.obj)
 .debug_abbrev  0x00004241      0x5bc zephyr/libzephyr.a(log_msg.c.obj)
 .debug_abbrev  0x000047fd      0x5f5 zephyr/libzephyr.a(log_output.c.obj)
 .debug_abbrev  0x00004df2      0x679 zephyr/libzephyr.a(log_cmds.c.obj)
 .debug_abbrev  0x0000546b      0x4f4 zephyr/libzephyr.a(kernel_service.c.obj)
 .debug_abbrev  0x0000595f      0x45d zephyr/libzephyr.a(device_service.c.obj)
 .debug_abbrev  0x00005dbc      0x457 zephyr/libzephyr.a(date_service.c.obj)
 .debug_abbrev  0x00006213      0x7a8 zephyr/libzephyr.a(shell.c.obj)
 .debug_abbrev  0x000069bb      0x396 zephyr/libzephyr.a(shell_fprintf.c.obj)
 .debug_abbrev  0x00006d51      0x696 zephyr/libzephyr.a(shell_utils.c.obj)
 .debug_abbrev  0x000073e7      0x6f9 zephyr/libzephyr.a(shell_ops.c.obj)
 .debug_abbrev  0x00007ae0      0x72f zephyr/libzephyr.a(shell_uart.c.obj)
 .debug_abbrev  0x0000820f      0x515 zephyr/libzephyr.a(shell_help.c.obj)
 .debug_abbrev  0x00008724      0x5ec zephyr/libzephyr.a(shell_cmds.c.obj)
 .debug_abbrev  0x00008d10      0x3f4 zephyr/libzephyr.a(shell_history.c.obj)
 .debug_abbrev  0x00009104      0x648 zephyr/libzephyr.a(shell_log_backend.c.obj)
 .debug_abbrev  0x0000974c      0x47e zephyr/libzephyr.a(shell_wildcard.c.obj)
 .debug_abbrev  0x00009bca      0x59e zephyr/libzephyr.a(power.c.obj)
 .debug_abbrev  0x0000a168      0x2bc zephyr/libzephyr.a(policy_residency.c.obj)
 .debug_abbrev  0x0000a424      0x396 zephyr/libzephyr.a(uart_console.c.obj)
 .debug_abbrev  0x0000a7ba      0x85f zephyr/libzephyr.a(clock_control_nrf.c.obj)
 .debug_abbrev  0x0000b019      0x28d zephyr/libzephyr.a(sys_clock_init.c.obj)
 .debug_abbrev  0x0000b2a6      0x5dd zephyr/libzephyr.a(nrf_rtc_timer.c.obj)
 .debug_abbrev  0x0000b883      0x24e zephyr/libzephyr.a(secure_services_ns.c.obj)
 .debug_abbrev  0x0000bad1      0x23d zephyr/arch/arch/arm/core/aarch32/libarch__arm__core__aarch32.a(swap.c.obj)
 .debug_abbrev  0x0000bd0e      0x345 zephyr/arch/arch/arm/core/aarch32/libarch__arm__core__aarch32.a(irq_manage.c.obj)
 .debug_abbrev  0x0000c053      0x2a6 zephyr/arch/arch/arm/core/aarch32/libarch__arm__core__aarch32.a(thread.c.obj)
 .debug_abbrev  0x0000c2f9      0x3be zephyr/arch/arch/arm/core/aarch32/libarch__arm__core__aarch32.a(fatal.c.obj)
 .debug_abbrev  0x0000c6b7      0x1b2 zephyr/arch/arch/arm/core/aarch32/libarch__arm__core__aarch32.a(nmi.c.obj)
 .debug_abbrev  0x0000c869      0x2db zephyr/arch/arch/arm/core/aarch32/libarch__arm__core__aarch32.a(prep_c.c.obj)
 .debug_abbrev  0x0000cb44       0x12 zephyr/arch/arch/arm/core/aarch32/libarch__arm__core__aarch32.a(swap_helper.S.obj)
 .debug_abbrev  0x0000cb56       0x12 zephyr/arch/arch/arm/core/aarch32/libarch__arm__core__aarch32.a(cpu_idle.S.obj)
 .debug_abbrev  0x0000cb68       0x14 zephyr/arch/arch/arm/core/aarch32/libarch__arm__core__aarch32.a(nmi_on_reset.S.obj)
 .debug_abbrev  0x0000cb7c       0x14 zephyr/arch/arch/arm/core/aarch32/libarch__arm__core__aarch32.a(isr_wrapper.S.obj)
 .debug_abbrev  0x0000cb90       0x14 zephyr/arch/arch/arm/core/aarch32/cortex_m/libarch__arm__core__aarch32__cortex_m.a(reset.S.obj)
 .debug_abbrev  0x0000cba4       0x14 zephyr/arch/arch/arm/core/aarch32/cortex_m/libarch__arm__core__aarch32__cortex_m.a(fault_s.S.obj)
 .debug_abbrev  0x0000cbb8       0x14 zephyr/arch/arch/arm/core/aarch32/cortex_m/libarch__arm__core__aarch32__cortex_m.a(exc_exit.S.obj)
 .debug_abbrev  0x0000cbcc      0x4b7 zephyr/arch/arch/arm/core/aarch32/cortex_m/libarch__arm__core__aarch32__cortex_m.a(fault.c.obj)
 .debug_abbrev  0x0000d083      0x1ba zephyr/arch/arch/arm/core/aarch32/cortex_m/libarch__arm__core__aarch32__cortex_m.a(fpu.c.obj)
 .debug_abbrev  0x0000d23d      0x2bf zephyr/arch/arch/arm/core/aarch32/cortex_m/libarch__arm__core__aarch32__cortex_m.a(scb.c.obj)
 .debug_abbrev  0x0000d4fc      0x1ec zephyr/arch/arch/arm/core/aarch32/cortex_m/libarch__arm__core__aarch32__cortex_m.a(irq_init.c.obj)
 .debug_abbrev  0x0000d6e8      0x289 zephyr/arch/arch/arm/core/aarch32/cortex_m/libarch__arm__core__aarch32__cortex_m.a(thread_abort.c.obj)
 .debug_abbrev  0x0000d971      0x27f zephyr/arch/arch/arm/core/aarch32/cortex_m/cmse/libarch__arm__core__aarch32__cortex_m__cmse.a(arm_core_cmse.c.obj)
 .debug_abbrev  0x0000dbf0      0x291 zephyr/arch/arch/arm/core/aarch32/mpu/libarch__arm__core__aarch32__mpu.a(arm_core_mpu.c.obj)
 .debug_abbrev  0x0000de81      0x5e8 zephyr/arch/arch/arm/core/aarch32/mpu/libarch__arm__core__aarch32__mpu.a(arm_mpu.c.obj)
 .debug_abbrev  0x0000e469      0x123 zephyr/lib/libc/minimal/liblib__libc__minimal.a(strtol.c.obj)
 .debug_abbrev  0x0000e58c       0xda zephyr/lib/libc/minimal/liblib__libc__minimal.a(strstr.c.obj)
 .debug_abbrev  0x0000e666      0x191 zephyr/lib/libc/minimal/liblib__libc__minimal.a(string.c.obj)
 .debug_abbrev  0x0000e7f7      0x255 zephyr/lib/libc/minimal/liblib__libc__minimal.a(stdout_console.c.obj)
 .debug_abbrev  0x0000ea4c      0x1b2 zephyr/lib/libc/minimal/liblib__libc__minimal.a(sprintf.c.obj)
 .debug_abbrev  0x0000ebfe      0x127 zephyr/lib/libc/minimal/liblib__libc__minimal.a(fprintf.c.obj)
 .debug_abbrev  0x0000ed25      0x197 zephyr/lib/libc/minimal/liblib__libc__minimal.a(gmtime.c.obj)
 .debug_abbrev  0x0000eebc      0x3c3 zephyr/lib/posix/liblib__posix.a(clock.c.obj)
 .debug_abbrev  0x0000f27f      0x108 zephyr/soc/arm/common/cortex_m/libsoc__arm__common__cortex_m.a(arm_mpu_regions.c.obj)
 .debug_abbrev  0x0000f387      0x5e3 zephyr/drivers/gpio/libdrivers__gpio.a(gpio_nrfx.c.obj)
 .debug_abbrev  0x0000f96a      0x652 zephyr/drivers/serial/libdrivers__serial.a(uart_nrfx_uarte.c.obj)
 .debug_abbrev  0x0000ffbc      0x281 zephyr/drivers/entropy/libdrivers__entropy.a(entropy_cc310.c.obj)
 .debug_abbrev  0x0001023d      0x3a1 modules/nrf/lib/fatal_error/lib..__nrf__lib__fatal_error.a(fatal_error.c.obj)
 .debug_abbrev  0x000105de      0x3ff modules/nrf/subsys/fw_info/lib..__nrf__subsys__fw_info.a(fw_info.c.obj)
 .debug_abbrev  0x000109dd      0x121 modules/hal_nordic/nrfx/libmodules__hal_nordic__nrfx.a(system_nrf5340_application.c.obj)
 .debug_abbrev  0x00010afe      0x25b modules/hal_nordic/nrfx/libmodules__hal_nordic__nrfx.a(nrfx_glue.c.obj)
 .debug_abbrev  0x00010d59      0x567 modules/hal_nordic/nrfx/libmodules__hal_nordic__nrfx.a(nrfx_clock.c.obj)
 .debug_abbrev  0x000112c0      0x465 modules/hal_nordic/nrfx/libmodules__hal_nordic__nrfx.a(nrfx_dppi.c.obj)
 .debug_abbrev  0x00011725      0x680 modules/hal_nordic/nrfx/libmodules__hal_nordic__nrfx.a(nrfx_gpiote.c.obj)
 .debug_abbrev  0x00011da5      0x3e5 zephyr/kernel/libkernel.a(device.c.obj)
 .debug_abbrev  0x0001218a      0x1b7 zephyr/kernel/libkernel.a(errno.c.obj)
 .debug_abbrev  0x00012341      0x50a zephyr/kernel/libkernel.a(fatal.c.obj)
 .debug_abbrev  0x0001284b      0x62c zephyr/kernel/libkernel.a(init.c.obj)
 .debug_abbrev  0x00012e77      0x3bf zephyr/kernel/libkernel.a(mem_slab.c.obj)
 .debug_abbrev  0x00013236      0x643 zephyr/kernel/libkernel.a(thread.c.obj)
 .debug_abbrev  0x00013879       0x55 zephyr/kernel/libkernel.a(version.c.obj)
 .debug_abbrev  0x000138ce      0x2f1 zephyr/kernel/libkernel.a(idle.c.obj)
 .debug_abbrev  0x00013bbf      0x469 zephyr/kernel/libkernel.a(msg_q.c.obj)
 .debug_abbrev  0x00014028      0x477 zephyr/kernel/libkernel.a(mutex.c.obj)
 .debug_abbrev  0x0001449f      0x398 zephyr/kernel/libkernel.a(sem.c.obj)
 .debug_abbrev  0x00014837      0x6a7 zephyr/kernel/libkernel.a(sched.c.obj)
 .debug_abbrev  0x00014ede      0x1b2 zephyr/kernel/libkernel.a(xip.c.obj)
 .debug_abbrev  0x00015090      0x524 zephyr/kernel/libkernel.a(timeout.c.obj)
 .debug_abbrev  0x000155b4      0x416 zephyr/kernel/libkernel.a(timer.c.obj)
 .debug_abbrev  0x000159ca      0x650 zephyr/kernel/libkernel.a(poll.c.obj)
 .debug_abbrev  0x0001601a      0x1db zephyr/kernel/libkernel.a(banner.c.obj)
 .debug_abbrev  0x000161f5      0x3a7 zephyr/kernel/libkernel.a(kheap.c.obj)
 .debug_abbrev  0x0001659c      0x22a zephyr/kernel/libkernel.a(system_work_q.c.obj)
 .debug_abbrev  0x000167c6      0x634 zephyr/kernel/libkernel.a(work.c.obj)
 .debug_abbrev  0x00016dfa      0x1cb zephyr/CMakeFiles/offsets.dir/./arch/arm/core/offsets/offsets.c.obj
 .debug_abbrev  0x00016fc5      0x10a zephyr/arch/common/libisr_tables.a(isr_tables.c.obj)

.debug_line     0x00000000    0x36de7
 *(SORT_BY_ALIGNMENT(.debug_line) SORT_BY_ALIGNMENT(.debug_line.*) SORT_BY_ALIGNMENT(.debug_line_end))
 .debug_line    0x00000000      0xd03 app/libapp.a(main.c.obj)
 .debug_line    0x00000d03      0x3ce app/libapp.a(test_module.c.obj)
 .debug_line    0x000010d1      0x772 app/libapp.a(dynamic_cmd.c.obj)
 .debug_line    0x00001843      0x394 app/libapp.a(qsort.c.obj)
 .debug_line    0x00001bd7      0x281 zephyr/libzephyr.a(hex.c.obj)
 .debug_line    0x00001e58      0x45a zephyr/libzephyr.a(notify.c.obj)
 .debug_line    0x000022b2      0x561 zephyr/libzephyr.a(printk.c.obj)
 .debug_line    0x00002813     0x130a zephyr/libzephyr.a(onoff.c.obj)
 .debug_line    0x00003b1d      0x37f zephyr/libzephyr.a(thread_entry.c.obj)
 .debug_line    0x00003e9c      0x54f zephyr/libzephyr.a(timeutil.c.obj)
 .debug_line    0x000043eb     0x119c zephyr/libzephyr.a(heap.c.obj)
 .debug_line    0x00005587      0xb77 zephyr/libzephyr.a(cbprintf_complete.c.obj)
 .debug_line    0x000060fe      0x9ff zephyr/libzephyr.a(ring_buffer.c.obj)
 .debug_line    0x00006afd      0x385 zephyr/libzephyr.a(reboot.c.obj)
 .debug_line    0x00006e82      0x410 zephyr/libzephyr.a(fnmatch.c.obj)
 .debug_line    0x00007292      0x209 zephyr/libzephyr.a(configs.c.obj)
 .debug_line    0x0000749b      0x4f7 zephyr/libzephyr.a(soc.c.obj)
 .debug_line    0x00007992      0x4c7 zephyr/libzephyr.a(power.c.obj)
 .debug_line    0x00007e59      0x19c zephyr/libzephyr.a(log_list.c.obj)
 .debug_line    0x00007ff5     0x1fc9 zephyr/libzephyr.a(log_core.c.obj)
 .debug_line    0x00009fbe      0xbbf zephyr/libzephyr.a(log_msg.c.obj)
 .debug_line    0x0000ab7d      0xe72 zephyr/libzephyr.a(log_output.c.obj)
 .debug_line    0x0000b9ef      0xce5 zephyr/libzephyr.a(log_cmds.c.obj)
 .debug_line    0x0000c6d4      0x8c5 zephyr/libzephyr.a(kernel_service.c.obj)
 .debug_line    0x0000cf99      0x78b zephyr/libzephyr.a(device_service.c.obj)
 .debug_line    0x0000d724      0x884 zephyr/libzephyr.a(date_service.c.obj)
 .debug_line    0x0000dfa8     0x2163 zephyr/libzephyr.a(shell.c.obj)
 .debug_line    0x0001010b      0x55e zephyr/libzephyr.a(shell_fprintf.c.obj)
 .debug_line    0x00010669      0xd65 zephyr/libzephyr.a(shell_utils.c.obj)
 .debug_line    0x000113ce      0xfea zephyr/libzephyr.a(shell_ops.c.obj)
 .debug_line    0x000123b8      0xbfd zephyr/libzephyr.a(shell_uart.c.obj)
 .debug_line    0x00012fb5      0x867 zephyr/libzephyr.a(shell_help.c.obj)
 .debug_line    0x0001381c      0xaaa zephyr/libzephyr.a(shell_cmds.c.obj)
 .debug_line    0x000142c6      0x7c1 zephyr/libzephyr.a(shell_history.c.obj)
 .debug_line    0x00014a87      0xa92 zephyr/libzephyr.a(shell_log_backend.c.obj)
 .debug_line    0x00015519      0x76f zephyr/libzephyr.a(shell_wildcard.c.obj)
 .debug_line    0x00015c88      0x953 zephyr/libzephyr.a(power.c.obj)
 .debug_line    0x000165db      0x403 zephyr/libzephyr.a(policy_residency.c.obj)
 .debug_line    0x000169de      0x49b zephyr/libzephyr.a(uart_console.c.obj)
 .debug_line    0x00016e79     0x15ea zephyr/libzephyr.a(clock_control_nrf.c.obj)
 .debug_line    0x00018463      0x3f6 zephyr/libzephyr.a(sys_clock_init.c.obj)
 .debug_line    0x00018859     0x1020 zephyr/libzephyr.a(nrf_rtc_timer.c.obj)
 .debug_line    0x00019879      0x40e zephyr/libzephyr.a(secure_services_ns.c.obj)
 .debug_line    0x00019c87      0x406 zephyr/arch/arch/arm/core/aarch32/libarch__arm__core__aarch32.a(swap.c.obj)
 .debug_line    0x0001a08d      0x501 zephyr/arch/arch/arm/core/aarch32/libarch__arm__core__aarch32.a(irq_manage.c.obj)
 .debug_line    0x0001a58e      0x476 zephyr/arch/arch/arm/core/aarch32/libarch__arm__core__aarch32.a(thread.c.obj)
 .debug_line    0x0001aa04      0x51d zephyr/arch/arch/arm/core/aarch32/libarch__arm__core__aarch32.a(fatal.c.obj)
 .debug_line    0x0001af21      0x341 zephyr/arch/arch/arm/core/aarch32/libarch__arm__core__aarch32.a(nmi.c.obj)
 .debug_line    0x0001b262      0x491 zephyr/arch/arch/arm/core/aarch32/libarch__arm__core__aarch32.a(prep_c.c.obj)
 .debug_line    0x0001b6f3       0xba zephyr/arch/arch/arm/core/aarch32/libarch__arm__core__aarch32.a(swap_helper.S.obj)
 .debug_line    0x0001b7ad       0x9b zephyr/arch/arch/arm/core/aarch32/libarch__arm__core__aarch32.a(cpu_idle.S.obj)
 .debug_line    0x0001b848       0x6a zephyr/arch/arch/arm/core/aarch32/libarch__arm__core__aarch32.a(nmi_on_reset.S.obj)
 .debug_line    0x0001b8b2       0x93 zephyr/arch/arch/arm/core/aarch32/libarch__arm__core__aarch32.a(isr_wrapper.S.obj)
 .debug_line    0x0001b945       0x83 zephyr/arch/arch/arm/core/aarch32/cortex_m/libarch__arm__core__aarch32__cortex_m.a(reset.S.obj)
 .debug_line    0x0001b9c8       0x77 zephyr/arch/arch/arm/core/aarch32/cortex_m/libarch__arm__core__aarch32__cortex_m.a(fault_s.S.obj)
 .debug_line    0x0001ba3f       0x7d zephyr/arch/arch/arm/core/aarch32/cortex_m/libarch__arm__core__aarch32__cortex_m.a(exc_exit.S.obj)
 .debug_line    0x0001babc     0x1334 zephyr/arch/arch/arm/core/aarch32/cortex_m/libarch__arm__core__aarch32__cortex_m.a(fault.c.obj)
 .debug_line    0x0001cdf0      0x370 zephyr/arch/arch/arm/core/aarch32/cortex_m/libarch__arm__core__aarch32__cortex_m.a(fpu.c.obj)
 .debug_line    0x0001d160      0x472 zephyr/arch/arch/arm/core/aarch32/cortex_m/libarch__arm__core__aarch32__cortex_m.a(scb.c.obj)
 .debug_line    0x0001d5d2      0x28b zephyr/arch/arch/arm/core/aarch32/cortex_m/libarch__arm__core__aarch32__cortex_m.a(irq_init.c.obj)
 .debug_line    0x0001d85d      0x431 zephyr/arch/arch/arm/core/aarch32/cortex_m/libarch__arm__core__aarch32__cortex_m.a(thread_abort.c.obj)
 .debug_line    0x0001dc8e      0x4ac zephyr/arch/arch/arm/core/aarch32/cortex_m/cmse/libarch__arm__core__aarch32__cortex_m__cmse.a(arm_core_cmse.c.obj)
 .debug_line    0x0001e13a      0x4d5 zephyr/arch/arch/arm/core/aarch32/mpu/libarch__arm__core__aarch32__mpu.a(arm_core_mpu.c.obj)
 .debug_line    0x0001e60f      0xd6f zephyr/arch/arch/arm/core/aarch32/mpu/libarch__arm__core__aarch32__mpu.a(arm_mpu.c.obj)
 .debug_line    0x0001f37e      0x2f9 zephyr/lib/libc/minimal/liblib__libc__minimal.a(strtol.c.obj)
 .debug_line    0x0001f677      0x14e zephyr/lib/libc/minimal/liblib__libc__minimal.a(strstr.c.obj)
 .debug_line    0x0001f7c5      0x601 zephyr/lib/libc/minimal/liblib__libc__minimal.a(string.c.obj)
 .debug_line    0x0001fdc6      0x2db zephyr/lib/libc/minimal/liblib__libc__minimal.a(stdout_console.c.obj)
 .debug_line    0x000200a1      0x294 zephyr/lib/libc/minimal/liblib__libc__minimal.a(sprintf.c.obj)
 .debug_line    0x00020335      0x1bf zephyr/lib/libc/minimal/liblib__libc__minimal.a(fprintf.c.obj)
 .debug_line    0x000204f4      0x2f8 zephyr/lib/libc/minimal/liblib__libc__minimal.a(gmtime.c.obj)
 .debug_line    0x000207ec      0x645 zephyr/lib/posix/liblib__posix.a(clock.c.obj)
 .debug_line    0x00020e31      0x1db zephyr/soc/arm/common/cortex_m/libsoc__arm__common__cortex_m.a(arm_mpu_regions.c.obj)
 .debug_line    0x0002100c     0x12c9 zephyr/drivers/gpio/libdrivers__gpio.a(gpio_nrfx.c.obj)
 .debug_line    0x000222d5     0x1973 zephyr/drivers/serial/libdrivers__serial.a(uart_nrfx_uarte.c.obj)
 .debug_line    0x00023c48      0x45d zephyr/drivers/entropy/libdrivers__entropy.a(entropy_cc310.c.obj)
 .debug_line    0x000240a5      0x4f9 modules/nrf/lib/fatal_error/lib..__nrf__lib__fatal_error.a(fatal_error.c.obj)
 .debug_line    0x0002459e      0x6de modules/nrf/subsys/fw_info/lib..__nrf__subsys__fw_info.a(fw_info.c.obj)
 .debug_line    0x00024c7c      0x15b modules/hal_nordic/nrfx/libmodules__hal_nordic__nrfx.a(system_nrf5340_application.c.obj)
 .debug_line    0x00024dd7      0x430 modules/hal_nordic/nrfx/libmodules__hal_nordic__nrfx.a(nrfx_glue.c.obj)
 .debug_line    0x00025207      0xdfb modules/hal_nordic/nrfx/libmodules__hal_nordic__nrfx.a(nrfx_clock.c.obj)
 .debug_line    0x00026002      0xa88 modules/hal_nordic/nrfx/libmodules__hal_nordic__nrfx.a(nrfx_dppi.c.obj)
 .debug_line    0x00026a8a     0x1f64 modules/hal_nordic/nrfx/libmodules__hal_nordic__nrfx.a(nrfx_gpiote.c.obj)
 .debug_line    0x000289ee      0x5ee zephyr/kernel/libkernel.a(device.c.obj)
 .debug_line    0x00028fdc      0x359 zephyr/kernel/libkernel.a(errno.c.obj)
 .debug_line    0x00029335      0x9fc zephyr/kernel/libkernel.a(fatal.c.obj)
 .debug_line    0x00029d31      0xac7 zephyr/kernel/libkernel.a(init.c.obj)
 .debug_line    0x0002a7f8      0x784 zephyr/kernel/libkernel.a(mem_slab.c.obj)
 .debug_line    0x0002af7c      0xe97 zephyr/kernel/libkernel.a(thread.c.obj)
 .debug_line    0x0002be13       0x98 zephyr/kernel/libkernel.a(version.c.obj)
 .debug_line    0x0002beab      0x53d zephyr/kernel/libkernel.a(idle.c.obj)
 .debug_line    0x0002c3e8      0xa60 zephyr/kernel/libkernel.a(msg_q.c.obj)
 .debug_line    0x0002ce48      0x90a zephyr/kernel/libkernel.a(mutex.c.obj)
 .debug_line    0x0002d752      0x6ff zephyr/kernel/libkernel.a(sem.c.obj)
 .debug_line    0x0002de51     0x2f43 zephyr/kernel/libkernel.a(sched.c.obj)
 .debug_line    0x00030d94      0x371 zephyr/kernel/libkernel.a(xip.c.obj)
 .debug_line    0x00031105      0xf49 zephyr/kernel/libkernel.a(timeout.c.obj)
 .debug_line    0x0003204e      0x82c zephyr/kernel/libkernel.a(timer.c.obj)
 .debug_line    0x0003287a     0x1363 zephyr/kernel/libkernel.a(poll.c.obj)
 .debug_line    0x00033bdd      0x388 zephyr/kernel/libkernel.a(banner.c.obj)
 .debug_line    0x00033f65      0x62c zephyr/kernel/libkernel.a(kheap.c.obj)
 .debug_line    0x00034591      0x35b zephyr/kernel/libkernel.a(system_work_q.c.obj)
 .debug_line    0x000348ec     0x1eeb zephyr/kernel/libkernel.a(work.c.obj)
 .debug_line    0x000367d7      0x446 zephyr/CMakeFiles/offsets.dir/./arch/arm/core/offsets/offsets.c.obj
 .debug_line    0x00036c1d      0x1ca zephyr/arch/common/libisr_tables.a(isr_tables.c.obj)

.debug_frame    0x00000000     0x5bf0
 *(SORT_BY_ALIGNMENT(.debug_frame))
 .debug_frame   0x00000000      0x150 app/libapp.a(main.c.obj)
 .debug_frame   0x00000150       0x30 app/libapp.a(test_module.c.obj)
 .debug_frame   0x00000180       0xcc app/libapp.a(dynamic_cmd.c.obj)
 .debug_frame   0x0000024c       0x78 app/libapp.a(qsort.c.obj)
 .debug_frame   0x000002c4       0x74 zephyr/libzephyr.a(hex.c.obj)
 .debug_frame   0x00000338       0x38 zephyr/libzephyr.a(notify.c.obj)
 .debug_frame   0x00000370      0x118 zephyr/libzephyr.a(printk.c.obj)
 .debug_frame   0x00000488      0x184 zephyr/libzephyr.a(onoff.c.obj)
 .debug_frame   0x0000060c       0x28 zephyr/libzephyr.a(thread_entry.c.obj)
 .debug_frame   0x00000634      0x124 zephyr/libzephyr.a(timeutil.c.obj)
 .debug_frame   0x00000758      0x26c zephyr/libzephyr.a(heap.c.obj)
 .debug_frame   0x000009c4       0x8c zephyr/libzephyr.a(cbprintf_complete.c.obj)
 .debug_frame   0x00000a50      0x110 zephyr/libzephyr.a(ring_buffer.c.obj)
 .debug_frame   0x00000b60       0x28 zephyr/libzephyr.a(reboot.c.obj)
 .debug_frame   0x00000b88       0x60 zephyr/libzephyr.a(fnmatch.c.obj)
 .debug_frame   0x00000be8       0x20 zephyr/libzephyr.a(configs.c.obj)
 .debug_frame   0x00000c08       0x40 zephyr/libzephyr.a(soc.c.obj)
 .debug_frame   0x00000c48       0x40 zephyr/libzephyr.a(power.c.obj)
 .debug_frame   0x00000c88       0x50 zephyr/libzephyr.a(log_list.c.obj)
 .debug_frame   0x00000cd8      0x5d0 zephyr/libzephyr.a(log_core.c.obj)
 .debug_frame   0x000012a8      0x174 zephyr/libzephyr.a(log_msg.c.obj)
 .debug_frame   0x0000141c      0x274 zephyr/libzephyr.a(log_output.c.obj)
 .debug_frame   0x00001690      0x270 zephyr/libzephyr.a(log_cmds.c.obj)
 .debug_frame   0x00001900      0x11c zephyr/libzephyr.a(kernel_service.c.obj)
 .debug_frame   0x00001a1c       0xb0 zephyr/libzephyr.a(device_service.c.obj)
 .debug_frame   0x00001acc       0x98 zephyr/libzephyr.a(date_service.c.obj)
 .debug_frame   0x00001b64      0x478 zephyr/libzephyr.a(shell.c.obj)
 .debug_frame   0x00001fdc       0x64 zephyr/libzephyr.a(shell_fprintf.c.obj)
 .debug_frame   0x00002040      0x1c0 zephyr/libzephyr.a(shell_utils.c.obj)
 .debug_frame   0x00002200      0x384 zephyr/libzephyr.a(shell_ops.c.obj)
 .debug_frame   0x00002584      0x10c zephyr/libzephyr.a(shell_uart.c.obj)
 .debug_frame   0x00002690       0xe4 zephyr/libzephyr.a(shell_help.c.obj)
 .debug_frame   0x00002774      0x160 zephyr/libzephyr.a(shell_cmds.c.obj)
 .debug_frame   0x000028d4       0xb0 zephyr/libzephyr.a(shell_history.c.obj)
 .debug_frame   0x00002984       0xf0 zephyr/libzephyr.a(shell_log_backend.c.obj)
 .debug_frame   0x00002a74       0x88 zephyr/libzephyr.a(shell_wildcard.c.obj)
 .debug_frame   0x00002afc      0x104 zephyr/libzephyr.a(power.c.obj)
 .debug_frame   0x00002c00       0x20 zephyr/libzephyr.a(policy_residency.c.obj)
 .debug_frame   0x00002c20       0x44 zephyr/libzephyr.a(uart_console.c.obj)
 .debug_frame   0x00002c64      0x2d8 zephyr/libzephyr.a(clock_control_nrf.c.obj)
 .debug_frame   0x00002f3c       0x70 zephyr/libzephyr.a(sys_clock_init.c.obj)
 .debug_frame   0x00002fac      0x188 zephyr/libzephyr.a(nrf_rtc_timer.c.obj)
 .debug_frame   0x00003134       0x78 zephyr/libzephyr.a(secure_services_ns.c.obj)
 .debug_frame   0x000031ac       0x20 zephyr/arch/arch/arm/core/aarch32/libarch__arm__core__aarch32.a(swap.c.obj)
 .debug_frame   0x000031cc       0x78 zephyr/arch/arch/arm/core/aarch32/libarch__arm__core__aarch32.a(irq_manage.c.obj)
 .debug_frame   0x00003244       0x40 zephyr/arch/arch/arm/core/aarch32/libarch__arm__core__aarch32.a(thread.c.obj)
 .debug_frame   0x00003284       0x60 zephyr/arch/arch/arm/core/aarch32/libarch__arm__core__aarch32.a(fatal.c.obj)
 .debug_frame   0x000032e4       0x2c zephyr/arch/arch/arm/core/aarch32/libarch__arm__core__aarch32.a(nmi.c.obj)
 .debug_frame   0x00003310       0x28 zephyr/arch/arch/arm/core/aarch32/libarch__arm__core__aarch32.a(prep_c.c.obj)
 .debug_frame   0x00003338       0xa0 zephyr/arch/arch/arm/core/aarch32/cortex_m/libarch__arm__core__aarch32__cortex_m.a(fault.c.obj)
 .debug_frame   0x000033d8       0x30 zephyr/arch/arch/arm/core/aarch32/cortex_m/libarch__arm__core__aarch32__cortex_m.a(fpu.c.obj)
 .debug_frame   0x00003408       0x30 zephyr/arch/arch/arm/core/aarch32/cortex_m/libarch__arm__core__aarch32__cortex_m.a(scb.c.obj)
 .debug_frame   0x00003438       0x20 zephyr/arch/arch/arm/core/aarch32/cortex_m/libarch__arm__core__aarch32__cortex_m.a(irq_init.c.obj)
 .debug_frame   0x00003458       0x20 zephyr/arch/arch/arm/core/aarch32/cortex_m/libarch__arm__core__aarch32__cortex_m.a(thread_abort.c.obj)
 .debug_frame   0x00003478       0x70 zephyr/arch/arch/arm/core/aarch32/cortex_m/cmse/libarch__arm__core__aarch32__cortex_m__cmse.a(arm_core_cmse.c.obj)
 .debug_frame   0x000034e8       0x3c zephyr/arch/arch/arm/core/aarch32/mpu/libarch__arm__core__aarch32__mpu.a(arm_core_mpu.c.obj)
 .debug_frame   0x00003524      0x138 zephyr/arch/arch/arm/core/aarch32/mpu/libarch__arm__core__aarch32__mpu.a(arm_mpu.c.obj)
 .debug_frame   0x0000365c       0x34 zephyr/lib/libc/minimal/liblib__libc__minimal.a(strtol.c.obj)
 .debug_frame   0x00003690       0x30 zephyr/lib/libc/minimal/liblib__libc__minimal.a(strstr.c.obj)
 .debug_frame   0x000036c0      0x188 zephyr/lib/libc/minimal/liblib__libc__minimal.a(string.c.obj)
 .debug_frame   0x00003848       0xb8 zephyr/lib/libc/minimal/liblib__libc__minimal.a(stdout_console.c.obj)
 .debug_frame   0x00003900       0xa4 zephyr/lib/libc/minimal/liblib__libc__minimal.a(sprintf.c.obj)
 .debug_frame   0x000039a4       0x8c zephyr/lib/libc/minimal/liblib__libc__minimal.a(fprintf.c.obj)
 .debug_frame   0x00003a30       0x4c zephyr/lib/libc/minimal/liblib__libc__minimal.a(gmtime.c.obj)
 .debug_frame   0x00003a7c       0x6c zephyr/lib/posix/liblib__posix.a(clock.c.obj)
 .debug_frame   0x00003ae8      0x178 zephyr/drivers/gpio/libdrivers__gpio.a(gpio_nrfx.c.obj)
 .debug_frame   0x00003c60      0x208 zephyr/drivers/serial/libdrivers__serial.a(uart_nrfx_uarte.c.obj)
 .debug_frame   0x00003e68       0x44 zephyr/drivers/entropy/libdrivers__entropy.a(entropy_cc310.c.obj)
 .debug_frame   0x00003eac       0x28 modules/nrf/lib/fatal_error/lib..__nrf__lib__fatal_error.a(fatal_error.c.obj)
 .debug_frame   0x00003ed4       0x7c modules/nrf/subsys/fw_info/lib..__nrf__subsys__fw_info.a(fw_info.c.obj)
 .debug_frame   0x00003f50       0x30 modules/hal_nordic/nrfx/libmodules__hal_nordic__nrfx.a(system_nrf5340_application.c.obj)
 .debug_frame   0x00003f80       0x40 modules/hal_nordic/nrfx/libmodules__hal_nordic__nrfx.a(nrfx_glue.c.obj)
 .debug_frame   0x00003fc0      0x10c modules/hal_nordic/nrfx/libmodules__hal_nordic__nrfx.a(nrfx_clock.c.obj)
 .debug_frame   0x000040cc      0x124 modules/hal_nordic/nrfx/libmodules__hal_nordic__nrfx.a(nrfx_dppi.c.obj)
 .debug_frame   0x000041f0      0x384 modules/hal_nordic/nrfx/libmodules__hal_nordic__nrfx.a(nrfx_gpiote.c.obj)
 .debug_frame   0x00004574       0xc0 zephyr/kernel/libkernel.a(device.c.obj)
 .debug_frame   0x00004634       0x20 zephyr/kernel/libkernel.a(errno.c.obj)
 .debug_frame   0x00004654       0xd0 zephyr/kernel/libkernel.a(fatal.c.obj)
 .debug_frame   0x00004724       0x90 zephyr/kernel/libkernel.a(init.c.obj)
 .debug_frame   0x000047b4       0x94 zephyr/kernel/libkernel.a(mem_slab.c.obj)
 .debug_frame   0x00004848      0x1f4 zephyr/kernel/libkernel.a(thread.c.obj)
 .debug_frame   0x00004a3c       0x20 zephyr/kernel/libkernel.a(version.c.obj)
 .debug_frame   0x00004a5c       0x44 zephyr/kernel/libkernel.a(idle.c.obj)
 .debug_frame   0x00004aa0      0x100 zephyr/kernel/libkernel.a(msg_q.c.obj)
 .debug_frame   0x00004ba0       0x64 zephyr/kernel/libkernel.a(mutex.c.obj)
 .debug_frame   0x00004c04       0x8c zephyr/kernel/libkernel.a(sem.c.obj)
 .debug_frame   0x00004c90      0x5f8 zephyr/kernel/libkernel.a(sched.c.obj)
 .debug_frame   0x00005288       0x2c zephyr/kernel/libkernel.a(xip.c.obj)
 .debug_frame   0x000052b4      0x1c0 zephyr/kernel/libkernel.a(timeout.c.obj)
 .debug_frame   0x00005474       0xd0 zephyr/kernel/libkernel.a(timer.c.obj)
 .debug_frame   0x00005544      0x1d8 zephyr/kernel/libkernel.a(poll.c.obj)
 .debug_frame   0x0000571c       0x20 zephyr/kernel/libkernel.a(banner.c.obj)
 .debug_frame   0x0000573c       0xb8 zephyr/kernel/libkernel.a(kheap.c.obj)
 .debug_frame   0x000057f4       0x2c zephyr/kernel/libkernel.a(system_work_q.c.obj)
 .debug_frame   0x00005820      0x30c zephyr/kernel/libkernel.a(work.c.obj)
 .debug_frame   0x00005b2c       0x20 zephyr/CMakeFiles/offsets.dir/./arch/arm/core/offsets/offsets.c.obj
 .debug_frame   0x00005b4c       0x44 c:/ncs/v1.6.0/toolchain/opt/bin/../lib/gcc/arm-none-eabi/9.2.1/thumb/v8-m.main/nofp\libgcc.a(_aeabi_ldivmod.o)
 .debug_frame   0x00005b90       0x2c c:/ncs/v1.6.0/toolchain/opt/bin/../lib/gcc/arm-none-eabi/9.2.1/thumb/v8-m.main/nofp\libgcc.a(_aeabi_uldivmod.o)
 .debug_frame   0x00005bbc       0x34 c:/ncs/v1.6.0/toolchain/opt/bin/../lib/gcc/arm-none-eabi/9.2.1/thumb/v8-m.main/nofp\libgcc.a(_udivmoddi4.o)

.debug_str      0x00000000     0xfc67
 *(SORT_BY_ALIGNMENT(.debug_str))
 .debug_str     0x00000000     0x1634 app/libapp.a(main.c.obj)
                               0x1b41 (size before relaxing)
 .debug_str     0x00001634      0x170 app/libapp.a(test_module.c.obj)
                                0x56d (size before relaxing)
 .debug_str     0x000017a4      0x2c1 app/libapp.a(dynamic_cmd.c.obj)
                               0x17ba (size before relaxing)
 .debug_str     0x00001a65       0x42 app/libapp.a(qsort.c.obj)
                                0x1ff (size before relaxing)
 .debug_str     0x00001aa7       0x42 zephyr/libzephyr.a(hex.c.obj)
                                0x294 (size before relaxing)
 .debug_str     0x00001ae9       0xa5 zephyr/libzephyr.a(notify.c.obj)
                                0x7aa (size before relaxing)
 .debug_str     0x00001b8e       0xad zephyr/libzephyr.a(printk.c.obj)
                                0x981 (size before relaxing)
 .debug_str     0x00001c3b      0x3ef zephyr/libzephyr.a(onoff.c.obj)
                                0xb85 (size before relaxing)
 .debug_str     0x0000202a       0x65 zephyr/libzephyr.a(thread_entry.c.obj)
                                0x733 (size before relaxing)
 .debug_str     0x0000208f      0x212 zephyr/libzephyr.a(timeutil.c.obj)
                                0x49e (size before relaxing)
 .debug_str     0x000022a1      0x369 zephyr/libzephyr.a(heap.c.obj)
                                0xa85 (size before relaxing)
 .debug_str     0x0000260a      0x32f zephyr/libzephyr.a(cbprintf_complete.c.obj)
                                0x62c (size before relaxing)
 .debug_str     0x00002939      0x180 zephyr/libzephyr.a(ring_buffer.c.obj)
                                0x96a (size before relaxing)
 .debug_str     0x00002ab9       0x6b zephyr/libzephyr.a(reboot.c.obj)
                                0x72e (size before relaxing)
 .debug_str     0x00002b24       0x89 zephyr/libzephyr.a(fnmatch.c.obj)
                                0x25f (size before relaxing)
 .debug_str     0x00002bad       0x2f zephyr/libzephyr.a(configs.c.obj)
                                0x1cd (size before relaxing)
 .debug_str     0x00002bdc      0x245 zephyr/libzephyr.a(soc.c.obj)
                                0xb3a (size before relaxing)
 .debug_str     0x00002e21      0x166 zephyr/libzephyr.a(power.c.obj)
                                0xbd2 (size before relaxing)
 .debug_str     0x00002f87       0x7f zephyr/libzephyr.a(log_list.c.obj)
                                0x44a (size before relaxing)
 .debug_str     0x00003006      0xbfd zephyr/libzephyr.a(log_core.c.obj)
                               0x1db1 (size before relaxing)
 .debug_str     0x00003c03      0x16c zephyr/libzephyr.a(log_msg.c.obj)
                                0xf9f (size before relaxing)
 .debug_str     0x00003d6f      0x315 zephyr/libzephyr.a(log_output.c.obj)
                               0x10bd (size before relaxing)
 .debug_str     0x00004084      0x2ee zephyr/libzephyr.a(log_cmds.c.obj)
                               0x1a7b (size before relaxing)
 .debug_str     0x00004372      0x8ce zephyr/libzephyr.a(kernel_service.c.obj)
                               0x2132 (size before relaxing)
 .debug_str     0x00004c40      0x20b zephyr/libzephyr.a(device_service.c.obj)
                               0x2031 (size before relaxing)
 .debug_str     0x00004e4b      0x119 zephyr/libzephyr.a(date_service.c.obj)
                               0x1832 (size before relaxing)
 .debug_str     0x00004f64      0xd2c zephyr/libzephyr.a(shell.c.obj)
                               0x2702 (size before relaxing)
 .debug_str     0x00005c90       0x3d zephyr/libzephyr.a(shell_fprintf.c.obj)
                               0x1544 (size before relaxing)
 .debug_str     0x00005ccd      0x258 zephyr/libzephyr.a(shell_utils.c.obj)
                               0x1fd5 (size before relaxing)
 .debug_str     0x00005f25      0x204 zephyr/libzephyr.a(shell_ops.c.obj)
                               0x1b0d (size before relaxing)
 .debug_str     0x00006129      0x627 zephyr/libzephyr.a(shell_uart.c.obj)
                               0x292a (size before relaxing)
 .debug_str     0x00006750       0xc4 zephyr/libzephyr.a(shell_help.c.obj)
                               0x16e1 (size before relaxing)
 .debug_str     0x00006814      0x267 zephyr/libzephyr.a(shell_cmds.c.obj)
                               0x1ad2 (size before relaxing)
 .debug_str     0x00006a7b      0x188 zephyr/libzephyr.a(shell_history.c.obj)
                                0x9ca (size before relaxing)
 .debug_str     0x00006c03       0xf2 zephyr/libzephyr.a(shell_log_backend.c.obj)
                               0x1ab4 (size before relaxing)
 .debug_str     0x00006cf5       0x5f zephyr/libzephyr.a(shell_wildcard.c.obj)
                               0x16d5 (size before relaxing)
 .debug_str     0x00006d54      0x1e2 zephyr/libzephyr.a(power.c.obj)
                                0xf7f (size before relaxing)
 .debug_str     0x00006f36       0x61 zephyr/libzephyr.a(policy_residency.c.obj)
                                0xb6d (size before relaxing)
 .debug_str     0x00006f97       0xb6 zephyr/libzephyr.a(uart_console.c.obj)
                               0x11e1 (size before relaxing)
 .debug_str     0x0000704d     0x157b zephyr/libzephyr.a(clock_control_nrf.c.obj)
                               0x380b (size before relaxing)
 .debug_str     0x000085c8      0x139 zephyr/libzephyr.a(sys_clock_init.c.obj)
                               0x10e4 (size before relaxing)
 .debug_str     0x00008701      0x6d7 zephyr/libzephyr.a(nrf_rtc_timer.c.obj)
                               0x1c55 (size before relaxing)
 .debug_str     0x00008dd8      0x161 zephyr/libzephyr.a(secure_services_ns.c.obj)
                                0x8af (size before relaxing)
 .debug_str     0x00008f39      0x14b zephyr/arch/arch/arm/core/aarch32/libarch__arm__core__aarch32.a(swap.c.obj)
                                0x860 (size before relaxing)
 .debug_str     0x00009084      0x161 zephyr/arch/arch/arm/core/aarch32/libarch__arm__core__aarch32.a(irq_manage.c.obj)
                                0xc25 (size before relaxing)
 .debug_str     0x000091e5       0xe6 zephyr/arch/arch/arm/core/aarch32/libarch__arm__core__aarch32.a(thread.c.obj)
                                0x804 (size before relaxing)
 .debug_str     0x000092cb       0xc0 zephyr/arch/arch/arm/core/aarch32/libarch__arm__core__aarch32.a(fatal.c.obj)
                                0xb01 (size before relaxing)
 .debug_str     0x0000938b       0x5a zephyr/arch/arch/arm/core/aarch32/libarch__arm__core__aarch32.a(nmi.c.obj)
                                0x703 (size before relaxing)
 .debug_str     0x000093e5      0x299 zephyr/arch/arch/arm/core/aarch32/libarch__arm__core__aarch32.a(prep_c.c.obj)
                                0xae5 (size before relaxing)
 .debug_str     0x0000967e       0x47 zephyr/arch/arch/arm/core/aarch32/libarch__arm__core__aarch32.a(swap_helper.S.obj)
                                 0xa0 (size before relaxing)
 .debug_str     0x000096c5       0x36 zephyr/arch/arch/arm/core/aarch32/libarch__arm__core__aarch32.a(cpu_idle.S.obj)
                                 0x9d (size before relaxing)
 .debug_str     0x000096fb       0x3a zephyr/arch/arch/arm/core/aarch32/libarch__arm__core__aarch32.a(nmi_on_reset.S.obj)
                                 0xa1 (size before relaxing)
 .debug_str     0x00009735       0x39 zephyr/arch/arch/arm/core/aarch32/libarch__arm__core__aarch32.a(isr_wrapper.S.obj)
                                 0xa0 (size before relaxing)
 .debug_str     0x0000976e       0x3c zephyr/arch/arch/arm/core/aarch32/cortex_m/libarch__arm__core__aarch32__cortex_m.a(reset.S.obj)
                                 0xa3 (size before relaxing)
 .debug_str     0x000097aa       0x3e zephyr/arch/arch/arm/core/aarch32/cortex_m/libarch__arm__core__aarch32__cortex_m.a(fault_s.S.obj)
                                 0xa5 (size before relaxing)
 .debug_str     0x000097e8       0x3f zephyr/arch/arch/arm/core/aarch32/cortex_m/libarch__arm__core__aarch32__cortex_m.a(exc_exit.S.obj)
                                 0xa6 (size before relaxing)
 .debug_str     0x00009827      0x15f zephyr/arch/arch/arm/core/aarch32/cortex_m/libarch__arm__core__aarch32__cortex_m.a(fault.c.obj)
                                0xd4f (size before relaxing)
 .debug_str     0x00009986       0x3a zephyr/arch/arch/arm/core/aarch32/cortex_m/libarch__arm__core__aarch32__cortex_m.a(fpu.c.obj)
                                0x743 (size before relaxing)
 .debug_str     0x000099c0       0xe7 zephyr/arch/arch/arm/core/aarch32/cortex_m/libarch__arm__core__aarch32__cortex_m.a(scb.c.obj)
                                0xacd (size before relaxing)
 .debug_str     0x00009aa7       0x3f zephyr/arch/arch/arm/core/aarch32/cortex_m/libarch__arm__core__aarch32__cortex_m.a(irq_init.c.obj)
                                0x77e (size before relaxing)
 .debug_str     0x00009ae6       0x7b zephyr/arch/arch/arm/core/aarch32/cortex_m/libarch__arm__core__aarch32__cortex_m.a(thread_abort.c.obj)
                                0x8a6 (size before relaxing)
 .debug_str     0x00009b61      0x18d zephyr/arch/arch/arm/core/aarch32/cortex_m/cmse/libarch__arm__core__aarch32__cortex_m__cmse.a(arm_core_cmse.c.obj)
                                0x861 (size before relaxing)
 .debug_str     0x00009cee      0x17a zephyr/arch/arch/arm/core/aarch32/mpu/libarch__arm__core__aarch32__mpu.a(arm_core_mpu.c.obj)
                               0x13cc (size before relaxing)
 .debug_str     0x00009e68      0x30a zephyr/arch/arch/arm/core/aarch32/mpu/libarch__arm__core__aarch32__mpu.a(arm_mpu.c.obj)
                               0x1889 (size before relaxing)
 .debug_str     0x0000a172       0x50 zephyr/lib/libc/minimal/liblib__libc__minimal.a(strtol.c.obj)
                                0x2cd (size before relaxing)
 .debug_str     0x0000a1c2       0x3d zephyr/lib/libc/minimal/liblib__libc__minimal.a(strstr.c.obj)
                                0x20f (size before relaxing)
 .debug_str     0x0000a1ff       0xaa zephyr/lib/libc/minimal/liblib__libc__minimal.a(string.c.obj)
                                0x34f (size before relaxing)
 .debug_str     0x0000a2a9       0xa2 zephyr/lib/libc/minimal/liblib__libc__minimal.a(stdout_console.c.obj)
                                0x33c (size before relaxing)
 .debug_str     0x0000a34b       0x6b zephyr/lib/libc/minimal/liblib__libc__minimal.a(sprintf.c.obj)
                                0x2f3 (size before relaxing)
 .debug_str     0x0000a3b6       0x3e zephyr/lib/libc/minimal/liblib__libc__minimal.a(fprintf.c.obj)
                                0x2da (size before relaxing)
 .debug_str     0x0000a3f4       0x70 zephyr/lib/libc/minimal/liblib__libc__minimal.a(gmtime.c.obj)
                                0x31d (size before relaxing)
 .debug_str     0x0000a464       0x90 zephyr/lib/posix/liblib__posix.a(clock.c.obj)
                                0x992 (size before relaxing)
 .debug_str     0x0000a4f4       0x3f zephyr/soc/arm/common/cortex_m/libsoc__arm__common__cortex_m.a(arm_mpu_regions.c.obj)
                                0x36f (size before relaxing)
 .debug_str     0x0000a533      0xcc8 zephyr/drivers/gpio/libdrivers__gpio.a(gpio_nrfx.c.obj)
                               0x2083 (size before relaxing)
 .debug_str     0x0000b1fb     0x13c7 zephyr/drivers/serial/libdrivers__serial.a(uart_nrfx_uarte.c.obj)
                               0x2e97 (size before relaxing)
 .debug_str     0x0000c5c2      0x118 zephyr/drivers/entropy/libdrivers__entropy.a(entropy_cc310.c.obj)
                                0xf9d (size before relaxing)
 .debug_str     0x0000c6da       0x78 modules/nrf/lib/fatal_error/lib..__nrf__lib__fatal_error.a(fatal_error.c.obj)
                                0xe3b (size before relaxing)
 .debug_str     0x0000c752      0x25f modules/nrf/subsys/fw_info/lib..__nrf__subsys__fw_info.a(fw_info.c.obj)
                                0xc03 (size before relaxing)
 .debug_str     0x0000c9b1       0x5d modules/hal_nordic/nrfx/libmodules__hal_nordic__nrfx.a(system_nrf5340_application.c.obj)
                                0x6d1 (size before relaxing)
 .debug_str     0x0000ca0e       0x6b modules/hal_nordic/nrfx/libmodules__hal_nordic__nrfx.a(nrfx_glue.c.obj)
                                0x8db (size before relaxing)
 .debug_str     0x0000ca79      0x29f modules/hal_nordic/nrfx/libmodules__hal_nordic__nrfx.a(nrfx_clock.c.obj)
                               0x1681 (size before relaxing)
 .debug_str     0x0000cd18      0x2e2 modules/hal_nordic/nrfx/libmodules__hal_nordic__nrfx.a(nrfx_dppi.c.obj)
                                0xbeb (size before relaxing)
 .debug_str     0x0000cffa      0xbc7 modules/hal_nordic/nrfx/libmodules__hal_nordic__nrfx.a(nrfx_gpiote.c.obj)
                               0x1ef5 (size before relaxing)
 .debug_str     0x0000dbc1      0x1b3 zephyr/kernel/libkernel.a(device.c.obj)
                               0x1055 (size before relaxing)
 .debug_str     0x0000dd74       0x24 zephyr/kernel/libkernel.a(errno.c.obj)
                                0x83a (size before relaxing)
 .debug_str     0x0000dd98      0x19b zephyr/kernel/libkernel.a(fatal.c.obj)
                                0xfe3 (size before relaxing)
 .debug_str     0x0000df33      0x249 zephyr/kernel/libkernel.a(init.c.obj)
                               0x1e07 (size before relaxing)
 .debug_str     0x0000e17c      0x12b zephyr/kernel/libkernel.a(mem_slab.c.obj)
                                0xaaa (size before relaxing)
 .debug_str     0x0000e2a7      0x308 zephyr/kernel/libkernel.a(thread.c.obj)
                                0xfde (size before relaxing)
 .debug_str     0x0000e5af       0x26 zephyr/kernel/libkernel.a(version.c.obj)
                                0x274 (size before relaxing)
 .debug_str     0x0000e5d5       0x4a zephyr/kernel/libkernel.a(idle.c.obj)
                               0x109f (size before relaxing)
 .debug_str     0x0000e61f      0x10a zephyr/kernel/libkernel.a(msg_q.c.obj)
                                0xab4 (size before relaxing)
 .debug_str     0x0000e729      0x11b zephyr/kernel/libkernel.a(mutex.c.obj)
                                0xca9 (size before relaxing)
 .debug_str     0x0000e844       0x55 zephyr/kernel/libkernel.a(sem.c.obj)
                                0xa0c (size before relaxing)
 .debug_str     0x0000e899      0x76d zephyr/kernel/libkernel.a(sched.c.obj)
                               0x1cbe (size before relaxing)
 .debug_str     0x0000f006       0x22 zephyr/kernel/libkernel.a(xip.c.obj)
                                0x8e0 (size before relaxing)
 .debug_str     0x0000f028       0xe0 zephyr/kernel/libkernel.a(timeout.c.obj)
                               0x12fe (size before relaxing)
 .debug_str     0x0000f108       0x9d zephyr/kernel/libkernel.a(timer.c.obj)
                                0xb45 (size before relaxing)
 .debug_str     0x0000f1a5      0x2db zephyr/kernel/libkernel.a(poll.c.obj)
                                0xfdd (size before relaxing)
 .debug_str     0x0000f480       0x30 zephyr/kernel/libkernel.a(banner.c.obj)
                                0xe57 (size before relaxing)
 .debug_str     0x0000f4b0       0xbb zephyr/kernel/libkernel.a(kheap.c.obj)
                                0xa46 (size before relaxing)
 .debug_str     0x0000f56b       0xa2 zephyr/kernel/libkernel.a(system_work_q.c.obj)
                                0x8ce (size before relaxing)
 .debug_str     0x0000f60d      0x5b2 zephyr/kernel/libkernel.a(work.c.obj)
                               0x1294 (size before relaxing)
 .debug_str     0x0000fbbf       0x44 zephyr/CMakeFiles/offsets.dir/./arch/arm/core/offsets/offsets.c.obj
                                0xe70 (size before relaxing)
 .debug_str     0x0000fc03       0x64 zephyr/arch/common/libisr_tables.a(isr_tables.c.obj)
                                0x3a5 (size before relaxing)

.debug_loc      0x00000000    0x36b41
 *(SORT_BY_ALIGNMENT(.debug_loc))
 .debug_loc     0x00000000      0x97f app/libapp.a(main.c.obj)
 .debug_loc     0x0000097f       0xaa app/libapp.a(test_module.c.obj)
 .debug_loc     0x00000a29      0x511 app/libapp.a(dynamic_cmd.c.obj)
 .debug_loc     0x00000f3a      0x6b1 app/libapp.a(qsort.c.obj)
 .debug_loc     0x000015eb      0x347 zephyr/libzephyr.a(hex.c.obj)
 .debug_loc     0x00001932      0x225 zephyr/libzephyr.a(notify.c.obj)
 .debug_loc     0x00001b57      0x280 zephyr/libzephyr.a(printk.c.obj)
 .debug_loc     0x00001dd7     0x1fd2 zephyr/libzephyr.a(onoff.c.obj)
 .debug_loc     0x00003da9       0xc0 zephyr/libzephyr.a(thread_entry.c.obj)
 .debug_loc     0x00003e69      0x714 zephyr/libzephyr.a(timeutil.c.obj)
 .debug_loc     0x0000457d     0x2102 zephyr/libzephyr.a(heap.c.obj)
 .debug_loc     0x0000667f     0x132c zephyr/libzephyr.a(cbprintf_complete.c.obj)
 .debug_loc     0x000079ab      0xc25 zephyr/libzephyr.a(ring_buffer.c.obj)
 .debug_loc     0x000085d0       0x22 zephyr/libzephyr.a(reboot.c.obj)
 .debug_loc     0x000085f2      0x6ae zephyr/libzephyr.a(fnmatch.c.obj)
 .debug_loc     0x00008ca0      0x1c6 zephyr/libzephyr.a(soc.c.obj)
 .debug_loc     0x00008e66       0x30 zephyr/libzephyr.a(power.c.obj)
 .debug_loc     0x00008e96       0x5c zephyr/libzephyr.a(log_list.c.obj)
 .debug_loc     0x00008ef2     0x2417 zephyr/libzephyr.a(log_core.c.obj)
 .debug_loc     0x0000b309      0xe2a zephyr/libzephyr.a(log_msg.c.obj)
 .debug_loc     0x0000c133     0x1f4b zephyr/libzephyr.a(log_output.c.obj)
 .debug_loc     0x0000e07e     0x116d zephyr/libzephyr.a(log_cmds.c.obj)
 .debug_loc     0x0000f1eb      0x7ba zephyr/libzephyr.a(kernel_service.c.obj)
 .debug_loc     0x0000f9a5      0x45b zephyr/libzephyr.a(device_service.c.obj)
 .debug_loc     0x0000fe00      0x40a zephyr/libzephyr.a(date_service.c.obj)
 .debug_loc     0x0001020a     0x33d2 zephyr/libzephyr.a(shell.c.obj)
 .debug_loc     0x000135dc      0x14e zephyr/libzephyr.a(shell_fprintf.c.obj)
 .debug_loc     0x0001372a      0xdc4 zephyr/libzephyr.a(shell_utils.c.obj)
 .debug_loc     0x000144ee     0x12ed zephyr/libzephyr.a(shell_ops.c.obj)
 .debug_loc     0x000157db      0xcfc zephyr/libzephyr.a(shell_uart.c.obj)
 .debug_loc     0x000164d7      0x636 zephyr/libzephyr.a(shell_help.c.obj)
 .debug_loc     0x00016b0d      0xd35 zephyr/libzephyr.a(shell_cmds.c.obj)
 .debug_loc     0x00017842      0x5fc zephyr/libzephyr.a(shell_history.c.obj)
 .debug_loc     0x00017e3e      0x9de zephyr/libzephyr.a(shell_log_backend.c.obj)
 .debug_loc     0x0001881c      0x468 zephyr/libzephyr.a(shell_wildcard.c.obj)
 .debug_loc     0x00018c84      0x6d0 zephyr/libzephyr.a(power.c.obj)
 .debug_loc     0x00019354      0x144 zephyr/libzephyr.a(uart_console.c.obj)
 .debug_loc     0x00019498     0x1b64 zephyr/libzephyr.a(clock_control_nrf.c.obj)
 .debug_loc     0x0001affc       0x4a zephyr/libzephyr.a(sys_clock_init.c.obj)
 .debug_loc     0x0001b046      0xf80 zephyr/libzephyr.a(nrf_rtc_timer.c.obj)
 .debug_loc     0x0001bfc6       0x6f zephyr/libzephyr.a(secure_services_ns.c.obj)
 .debug_loc     0x0001c035       0x3b zephyr/arch/arch/arm/core/aarch32/libarch__arm__core__aarch32.a(swap.c.obj)
 .debug_loc     0x0001c070      0x1c3 zephyr/arch/arch/arm/core/aarch32/libarch__arm__core__aarch32.a(irq_manage.c.obj)
 .debug_loc     0x0001c233       0xf8 zephyr/arch/arch/arm/core/aarch32/libarch__arm__core__aarch32.a(thread.c.obj)
 .debug_loc     0x0001c32b      0x1fe zephyr/arch/arch/arm/core/aarch32/libarch__arm__core__aarch32.a(fatal.c.obj)
 .debug_loc     0x0001c529       0x3c zephyr/arch/arch/arm/core/aarch32/libarch__arm__core__aarch32.a(prep_c.c.obj)
 .debug_loc     0x0001c565      0xccf zephyr/arch/arch/arm/core/aarch32/cortex_m/libarch__arm__core__aarch32__cortex_m.a(fault.c.obj)
 .debug_loc     0x0001d234       0x6e zephyr/arch/arch/arm/core/aarch32/cortex_m/libarch__arm__core__aarch32__cortex_m.a(scb.c.obj)
 .debug_loc     0x0001d2a2       0x6a zephyr/arch/arch/arm/core/aarch32/cortex_m/libarch__arm__core__aarch32__cortex_m.a(irq_init.c.obj)
 .debug_loc     0x0001d30c       0x3a zephyr/arch/arch/arm/core/aarch32/cortex_m/libarch__arm__core__aarch32__cortex_m.a(thread_abort.c.obj)
 .debug_loc     0x0001d346      0x5ab zephyr/arch/arch/arm/core/aarch32/cortex_m/cmse/libarch__arm__core__aarch32__cortex_m__cmse.a(arm_core_cmse.c.obj)
 .debug_loc     0x0001d8f1       0x25 zephyr/arch/arch/arm/core/aarch32/mpu/libarch__arm__core__aarch32__mpu.a(arm_core_mpu.c.obj)
 .debug_loc     0x0001d916      0xba9 zephyr/arch/arch/arm/core/aarch32/mpu/libarch__arm__core__aarch32__mpu.a(arm_mpu.c.obj)
 .debug_loc     0x0001e4bf      0x3e0 zephyr/lib/libc/minimal/liblib__libc__minimal.a(strtol.c.obj)
 .debug_loc     0x0001e89f       0xf4 zephyr/lib/libc/minimal/liblib__libc__minimal.a(strstr.c.obj)
 .debug_loc     0x0001e993      0xc0f zephyr/lib/libc/minimal/liblib__libc__minimal.a(string.c.obj)
 .debug_loc     0x0001f5a2      0x592 zephyr/lib/libc/minimal/liblib__libc__minimal.a(stdout_console.c.obj)
 .debug_loc     0x0001fb34      0x26b zephyr/lib/libc/minimal/liblib__libc__minimal.a(sprintf.c.obj)
 .debug_loc     0x0001fd9f      0x11c zephyr/lib/libc/minimal/liblib__libc__minimal.a(fprintf.c.obj)
 .debug_loc     0x0001febb      0x392 zephyr/lib/libc/minimal/liblib__libc__minimal.a(gmtime.c.obj)
 .debug_loc     0x0002024d      0x439 zephyr/lib/posix/liblib__posix.a(clock.c.obj)
 .debug_loc     0x00020686     0x199a zephyr/drivers/gpio/libdrivers__gpio.a(gpio_nrfx.c.obj)
 .debug_loc     0x00022020     0x22d8 zephyr/drivers/serial/libdrivers__serial.a(uart_nrfx_uarte.c.obj)
 .debug_loc     0x000242f8       0xfd zephyr/drivers/entropy/libdrivers__entropy.a(entropy_cc310.c.obj)
 .debug_loc     0x000243f5       0x7d modules/nrf/lib/fatal_error/lib..__nrf__lib__fatal_error.a(fatal_error.c.obj)
 .debug_loc     0x00024472      0x4af modules/nrf/subsys/fw_info/lib..__nrf__subsys__fw_info.a(fw_info.c.obj)
 .debug_loc     0x00024921      0x264 modules/hal_nordic/nrfx/libmodules__hal_nordic__nrfx.a(nrfx_glue.c.obj)
 .debug_loc     0x00024b85      0xecb modules/hal_nordic/nrfx/libmodules__hal_nordic__nrfx.a(nrfx_clock.c.obj)
 .debug_loc     0x00025a50      0xaf1 modules/hal_nordic/nrfx/libmodules__hal_nordic__nrfx.a(nrfx_dppi.c.obj)
 .debug_loc     0x00026541     0x2ead modules/hal_nordic/nrfx/libmodules__hal_nordic__nrfx.a(nrfx_gpiote.c.obj)
 .debug_loc     0x000293ee      0x3f2 zephyr/kernel/libkernel.a(device.c.obj)
 .debug_loc     0x000297e0      0x2f8 zephyr/kernel/libkernel.a(fatal.c.obj)
 .debug_loc     0x00029ad8      0x5da zephyr/kernel/libkernel.a(init.c.obj)
 .debug_loc     0x0002a0b2      0x538 zephyr/kernel/libkernel.a(mem_slab.c.obj)
 .debug_loc     0x0002a5ea      0xd75 zephyr/kernel/libkernel.a(thread.c.obj)
 .debug_loc     0x0002b35f       0xa9 zephyr/kernel/libkernel.a(idle.c.obj)
 .debug_loc     0x0002b408      0x928 zephyr/kernel/libkernel.a(msg_q.c.obj)
 .debug_loc     0x0002bd30      0x526 zephyr/kernel/libkernel.a(mutex.c.obj)
 .debug_loc     0x0002c256      0x3fb zephyr/kernel/libkernel.a(sem.c.obj)
 .debug_loc     0x0002c651     0x39a9 zephyr/kernel/libkernel.a(sched.c.obj)
 .debug_loc     0x0002fffa      0xde5 zephyr/kernel/libkernel.a(timeout.c.obj)
 .debug_loc     0x00030ddf      0x58e zephyr/kernel/libkernel.a(timer.c.obj)
 .debug_loc     0x0003136d     0x192e zephyr/kernel/libkernel.a(poll.c.obj)
 .debug_loc     0x00032c9b      0x44a zephyr/kernel/libkernel.a(kheap.c.obj)
 .debug_loc     0x000330e5       0x25 zephyr/kernel/libkernel.a(system_work_q.c.obj)
 .debug_loc     0x0003310a     0x3a37 zephyr/kernel/libkernel.a(work.c.obj)

.debug_macinfo
 *(SORT_BY_ALIGNMENT(.debug_macinfo))

.debug_weaknames
 *(SORT_BY_ALIGNMENT(.debug_weaknames))

.debug_funcnames
 *(SORT_BY_ALIGNMENT(.debug_funcnames))

.debug_typenames
 *(SORT_BY_ALIGNMENT(.debug_typenames))

.debug_varnames
 *(SORT_BY_ALIGNMENT(.debug_varnames))

.debug_pubtypes
 *(SORT_BY_ALIGNMENT(.debug_pubtypes))

.debug_ranges   0x00000000     0xbcd8
 *(SORT_BY_ALIGNMENT(.debug_ranges))
 .debug_ranges  0x00000000       0x20 zephyr/arch/arch/arm/core/aarch32/libarch__arm__core__aarch32.a(swap_helper.S.obj)
 .debug_ranges  0x00000020       0x28 zephyr/arch/arch/arm/core/aarch32/libarch__arm__core__aarch32.a(cpu_idle.S.obj)
 .debug_ranges  0x00000048      0x1c8 app/libapp.a(main.c.obj)
 .debug_ranges  0x00000210       0xe0 app/libapp.a(test_module.c.obj)
 .debug_ranges  0x000002f0       0xc0 app/libapp.a(dynamic_cmd.c.obj)
 .debug_ranges  0x000003b0       0x20 app/libapp.a(qsort.c.obj)
 .debug_ranges  0x000003d0       0x40 zephyr/libzephyr.a(hex.c.obj)
 .debug_ranges  0x00000410       0x30 zephyr/libzephyr.a(notify.c.obj)
 .debug_ranges  0x00000440       0x58 zephyr/libzephyr.a(printk.c.obj)
 .debug_ranges  0x00000498      0x6d0 zephyr/libzephyr.a(onoff.c.obj)
 .debug_ranges  0x00000b68       0x10 zephyr/libzephyr.a(thread_entry.c.obj)
 .debug_ranges  0x00000b78       0xb0 zephyr/libzephyr.a(timeutil.c.obj)
 .debug_ranges  0x00000c28      0x5f8 zephyr/libzephyr.a(heap.c.obj)
 .debug_ranges  0x00001220      0x1d0 zephyr/libzephyr.a(cbprintf_complete.c.obj)
 .debug_ranges  0x000013f0      0x170 zephyr/libzephyr.a(ring_buffer.c.obj)
 .debug_ranges  0x00001560       0x28 zephyr/libzephyr.a(reboot.c.obj)
 .debug_ranges  0x00001588       0x58 zephyr/libzephyr.a(fnmatch.c.obj)
 .debug_ranges  0x000015e0       0x10 zephyr/libzephyr.a(configs.c.obj)
 .debug_ranges  0x000015f0       0x20 zephyr/libzephyr.a(soc.c.obj)
 .debug_ranges  0x00001610       0x30 zephyr/libzephyr.a(power.c.obj)
 .debug_ranges  0x00001640       0x28 zephyr/libzephyr.a(log_list.c.obj)
 .debug_ranges  0x00001668      0xbe8 zephyr/libzephyr.a(log_core.c.obj)
 .debug_ranges  0x00002250      0x198 zephyr/libzephyr.a(log_msg.c.obj)
 .debug_ranges  0x000023e8      0x2b8 zephyr/libzephyr.a(log_output.c.obj)
 .debug_ranges  0x000026a0      0x388 zephyr/libzephyr.a(log_cmds.c.obj)
 .debug_ranges  0x00002a28      0x118 zephyr/libzephyr.a(kernel_service.c.obj)
 .debug_ranges  0x00002b40       0xe0 zephyr/libzephyr.a(device_service.c.obj)
 .debug_ranges  0x00002c20       0x50 zephyr/libzephyr.a(date_service.c.obj)
 .debug_ranges  0x00002c70      0x780 zephyr/libzephyr.a(shell.c.obj)
 .debug_ranges  0x000033f0       0x20 zephyr/libzephyr.a(shell_fprintf.c.obj)
 .debug_ranges  0x00003410      0x230 zephyr/libzephyr.a(shell_utils.c.obj)
 .debug_ranges  0x00003640      0x218 zephyr/libzephyr.a(shell_ops.c.obj)
 .debug_ranges  0x00003858      0x1f8 zephyr/libzephyr.a(shell_uart.c.obj)
 .debug_ranges  0x00003a50      0x120 zephyr/libzephyr.a(shell_help.c.obj)
 .debug_ranges  0x00003b70      0x1b8 zephyr/libzephyr.a(shell_cmds.c.obj)
 .debug_ranges  0x00003d28      0x140 zephyr/libzephyr.a(shell_history.c.obj)
 .debug_ranges  0x00003e68      0x300 zephyr/libzephyr.a(shell_log_backend.c.obj)
 .debug_ranges  0x00004168       0xb8 zephyr/libzephyr.a(shell_wildcard.c.obj)
 .debug_ranges  0x00004220      0x258 zephyr/libzephyr.a(power.c.obj)
 .debug_ranges  0x00004478       0x10 zephyr/libzephyr.a(policy_residency.c.obj)
 .debug_ranges  0x00004488       0x48 zephyr/libzephyr.a(uart_console.c.obj)
 .debug_ranges  0x000044d0      0x778 zephyr/libzephyr.a(clock_control_nrf.c.obj)
 .debug_ranges  0x00004c48       0x30 zephyr/libzephyr.a(sys_clock_init.c.obj)
 .debug_ranges  0x00004c78      0x580 zephyr/libzephyr.a(nrf_rtc_timer.c.obj)
 .debug_ranges  0x000051f8       0x30 zephyr/libzephyr.a(secure_services_ns.c.obj)
 .debug_ranges  0x00005228       0x10 zephyr/arch/arch/arm/core/aarch32/libarch__arm__core__aarch32.a(swap.c.obj)
 .debug_ranges  0x00005238       0x50 zephyr/arch/arch/arm/core/aarch32/libarch__arm__core__aarch32.a(irq_manage.c.obj)
 .debug_ranges  0x00005288       0x20 zephyr/arch/arch/arm/core/aarch32/libarch__arm__core__aarch32.a(thread.c.obj)
 .debug_ranges  0x000052a8      0x140 zephyr/arch/arch/arm/core/aarch32/libarch__arm__core__aarch32.a(fatal.c.obj)
 .debug_ranges  0x000053e8       0x10 zephyr/arch/arch/arm/core/aarch32/libarch__arm__core__aarch32.a(nmi.c.obj)
 .debug_ranges  0x000053f8       0x40 zephyr/arch/arch/arm/core/aarch32/libarch__arm__core__aarch32.a(prep_c.c.obj)
 .debug_ranges  0x00005438      0x860 zephyr/arch/arch/arm/core/aarch32/cortex_m/libarch__arm__core__aarch32__cortex_m.a(fault.c.obj)
 .debug_ranges  0x00005c98       0x10 zephyr/arch/arch/arm/core/aarch32/cortex_m/libarch__arm__core__aarch32__cortex_m.a(fpu.c.obj)
 .debug_ranges  0x00005ca8       0x50 zephyr/arch/arch/arm/core/aarch32/cortex_m/libarch__arm__core__aarch32__cortex_m.a(scb.c.obj)
 .debug_ranges  0x00005cf8       0x30 zephyr/arch/arch/arm/core/aarch32/cortex_m/libarch__arm__core__aarch32__cortex_m.a(irq_init.c.obj)
 .debug_ranges  0x00005d28       0x28 zephyr/arch/arch/arm/core/aarch32/cortex_m/libarch__arm__core__aarch32__cortex_m.a(thread_abort.c.obj)
 .debug_ranges  0x00005d50       0xd8 zephyr/arch/arch/arm/core/aarch32/cortex_m/cmse/libarch__arm__core__aarch32__cortex_m__cmse.a(arm_core_cmse.c.obj)
 .debug_ranges  0x00005e28       0x18 zephyr/arch/arch/arm/core/aarch32/mpu/libarch__arm__core__aarch32__mpu.a(arm_core_mpu.c.obj)
 .debug_ranges  0x00005e40      0x3c0 zephyr/arch/arch/arm/core/aarch32/mpu/libarch__arm__core__aarch32__mpu.a(arm_mpu.c.obj)
 .debug_ranges  0x00006200       0x10 zephyr/lib/libc/minimal/liblib__libc__minimal.a(strtol.c.obj)
 .debug_ranges  0x00006210       0x10 zephyr/lib/libc/minimal/liblib__libc__minimal.a(strstr.c.obj)
 .debug_ranges  0x00006220       0x88 zephyr/lib/libc/minimal/liblib__libc__minimal.a(string.c.obj)
 .debug_ranges  0x000062a8       0x78 zephyr/lib/libc/minimal/liblib__libc__minimal.a(stdout_console.c.obj)
 .debug_ranges  0x00006320       0x30 zephyr/lib/libc/minimal/liblib__libc__minimal.a(sprintf.c.obj)
 .debug_ranges  0x00006350       0x28 zephyr/lib/libc/minimal/liblib__libc__minimal.a(fprintf.c.obj)
 .debug_ranges  0x00006378       0x38 zephyr/lib/libc/minimal/liblib__libc__minimal.a(gmtime.c.obj)
 .debug_ranges  0x000063b0       0x90 zephyr/lib/posix/liblib__posix.a(clock.c.obj)
 .debug_ranges  0x00006440      0x698 zephyr/drivers/gpio/libdrivers__gpio.a(gpio_nrfx.c.obj)
 .debug_ranges  0x00006ad8      0x678 zephyr/drivers/serial/libdrivers__serial.a(uart_nrfx_uarte.c.obj)
 .debug_ranges  0x00007150       0x18 zephyr/drivers/entropy/libdrivers__entropy.a(entropy_cc310.c.obj)
 .debug_ranges  0x00007168       0x60 modules/nrf/lib/fatal_error/lib..__nrf__lib__fatal_error.a(fatal_error.c.obj)
 .debug_ranges  0x000071c8      0x190 modules/nrf/subsys/fw_info/lib..__nrf__subsys__fw_info.a(fw_info.c.obj)
 .debug_ranges  0x00007358       0x18 modules/hal_nordic/nrfx/libmodules__hal_nordic__nrfx.a(system_nrf5340_application.c.obj)
 .debug_ranges  0x00007370       0x20 modules/hal_nordic/nrfx/libmodules__hal_nordic__nrfx.a(nrfx_glue.c.obj)
 .debug_ranges  0x00007390      0x3d0 modules/hal_nordic/nrfx/libmodules__hal_nordic__nrfx.a(nrfx_clock.c.obj)
 .debug_ranges  0x00007760      0x268 modules/hal_nordic/nrfx/libmodules__hal_nordic__nrfx.a(nrfx_dppi.c.obj)
 .debug_ranges  0x000079c8      0xbe8 modules/hal_nordic/nrfx/libmodules__hal_nordic__nrfx.a(nrfx_gpiote.c.obj)
 .debug_ranges  0x000085b0       0xc0 zephyr/kernel/libkernel.a(device.c.obj)
 .debug_ranges  0x00008670       0x10 zephyr/kernel/libkernel.a(errno.c.obj)
 .debug_ranges  0x00008680      0x200 zephyr/kernel/libkernel.a(fatal.c.obj)
 .debug_ranges  0x00008880      0x218 zephyr/kernel/libkernel.a(init.c.obj)
 .debug_ranges  0x00008a98      0x120 zephyr/kernel/libkernel.a(mem_slab.c.obj)
 .debug_ranges  0x00008bb8      0x428 zephyr/kernel/libkernel.a(thread.c.obj)
 .debug_ranges  0x00008fe0       0x10 zephyr/kernel/libkernel.a(version.c.obj)
 .debug_ranges  0x00008ff0       0x30 zephyr/kernel/libkernel.a(idle.c.obj)
 .debug_ranges  0x00009020      0x1a8 zephyr/kernel/libkernel.a(msg_q.c.obj)
 .debug_ranges  0x000091c8       0xf8 zephyr/kernel/libkernel.a(mutex.c.obj)
 .debug_ranges  0x000092c0       0xd0 zephyr/kernel/libkernel.a(sem.c.obj)
 .debug_ranges  0x00009390     0x11f8 zephyr/kernel/libkernel.a(sched.c.obj)
 .debug_ranges  0x0000a588       0x10 zephyr/kernel/libkernel.a(xip.c.obj)
 .debug_ranges  0x0000a598      0x418 zephyr/kernel/libkernel.a(timeout.c.obj)
 .debug_ranges  0x0000a9b0      0x130 zephyr/kernel/libkernel.a(timer.c.obj)
 .debug_ranges  0x0000aae0      0x4e0 zephyr/kernel/libkernel.a(poll.c.obj)
 .debug_ranges  0x0000afc0       0x10 zephyr/kernel/libkernel.a(banner.c.obj)
 .debug_ranges  0x0000afd0       0xa0 zephyr/kernel/libkernel.a(kheap.c.obj)
 .debug_ranges  0x0000b070       0x10 zephyr/kernel/libkernel.a(system_work_q.c.obj)
 .debug_ranges  0x0000b080      0xc48 zephyr/kernel/libkernel.a(work.c.obj)
 .debug_ranges  0x0000bcc8       0x10 zephyr/CMakeFiles/offsets.dir/./arch/arm/core/offsets/offsets.c.obj

.debug_macro
 *(SORT_BY_ALIGNMENT(.debug_macro))

.ARM.attributes
                0x00000000       0x34
 *(SORT_BY_ALIGNMENT(.ARM.attributes))
 .ARM.attributes
                0x00000000       0x36 zephyr/CMakeFiles/zephyr_prebuilt.dir/misc/empty_file.c.obj
 .ARM.attributes
                0x00000036       0x34 app/libapp.a(main.c.obj)
 .ARM.attributes
                0x0000006a       0x34 app/libapp.a(test_module.c.obj)
 .ARM.attributes
                0x0000009e       0x34 app/libapp.a(dynamic_cmd.c.obj)
 .ARM.attributes
                0x000000d2       0x34 app/libapp.a(qsort.c.obj)
 .ARM.attributes
                0x00000106       0x34 zephyr/libzephyr.a(cbprintf.c.obj)
 .ARM.attributes
                0x0000013a       0x34 zephyr/libzephyr.a(cbprintf_packaged.c.obj)
 .ARM.attributes
                0x0000016e       0x34 zephyr/libzephyr.a(crc32c_sw.c.obj)
 .ARM.attributes
                0x000001a2       0x34 zephyr/libzephyr.a(crc32_sw.c.obj)
 .ARM.attributes
                0x000001d6       0x34 zephyr/libzephyr.a(crc16_sw.c.obj)
 .ARM.attributes
                0x0000020a       0x34 zephyr/libzephyr.a(crc8_sw.c.obj)
 .ARM.attributes
                0x0000023e       0x34 zephyr/libzephyr.a(crc7_sw.c.obj)
 .ARM.attributes
                0x00000272       0x34 zephyr/libzephyr.a(dec.c.obj)
 .ARM.attributes
                0x000002a6       0x34 zephyr/libzephyr.a(fdtable.c.obj)
 .ARM.attributes
                0x000002da       0x34 zephyr/libzephyr.a(hex.c.obj)
 .ARM.attributes
                0x0000030e       0x34 zephyr/libzephyr.a(notify.c.obj)
 .ARM.attributes
                0x00000342       0x34 zephyr/libzephyr.a(printk.c.obj)
 .ARM.attributes
                0x00000376       0x34 zephyr/libzephyr.a(onoff.c.obj)
 .ARM.attributes
                0x000003aa       0x34 zephyr/libzephyr.a(rb.c.obj)
 .ARM.attributes
                0x000003de       0x34 zephyr/libzephyr.a(sem.c.obj)
 .ARM.attributes
                0x00000412       0x34 zephyr/libzephyr.a(thread_entry.c.obj)
 .ARM.attributes
                0x00000446       0x34 zephyr/libzephyr.a(timeutil.c.obj)
 .ARM.attributes
                0x0000047a       0x34 zephyr/libzephyr.a(heap.c.obj)
 .ARM.attributes
                0x000004ae       0x34 zephyr/libzephyr.a(heap-validate.c.obj)
 .ARM.attributes
                0x000004e2       0x34 zephyr/libzephyr.a(bitarray.c.obj)
 .ARM.attributes
                0x00000516       0x34 zephyr/libzephyr.a(cbprintf_complete.c.obj)
 .ARM.attributes
                0x0000054a       0x34 zephyr/libzephyr.a(ring_buffer.c.obj)
 .ARM.attributes
                0x0000057e       0x34 zephyr/libzephyr.a(mpsc_pbuf.c.obj)
 .ARM.attributes
                0x000005b2       0x34 zephyr/libzephyr.a(reboot.c.obj)
 .ARM.attributes
                0x000005e6       0x34 zephyr/libzephyr.a(fnmatch.c.obj)
 .ARM.attributes
                0x0000061a       0x34 zephyr/libzephyr.a(configs.c.obj)
 .ARM.attributes
                0x0000064e       0x34 zephyr/libzephyr.a(soc.c.obj)
 .ARM.attributes
                0x00000682       0x34 zephyr/libzephyr.a(power.c.obj)
 .ARM.attributes
                0x000006b6       0x36 zephyr/libzephyr.a(validate_base_addresses.c.obj)
 .ARM.attributes
                0x000006ec       0x36 zephyr/libzephyr.a(validate_enabled_instances.c.obj)
 .ARM.attributes
                0x00000722       0x34 zephyr/libzephyr.a(log_list.c.obj)
 .ARM.attributes
                0x00000756       0x34 zephyr/libzephyr.a(log_core.c.obj)
 .ARM.attributes
                0x0000078a       0x34 zephyr/libzephyr.a(log_msg.c.obj)
 .ARM.attributes
                0x000007be       0x34 zephyr/libzephyr.a(log_output.c.obj)
 .ARM.attributes
                0x000007f2       0x34 zephyr/libzephyr.a(log_cmds.c.obj)
 .ARM.attributes
                0x00000826       0x34 zephyr/libzephyr.a(kernel_service.c.obj)
 .ARM.attributes
                0x0000085a       0x34 zephyr/libzephyr.a(device_service.c.obj)
 .ARM.attributes
                0x0000088e       0x34 zephyr/libzephyr.a(date_service.c.obj)
 .ARM.attributes
                0x000008c2       0x34 zephyr/libzephyr.a(shell.c.obj)
 .ARM.attributes
                0x000008f6       0x34 zephyr/libzephyr.a(shell_fprintf.c.obj)
 .ARM.attributes
                0x0000092a       0x34 zephyr/libzephyr.a(shell_utils.c.obj)
 .ARM.attributes
                0x0000095e       0x34 zephyr/libzephyr.a(shell_ops.c.obj)
 .ARM.attributes
                0x00000992       0x34 zephyr/libzephyr.a(shell_uart.c.obj)
 .ARM.attributes
                0x000009c6       0x34 zephyr/libzephyr.a(shell_help.c.obj)
 .ARM.attributes
                0x000009fa       0x34 zephyr/libzephyr.a(shell_cmds.c.obj)
 .ARM.attributes
                0x00000a2e       0x34 zephyr/libzephyr.a(shell_history.c.obj)
 .ARM.attributes
                0x00000a62       0x34 zephyr/libzephyr.a(shell_log_backend.c.obj)
 .ARM.attributes
                0x00000a96       0x34 zephyr/libzephyr.a(shell_wildcard.c.obj)
 .ARM.attributes
                0x00000aca       0x34 zephyr/libzephyr.a(power.c.obj)
 .ARM.attributes
                0x00000afe       0x34 zephyr/libzephyr.a(pm_ctrl.c.obj)
 .ARM.attributes
                0x00000b32       0x34 zephyr/libzephyr.a(policy_residency.c.obj)
 .ARM.attributes
                0x00000b66       0x34 zephyr/libzephyr.a(uart_console.c.obj)
 .ARM.attributes
                0x00000b9a       0x34 zephyr/libzephyr.a(clock_control_nrf.c.obj)
 .ARM.attributes
                0x00000bce       0x34 zephyr/libzephyr.a(sys_clock_init.c.obj)
 .ARM.attributes
                0x00000c02       0x34 zephyr/libzephyr.a(nrf_rtc_timer.c.obj)
 .ARM.attributes
                0x00000c36       0x34 zephyr/libzephyr.a(secure_services_ns.c.obj)
 .ARM.attributes
                0x00000c6a       0x36 zephyr/libzephyr.a(flash_map_partition_manager.c.obj)
 .ARM.attributes
                0x00000ca0       0x36 zephyr/arch/common/libarch__common.a(sw_isr_common.c.obj)
 .ARM.attributes
                0x00000cd6       0x34 zephyr/arch/arch/arm/core/aarch32/libarch__arm__core__aarch32.a(swap.c.obj)
 .ARM.attributes
                0x00000d0a       0x34 zephyr/arch/arch/arm/core/aarch32/libarch__arm__core__aarch32.a(irq_manage.c.obj)
 .ARM.attributes
                0x00000d3e       0x34 zephyr/arch/arch/arm/core/aarch32/libarch__arm__core__aarch32.a(thread.c.obj)
 .ARM.attributes
                0x00000d72       0x34 zephyr/arch/arch/arm/core/aarch32/libarch__arm__core__aarch32.a(fatal.c.obj)
 .ARM.attributes
                0x00000da6       0x34 zephyr/arch/arch/arm/core/aarch32/libarch__arm__core__aarch32.a(nmi.c.obj)
 .ARM.attributes
                0x00000dda       0x34 zephyr/arch/arch/arm/core/aarch32/libarch__arm__core__aarch32.a(prep_c.c.obj)
 .ARM.attributes
                0x00000e0e       0x22 zephyr/arch/arch/arm/core/aarch32/libarch__arm__core__aarch32.a(swap_helper.S.obj)
 .ARM.attributes
                0x00000e30       0x22 zephyr/arch/arch/arm/core/aarch32/libarch__arm__core__aarch32.a(cpu_idle.S.obj)
 .ARM.attributes
                0x00000e52       0x22 zephyr/arch/arch/arm/core/aarch32/libarch__arm__core__aarch32.a(nmi_on_reset.S.obj)
 .ARM.attributes
                0x00000e74       0x22 zephyr/arch/arch/arm/core/aarch32/libarch__arm__core__aarch32.a(isr_wrapper.S.obj)
 .ARM.attributes
                0x00000e96       0x22 zephyr/arch/arch/arm/core/aarch32/cortex_m/libarch__arm__core__aarch32__cortex_m.a(vector_table.S.obj)
 .ARM.attributes
                0x00000eb8       0x22 zephyr/arch/arch/arm/core/aarch32/cortex_m/libarch__arm__core__aarch32__cortex_m.a(reset.S.obj)
 .ARM.attributes
                0x00000eda       0x22 zephyr/arch/arch/arm/core/aarch32/cortex_m/libarch__arm__core__aarch32__cortex_m.a(fault_s.S.obj)
 .ARM.attributes
                0x00000efc       0x22 zephyr/arch/arch/arm/core/aarch32/cortex_m/libarch__arm__core__aarch32__cortex_m.a(exc_exit.S.obj)
 .ARM.attributes
                0x00000f1e       0x34 zephyr/arch/arch/arm/core/aarch32/cortex_m/libarch__arm__core__aarch32__cortex_m.a(fault.c.obj)
 .ARM.attributes
                0x00000f52       0x34 zephyr/arch/arch/arm/core/aarch32/cortex_m/libarch__arm__core__aarch32__cortex_m.a(fpu.c.obj)
 .ARM.attributes
                0x00000f86       0x34 zephyr/arch/arch/arm/core/aarch32/cortex_m/libarch__arm__core__aarch32__cortex_m.a(scb.c.obj)
 .ARM.attributes
                0x00000fba       0x34 zephyr/arch/arch/arm/core/aarch32/cortex_m/libarch__arm__core__aarch32__cortex_m.a(irq_init.c.obj)
 .ARM.attributes
                0x00000fee       0x34 zephyr/arch/arch/arm/core/aarch32/cortex_m/libarch__arm__core__aarch32__cortex_m.a(thread_abort.c.obj)
 .ARM.attributes
                0x00001022       0x34 zephyr/arch/arch/arm/core/aarch32/cortex_m/cmse/libarch__arm__core__aarch32__cortex_m__cmse.a(arm_core_cmse.c.obj)
 .ARM.attributes
                0x00001056       0x34 zephyr/arch/arch/arm/core/aarch32/mpu/libarch__arm__core__aarch32__mpu.a(arm_core_mpu.c.obj)
 .ARM.attributes
                0x0000108a       0x34 zephyr/arch/arch/arm/core/aarch32/mpu/libarch__arm__core__aarch32__mpu.a(arm_mpu.c.obj)
 .ARM.attributes
                0x000010be       0x34 zephyr/lib/libc/minimal/liblib__libc__minimal.a(abort.c.obj)
 .ARM.attributes
                0x000010f2       0x34 zephyr/lib/libc/minimal/liblib__libc__minimal.a(atoi.c.obj)
 .ARM.attributes
                0x00001126       0x34 zephyr/lib/libc/minimal/liblib__libc__minimal.a(strtol.c.obj)
 .ARM.attributes
                0x0000115a       0x34 zephyr/lib/libc/minimal/liblib__libc__minimal.a(strtoul.c.obj)
 .ARM.attributes
                0x0000118e       0x34 zephyr/lib/libc/minimal/liblib__libc__minimal.a(malloc.c.obj)
 .ARM.attributes
                0x000011c2       0x34 zephyr/lib/libc/minimal/liblib__libc__minimal.a(bsearch.c.obj)
 .ARM.attributes
                0x000011f6       0x34 zephyr/lib/libc/minimal/liblib__libc__minimal.a(exit.c.obj)
 .ARM.attributes
                0x0000122a       0x34 zephyr/lib/libc/minimal/liblib__libc__minimal.a(strncasecmp.c.obj)
 .ARM.attributes
                0x0000125e       0x34 zephyr/lib/libc/minimal/liblib__libc__minimal.a(strstr.c.obj)
 .ARM.attributes
                0x00001292       0x34 zephyr/lib/libc/minimal/liblib__libc__minimal.a(string.c.obj)
 .ARM.attributes
                0x000012c6       0x34 zephyr/lib/libc/minimal/liblib__libc__minimal.a(strspn.c.obj)
 .ARM.attributes
                0x000012fa       0x34 zephyr/lib/libc/minimal/liblib__libc__minimal.a(stdout_console.c.obj)
 .ARM.attributes
                0x0000132e       0x34 zephyr/lib/libc/minimal/liblib__libc__minimal.a(sprintf.c.obj)
 .ARM.attributes
                0x00001362       0x34 zephyr/lib/libc/minimal/liblib__libc__minimal.a(fprintf.c.obj)
 .ARM.attributes
                0x00001396       0x34 zephyr/lib/libc/minimal/liblib__libc__minimal.a(gmtime.c.obj)
 .ARM.attributes
                0x000013ca       0x34 zephyr/lib/libc/minimal/liblib__libc__minimal.a(time.c.obj)
 .ARM.attributes
                0x000013fe       0x34 zephyr/lib/posix/liblib__posix.a(pthread_common.c.obj)
 .ARM.attributes
                0x00001432       0x34 zephyr/lib/posix/liblib__posix.a(clock.c.obj)
 .ARM.attributes
                0x00001466       0x34 zephyr/lib/posix/liblib__posix.a(sleep.c.obj)
 .ARM.attributes
                0x0000149a       0x34 zephyr/lib/posix/liblib__posix.a(timer.c.obj)
 .ARM.attributes
                0x000014ce       0x34 zephyr/lib/posix/liblib__posix.a(nanosleep.c.obj)
 .ARM.attributes
                0x00001502       0x36 zephyr/soc/arm/common/cortex_m/libsoc__arm__common__cortex_m.a(arm_mpu_regions.c.obj)
 .ARM.attributes
                0x00001538       0x34 zephyr/subsys/random/libsubsys__random.a(rand32_entropy_device.c.obj)
 .ARM.attributes
                0x0000156c       0x34 zephyr/drivers/gpio/libdrivers__gpio.a(gpio_nrfx.c.obj)
 .ARM.attributes
                0x000015a0       0x34 zephyr/drivers/serial/libdrivers__serial.a(uart_nrfx_uarte.c.obj)
 .ARM.attributes
                0x000015d4       0x34 zephyr/drivers/entropy/libdrivers__entropy.a(entropy_cc310.c.obj)
 .ARM.attributes
                0x00001608       0x34 modules/nrf/lib/fatal_error/lib..__nrf__lib__fatal_error.a(fatal_error.c.obj)
 .ARM.attributes
                0x0000163c       0x34 modules/nrf/subsys/fw_info/lib..__nrf__subsys__fw_info.a(fw_info.c.obj)
 .ARM.attributes
                0x00001670       0x34 modules/hal_nordic/nrfx/libmodules__hal_nordic__nrfx.a(system_nrf5340_application.c.obj)
 .ARM.attributes
                0x000016a4       0x34 modules/hal_nordic/nrfx/libmodules__hal_nordic__nrfx.a(nrfx_glue.c.obj)
 .ARM.attributes
                0x000016d8       0x34 modules/hal_nordic/nrfx/libmodules__hal_nordic__nrfx.a(nrfx_clock.c.obj)
 .ARM.attributes
                0x0000170c       0x34 modules/hal_nordic/nrfx/libmodules__hal_nordic__nrfx.a(nrfx_dppi.c.obj)
 .ARM.attributes
                0x00001740       0x34 modules/hal_nordic/nrfx/libmodules__hal_nordic__nrfx.a(nrfx_gpiote.c.obj)
 .ARM.attributes
                0x00001774       0x34 modules/hal_nordic/nrfx/libmodules__hal_nordic__nrfx.a(nrfx_nvmc.c.obj)
 .ARM.attributes
                0x000017a8       0x34 zephyr/kernel/libkernel.a(device.c.obj)
 .ARM.attributes
                0x000017dc       0x34 zephyr/kernel/libkernel.a(errno.c.obj)
 .ARM.attributes
                0x00001810       0x34 zephyr/kernel/libkernel.a(fatal.c.obj)
 .ARM.attributes
                0x00001844       0x34 zephyr/kernel/libkernel.a(init.c.obj)
 .ARM.attributes
                0x00001878       0x34 zephyr/kernel/libkernel.a(mem_slab.c.obj)
 .ARM.attributes
                0x000018ac       0x34 zephyr/kernel/libkernel.a(thread.c.obj)
 .ARM.attributes
                0x000018e0       0x34 zephyr/kernel/libkernel.a(version.c.obj)
 .ARM.attributes
                0x00001914       0x34 zephyr/kernel/libkernel.a(idle.c.obj)
 .ARM.attributes
                0x00001948       0x34 zephyr/kernel/libkernel.a(msg_q.c.obj)
 .ARM.attributes
                0x0000197c       0x34 zephyr/kernel/libkernel.a(mutex.c.obj)
 .ARM.attributes
                0x000019b0       0x34 zephyr/kernel/libkernel.a(sem.c.obj)
 .ARM.attributes
                0x000019e4       0x34 zephyr/kernel/libkernel.a(sched.c.obj)
 .ARM.attributes
                0x00001a18       0x34 zephyr/kernel/libkernel.a(xip.c.obj)
 .ARM.attributes
                0x00001a4c       0x34 zephyr/kernel/libkernel.a(timeout.c.obj)
 .ARM.attributes
                0x00001a80       0x34 zephyr/kernel/libkernel.a(timer.c.obj)
 .ARM.attributes
                0x00001ab4       0x34 zephyr/kernel/libkernel.a(poll.c.obj)
 .ARM.attributes
                0x00001ae8       0x34 zephyr/kernel/libkernel.a(mempool.c.obj)
 .ARM.attributes
                0x00001b1c       0x34 zephyr/kernel/libkernel.a(banner.c.obj)
 .ARM.attributes
                0x00001b50       0x34 zephyr/kernel/libkernel.a(kheap.c.obj)
 .ARM.attributes
                0x00001b84       0x34 zephyr/kernel/libkernel.a(system_work_q.c.obj)
 .ARM.attributes
                0x00001bb8       0x34 zephyr/kernel/libkernel.a(work.c.obj)
 .ARM.attributes
                0x00001bec       0x34 zephyr/CMakeFiles/offsets.dir/./arch/arm/core/offsets/offsets.c.obj
 .ARM.attributes
                0x00001c20       0x32 c:/ncs/v1.6.0/toolchain/opt/bin/../lib/gcc/arm-none-eabi/9.2.1/thumb/v8-m.main/nofp\libgcc.a(cmse.o)
 .ARM.attributes
                0x00001c52       0x22 c:/ncs/v1.6.0/toolchain/opt/bin/../lib/gcc/arm-none-eabi/9.2.1/thumb/v8-m.main/nofp\libgcc.a(_arm_muldf3.o)
 .ARM.attributes
                0x00001c74       0x22 c:/ncs/v1.6.0/toolchain/opt/bin/../lib/gcc/arm-none-eabi/9.2.1/thumb/v8-m.main/nofp\libgcc.a(_arm_mulsf3.o)
 .ARM.attributes
                0x00001c96       0x22 c:/ncs/v1.6.0/toolchain/opt/bin/../lib/gcc/arm-none-eabi/9.2.1/thumb/v8-m.main/nofp\libgcc.a(_arm_addsubdf3.o)
 .ARM.attributes
                0x00001cb8       0x22 c:/ncs/v1.6.0/toolchain/opt/bin/../lib/gcc/arm-none-eabi/9.2.1/thumb/v8-m.main/nofp\libgcc.a(_arm_muldivdf3.o)
 .ARM.attributes
                0x00001cda       0x22 c:/ncs/v1.6.0/toolchain/opt/bin/../lib/gcc/arm-none-eabi/9.2.1/thumb/v8-m.main/nofp\libgcc.a(_arm_truncdfsf2.o)
 .ARM.attributes
                0x00001cfc       0x22 c:/ncs/v1.6.0/toolchain/opt/bin/../lib/gcc/arm-none-eabi/9.2.1/thumb/v8-m.main/nofp\libgcc.a(_arm_addsubsf3.o)
 .ARM.attributes
                0x00001d1e       0x22 c:/ncs/v1.6.0/toolchain/opt/bin/../lib/gcc/arm-none-eabi/9.2.1/thumb/v8-m.main/nofp\libgcc.a(_arm_muldivsf3.o)
 .ARM.attributes
                0x00001d40       0x22 c:/ncs/v1.6.0/toolchain/opt/bin/../lib/gcc/arm-none-eabi/9.2.1/thumb/v8-m.main/nofp\libgcc.a(_arm_cmpsf2.o)
 .ARM.attributes
                0x00001d62       0x22 c:/ncs/v1.6.0/toolchain/opt/bin/../lib/gcc/arm-none-eabi/9.2.1/thumb/v8-m.main/nofp\libgcc.a(_aeabi_ldivmod.o)
 .ARM.attributes
                0x00001d84       0x22 c:/ncs/v1.6.0/toolchain/opt/bin/../lib/gcc/arm-none-eabi/9.2.1/thumb/v8-m.main/nofp\libgcc.a(_aeabi_uldivmod.o)
 .ARM.attributes
                0x00001da6       0x32 c:/ncs/v1.6.0/toolchain/opt/bin/../lib/gcc/arm-none-eabi/9.2.1/thumb/v8-m.main/nofp\libgcc.a(_fixsfdi.o)
 .ARM.attributes
                0x00001dd8       0x32 c:/ncs/v1.6.0/toolchain/opt/bin/../lib/gcc/arm-none-eabi/9.2.1/thumb/v8-m.main/nofp\libgcc.a(_fixdfdi.o)
 .ARM.attributes
                0x00001e0a       0x32 c:/ncs/v1.6.0/toolchain/opt/bin/../lib/gcc/arm-none-eabi/9.2.1/thumb/v8-m.main/nofp\libgcc.a(_fixunssfdi.o)
 .ARM.attributes
                0x00001e3c       0x32 c:/ncs/v1.6.0/toolchain/opt/bin/../lib/gcc/arm-none-eabi/9.2.1/thumb/v8-m.main/nofp\libgcc.a(_fixunsdfdi.o)
 .ARM.attributes
                0x00001e6e       0x32 c:/ncs/v1.6.0/toolchain/opt/bin/../lib/gcc/arm-none-eabi/9.2.1/thumb/v8-m.main/nofp\libgcc.a(_udivmoddi4.o)
 .ARM.attributes
                0x00001ea0       0x22 c:/ncs/v1.6.0/toolchain/opt/bin/../lib/gcc/arm-none-eabi/9.2.1/thumb/v8-m.main/nofp\libgcc.a(_dvmd_tls.o)
 .ARM.attributes
                0x00001ec2       0x22 c:/ncs/v1.6.0/toolchain/opt/bin/../lib/gcc/arm-none-eabi/9.2.1/thumb/v8-m.main/nofp\libgcc.a(_arm_cmpdf2.o)
 .ARM.attributes
                0x00001ee4       0x22 c:/ncs/v1.6.0/toolchain/opt/bin/../lib/gcc/arm-none-eabi/9.2.1/thumb/v8-m.main/nofp\libgcc.a(_arm_fixunsdfsi.o)
 .ARM.attributes
                0x00001f06       0x34 ../mylib/src/libblst.a(server.o)
 .ARM.attributes
                0x00001f3a       0x36 zephyr/arch/common/libisr_tables.a(isr_tables.c.obj)
 *(SORT_BY_ALIGNMENT(.gnu.attributes))

.last_section   0x0002cf58        0x0
                0x0001cf58                _flash_used = (LOADADDR (.last_section) - _image_rom_start)
LOAD app/libapp.a
LOAD zephyr/libzephyr.a
LOAD zephyr/arch/common/libarch__common.a
LOAD zephyr/arch/arch/arm/core/aarch32/libarch__arm__core__aarch32.a
LOAD zephyr/arch/arch/arm/core/aarch32/cortex_m/libarch__arm__core__aarch32__cortex_m.a
LOAD zephyr/arch/arch/arm/core/aarch32/cortex_m/cmse/libarch__arm__core__aarch32__cortex_m__cmse.a
LOAD zephyr/arch/arch/arm/core/aarch32/mpu/libarch__arm__core__aarch32__mpu.a
LOAD zephyr/lib/libc/minimal/liblib__libc__minimal.a
LOAD zephyr/lib/posix/liblib__posix.a
LOAD zephyr/soc/arm/common/cortex_m/libsoc__arm__common__cortex_m.a
LOAD zephyr/subsys/random/libsubsys__random.a
LOAD zephyr/drivers/gpio/libdrivers__gpio.a
LOAD zephyr/drivers/serial/libdrivers__serial.a
LOAD zephyr/drivers/entropy/libdrivers__entropy.a
LOAD modules/nrf/lib/fatal_error/lib..__nrf__lib__fatal_error.a
LOAD modules/nrf/subsys/fw_info/lib..__nrf__subsys__fw_info.a
LOAD modules/hal_nordic/nrfx/libmodules__hal_nordic__nrfx.a
LOAD zephyr/kernel/libkernel.a
LOAD zephyr/CMakeFiles/offsets.dir/./arch/arm/core/offsets/offsets.c.obj
LOAD c:/ncs/v1.6.0/toolchain/opt/bin/../lib/gcc/arm-none-eabi/9.2.1/thumb/v8-m.main/nofp\libgcc.a
LOAD ../mylib/src/libblst.a
LOAD zephyr/arch/common/libisr_tables.a
LOAD spm/libspmsecureentries.a
OUTPUT(zephyr\zephyr_prebuilt.elf elf32-littlearm)
