Archive member included to satisfy reference by file (symbol)

app/libapp.a(main.c.obj)      (--whole-archive)
app/libapp.a(test_module.c.obj)
                              (--whole-archive)
app/libapp.a(dynamic_cmd.c.obj)
                              (--whole-archive)
app/libapp.a(qsort.c.obj)     (--whole-archive)
zephyr/libzephyr.a(cbprintf.c.obj)
                              (--whole-archive)
zephyr/libzephyr.a(cbprintf_packaged.c.obj)
                              (--whole-archive)
zephyr/libzephyr.a(crc32c_sw.c.obj)
                              (--whole-archive)
zephyr/libzephyr.a(crc32_sw.c.obj)
                              (--whole-archive)
zephyr/libzephyr.a(crc16_sw.c.obj)
                              (--whole-archive)
zephyr/libzephyr.a(crc8_sw.c.obj)
                              (--whole-archive)
zephyr/libzephyr.a(crc7_sw.c.obj)
                              (--whole-archive)
zephyr/libzephyr.a(dec.c.obj)
                              (--whole-archive)
zephyr/libzephyr.a(fdtable.c.obj)
                              (--whole-archive)
zephyr/libzephyr.a(hex.c.obj)
                              (--whole-archive)
zephyr/libzephyr.a(notify.c.obj)
                              (--whole-archive)
zephyr/libzephyr.a(printk.c.obj)
                              (--whole-archive)
zephyr/libzephyr.a(onoff.c.obj)
                              (--whole-archive)
zephyr/libzephyr.a(rb.c.obj)  (--whole-archive)
zephyr/libzephyr.a(sem.c.obj)
                              (--whole-archive)
zephyr/libzephyr.a(thread_entry.c.obj)
                              (--whole-archive)
zephyr/libzephyr.a(timeutil.c.obj)
                              (--whole-archive)
zephyr/libzephyr.a(heap.c.obj)
                              (--whole-archive)
zephyr/libzephyr.a(heap-validate.c.obj)
                              (--whole-archive)
zephyr/libzephyr.a(bitarray.c.obj)
                              (--whole-archive)
zephyr/libzephyr.a(cbprintf_complete.c.obj)
                              (--whole-archive)
zephyr/libzephyr.a(ring_buffer.c.obj)
                              (--whole-archive)
zephyr/libzephyr.a(mpsc_pbuf.c.obj)
                              (--whole-archive)
zephyr/libzephyr.a(reboot.c.obj)
                              (--whole-archive)
zephyr/libzephyr.a(fnmatch.c.obj)
                              (--whole-archive)
zephyr/libzephyr.a(configs.c.obj)
                              (--whole-archive)
zephyr/libzephyr.a(soc.c.obj)
                              (--whole-archive)
zephyr/libzephyr.a(power.c.obj)
                              (--whole-archive)
zephyr/libzephyr.a(validate_base_addresses.c.obj)
                              (--whole-archive)
zephyr/libzephyr.a(validate_enabled_instances.c.obj)
                              (--whole-archive)
zephyr/libzephyr.a(log_list.c.obj)
                              (--whole-archive)
zephyr/libzephyr.a(log_core.c.obj)
                              (--whole-archive)
zephyr/libzephyr.a(log_msg.c.obj)
                              (--whole-archive)
zephyr/libzephyr.a(log_output.c.obj)
                              (--whole-archive)
zephyr/libzephyr.a(log_cmds.c.obj)
                              (--whole-archive)
zephyr/libzephyr.a(kernel_service.c.obj)
                              (--whole-archive)
zephyr/libzephyr.a(device_service.c.obj)
                              (--whole-archive)
zephyr/libzephyr.a(date_service.c.obj)
                              (--whole-archive)
zephyr/libzephyr.a(shell.c.obj)
                              (--whole-archive)
zephyr/libzephyr.a(shell_fprintf.c.obj)
                              (--whole-archive)
zephyr/libzephyr.a(shell_utils.c.obj)
                              (--whole-archive)
zephyr/libzephyr.a(shell_ops.c.obj)
                              (--whole-archive)
zephyr/libzephyr.a(shell_uart.c.obj)
                              (--whole-archive)
zephyr/libzephyr.a(shell_help.c.obj)
                              (--whole-archive)
zephyr/libzephyr.a(shell_cmds.c.obj)
                              (--whole-archive)
zephyr/libzephyr.a(shell_history.c.obj)
                              (--whole-archive)
zephyr/libzephyr.a(shell_log_backend.c.obj)
                              (--whole-archive)
zephyr/libzephyr.a(shell_wildcard.c.obj)
                              (--whole-archive)
zephyr/libzephyr.a(power.c.obj)
                              (--whole-archive)
zephyr/libzephyr.a(pm_ctrl.c.obj)
                              (--whole-archive)
zephyr/libzephyr.a(policy_residency.c.obj)
                              (--whole-archive)
zephyr/libzephyr.a(uart_console.c.obj)
                              (--whole-archive)
zephyr/libzephyr.a(clock_control_nrf.c.obj)
                              (--whole-archive)
zephyr/libzephyr.a(sys_clock_init.c.obj)
                              (--whole-archive)
zephyr/libzephyr.a(nrf_rtc_timer.c.obj)
                              (--whole-archive)
zephyr/libzephyr.a(secure_services_ns.c.obj)
                              (--whole-archive)
zephyr/libzephyr.a(flash_map_partition_manager.c.obj)
                              (--whole-archive)
zephyr/arch/common/libarch__common.a(sw_isr_common.c.obj)
                              (--whole-archive)
zephyr/arch/arch/arm/core/aarch32/libarch__arm__core__aarch32.a(swap.c.obj)
                              (--whole-archive)
zephyr/arch/arch/arm/core/aarch32/libarch__arm__core__aarch32.a(irq_manage.c.obj)
                              (--whole-archive)
zephyr/arch/arch/arm/core/aarch32/libarch__arm__core__aarch32.a(thread.c.obj)
                              (--whole-archive)
zephyr/arch/arch/arm/core/aarch32/libarch__arm__core__aarch32.a(fatal.c.obj)
                              (--whole-archive)
zephyr/arch/arch/arm/core/aarch32/libarch__arm__core__aarch32.a(nmi.c.obj)
                              (--whole-archive)
zephyr/arch/arch/arm/core/aarch32/libarch__arm__core__aarch32.a(prep_c.c.obj)
                              (--whole-archive)
zephyr/arch/arch/arm/core/aarch32/libarch__arm__core__aarch32.a(swap_helper.S.obj)
                              (--whole-archive)
zephyr/arch/arch/arm/core/aarch32/libarch__arm__core__aarch32.a(cpu_idle.S.obj)
                              (--whole-archive)
zephyr/arch/arch/arm/core/aarch32/libarch__arm__core__aarch32.a(nmi_on_reset.S.obj)
                              (--whole-archive)
zephyr/arch/arch/arm/core/aarch32/libarch__arm__core__aarch32.a(isr_wrapper.S.obj)
                              (--whole-archive)
zephyr/arch/arch/arm/core/aarch32/cortex_m/libarch__arm__core__aarch32__cortex_m.a(vector_table.S.obj)
                              (--whole-archive)
zephyr/arch/arch/arm/core/aarch32/cortex_m/libarch__arm__core__aarch32__cortex_m.a(reset.S.obj)
                              (--whole-archive)
zephyr/arch/arch/arm/core/aarch32/cortex_m/libarch__arm__core__aarch32__cortex_m.a(fault_s.S.obj)
                              (--whole-archive)
zephyr/arch/arch/arm/core/aarch32/cortex_m/libarch__arm__core__aarch32__cortex_m.a(exc_exit.S.obj)
                              (--whole-archive)
zephyr/arch/arch/arm/core/aarch32/cortex_m/libarch__arm__core__aarch32__cortex_m.a(fault.c.obj)
                              (--whole-archive)
zephyr/arch/arch/arm/core/aarch32/cortex_m/libarch__arm__core__aarch32__cortex_m.a(fpu.c.obj)
                              (--whole-archive)
zephyr/arch/arch/arm/core/aarch32/cortex_m/libarch__arm__core__aarch32__cortex_m.a(scb.c.obj)
                              (--whole-archive)
zephyr/arch/arch/arm/core/aarch32/cortex_m/libarch__arm__core__aarch32__cortex_m.a(irq_init.c.obj)
                              (--whole-archive)
zephyr/arch/arch/arm/core/aarch32/cortex_m/libarch__arm__core__aarch32__cortex_m.a(thread_abort.c.obj)
                              (--whole-archive)
zephyr/arch/arch/arm/core/aarch32/cortex_m/cmse/libarch__arm__core__aarch32__cortex_m__cmse.a(arm_core_cmse.c.obj)
                              (--whole-archive)
zephyr/arch/arch/arm/core/aarch32/mpu/libarch__arm__core__aarch32__mpu.a(arm_core_mpu.c.obj)
                              (--whole-archive)
zephyr/arch/arch/arm/core/aarch32/mpu/libarch__arm__core__aarch32__mpu.a(arm_mpu.c.obj)
                              (--whole-archive)
zephyr/lib/libc/minimal/liblib__libc__minimal.a(abort.c.obj)
                              (--whole-archive)
zephyr/lib/libc/minimal/liblib__libc__minimal.a(atoi.c.obj)
                              (--whole-archive)
zephyr/lib/libc/minimal/liblib__libc__minimal.a(strtol.c.obj)
                              (--whole-archive)
zephyr/lib/libc/minimal/liblib__libc__minimal.a(strtoul.c.obj)
                              (--whole-archive)
zephyr/lib/libc/minimal/liblib__libc__minimal.a(malloc.c.obj)
                              (--whole-archive)
zephyr/lib/libc/minimal/liblib__libc__minimal.a(bsearch.c.obj)
                              (--whole-archive)
zephyr/lib/libc/minimal/liblib__libc__minimal.a(exit.c.obj)
                              (--whole-archive)
zephyr/lib/libc/minimal/liblib__libc__minimal.a(strncasecmp.c.obj)
                              (--whole-archive)
zephyr/lib/libc/minimal/liblib__libc__minimal.a(strstr.c.obj)
                              (--whole-archive)
zephyr/lib/libc/minimal/liblib__libc__minimal.a(string.c.obj)
                              (--whole-archive)
zephyr/lib/libc/minimal/liblib__libc__minimal.a(strspn.c.obj)
                              (--whole-archive)
zephyr/lib/libc/minimal/liblib__libc__minimal.a(stdout_console.c.obj)
                              (--whole-archive)
zephyr/lib/libc/minimal/liblib__libc__minimal.a(sprintf.c.obj)
                              (--whole-archive)
zephyr/lib/libc/minimal/liblib__libc__minimal.a(fprintf.c.obj)
                              (--whole-archive)
zephyr/lib/libc/minimal/liblib__libc__minimal.a(gmtime.c.obj)
                              (--whole-archive)
zephyr/lib/libc/minimal/liblib__libc__minimal.a(time.c.obj)
                              (--whole-archive)
zephyr/lib/posix/liblib__posix.a(pthread_common.c.obj)
                              (--whole-archive)
zephyr/lib/posix/liblib__posix.a(clock.c.obj)
                              (--whole-archive)
zephyr/lib/posix/liblib__posix.a(sleep.c.obj)
                              (--whole-archive)
zephyr/lib/posix/liblib__posix.a(timer.c.obj)
                              (--whole-archive)
zephyr/lib/posix/liblib__posix.a(nanosleep.c.obj)
                              (--whole-archive)
zephyr/soc/arm/common/cortex_m/libsoc__arm__common__cortex_m.a(arm_mpu_regions.c.obj)
                              (--whole-archive)
zephyr/subsys/random/libsubsys__random.a(rand32_entropy_device.c.obj)
                              (--whole-archive)
zephyr/drivers/gpio/libdrivers__gpio.a(gpio_nrfx.c.obj)
                              (--whole-archive)
zephyr/drivers/serial/libdrivers__serial.a(uart_nrfx_uarte.c.obj)
                              (--whole-archive)
zephyr/drivers/entropy/libdrivers__entropy.a(entropy_cc310.c.obj)
                              (--whole-archive)
modules/nrf/lib/fatal_error/lib..__nrf__lib__fatal_error.a(fatal_error.c.obj)
                              (--whole-archive)
modules/nrf/subsys/fw_info/lib..__nrf__subsys__fw_info.a(fw_info.c.obj)
                              (--whole-archive)
modules/hal_nordic/nrfx/libmodules__hal_nordic__nrfx.a(system_nrf5340_application.c.obj)
                              (--whole-archive)
modules/hal_nordic/nrfx/libmodules__hal_nordic__nrfx.a(nrfx_glue.c.obj)
                              (--whole-archive)
modules/hal_nordic/nrfx/libmodules__hal_nordic__nrfx.a(nrfx_clock.c.obj)
                              (--whole-archive)
modules/hal_nordic/nrfx/libmodules__hal_nordic__nrfx.a(nrfx_dppi.c.obj)
                              (--whole-archive)
modules/hal_nordic/nrfx/libmodules__hal_nordic__nrfx.a(nrfx_gpiote.c.obj)
                              (--whole-archive)
modules/hal_nordic/nrfx/libmodules__hal_nordic__nrfx.a(nrfx_nvmc.c.obj)
                              (--whole-archive)
zephyr/kernel/libkernel.a(device.c.obj)
                              zephyr/libzephyr.a(device_service.c.obj) (z_device_get_all_static)
zephyr/kernel/libkernel.a(errno.c.obj)
                              zephyr/libzephyr.a(fdtable.c.obj) (z_impl_z_errno)
zephyr/kernel/libkernel.a(fatal.c.obj)
                              zephyr/arch/arch/arm/core/aarch32/libarch__arm__core__aarch32.a(fatal.c.obj) (z_fatal_error)
zephyr/kernel/libkernel.a(init.c.obj)
                              zephyr/arch/arch/arm/core/aarch32/libarch__arm__core__aarch32.a(prep_c.c.obj) (z_bss_zero)
zephyr/kernel/libkernel.a(mem_slab.c.obj)
                              zephyr/libzephyr.a(log_core.c.obj) (k_mem_slab_init)
zephyr/kernel/libkernel.a(thread.c.obj)
                              zephyr/libzephyr.a(kernel_service.c.obj) (k_thread_foreach)
zephyr/kernel/libkernel.a(version.c.obj)
                              zephyr/libzephyr.a(kernel_service.c.obj) (sys_kernel_version_get)
zephyr/kernel/libkernel.a(idle.c.obj)
                              zephyr/arch/arch/arm/core/aarch32/libarch__arm__core__aarch32.a(irq_manage.c.obj) (z_pm_save_idle_exit)
zephyr/kernel/libkernel.a(msg_q.c.obj)
                              zephyr/libzephyr.a(shell_log_backend.c.obj) (z_impl_k_msgq_put)
zephyr/kernel/libkernel.a(mutex.c.obj)
                              zephyr/libzephyr.a(fdtable.c.obj) (z_impl_k_mutex_init)
zephyr/kernel/libkernel.a(sem.c.obj)
                              zephyr/libzephyr.a(sem.c.obj) (z_impl_k_sem_init)
zephyr/kernel/libkernel.a(sched.c.obj)
                              zephyr/kernel/libkernel.a(mem_slab.c.obj) (z_reschedule)
zephyr/kernel/libkernel.a(xip.c.obj)
                              zephyr/arch/arch/arm/core/aarch32/libarch__arm__core__aarch32.a(prep_c.c.obj) (z_data_copy)
zephyr/kernel/libkernel.a(timeout.c.obj)
                              zephyr/kernel/libkernel.a(thread.c.obj) (z_add_timeout)
zephyr/kernel/libkernel.a(timer.c.obj)
                              app/libapp.a(main.c.obj) (z_timer_expiration_handler)
zephyr/kernel/libkernel.a(poll.c.obj)
                              zephyr/libzephyr.a(shell.c.obj) (k_poll_event_init)
zephyr/kernel/libkernel.a(mempool.c.obj)
                              zephyr/kernel/libkernel.a(msg_q.c.obj) (k_free)
zephyr/kernel/libkernel.a(banner.c.obj)
                              zephyr/kernel/libkernel.a(init.c.obj) (boot_banner)
zephyr/kernel/libkernel.a(kheap.c.obj)
                              zephyr/kernel/libkernel.a(mempool.c.obj) (k_heap_aligned_alloc)
zephyr/kernel/libkernel.a(system_work_q.c.obj)
                              zephyr/kernel/libkernel.a(poll.c.obj) (k_sys_work_q)
zephyr/kernel/libkernel.a(work.c.obj)
                              zephyr/kernel/libkernel.a(poll.c.obj) (k_work_init)
c:/ncs/v1.6.0/toolchain/opt/bin/../lib/gcc/arm-none-eabi/9.2.1/thumb/v8-m.main/nofp\libgcc.a(cmse.o)
                              zephyr/arch/arch/arm/core/aarch32/cortex_m/cmse/libarch__arm__core__aarch32__cortex_m__cmse.a(arm_core_cmse.c.obj) (cmse_check_address_range)
c:/ncs/v1.6.0/toolchain/opt/bin/../lib/gcc/arm-none-eabi/9.2.1/thumb/v8-m.main/nofp\libgcc.a(_arm_muldf3.o)
                              zephyr/libzephyr.a(timeutil.c.obj) (__aeabi_dmul)
c:/ncs/v1.6.0/toolchain/opt/bin/../lib/gcc/arm-none-eabi/9.2.1/thumb/v8-m.main/nofp\libgcc.a(_arm_mulsf3.o)
                              zephyr/libzephyr.a(timeutil.c.obj) (__aeabi_fmul)
c:/ncs/v1.6.0/toolchain/opt/bin/../lib/gcc/arm-none-eabi/9.2.1/thumb/v8-m.main/nofp\libgcc.a(_arm_addsubdf3.o)
                              zephyr/libzephyr.a(timeutil.c.obj) (__aeabi_dsub)
c:/ncs/v1.6.0/toolchain/opt/bin/../lib/gcc/arm-none-eabi/9.2.1/thumb/v8-m.main/nofp\libgcc.a(_arm_muldivdf3.o)
                              zephyr/libzephyr.a(timeutil.c.obj) (__aeabi_ddiv)
c:/ncs/v1.6.0/toolchain/opt/bin/../lib/gcc/arm-none-eabi/9.2.1/thumb/v8-m.main/nofp\libgcc.a(_arm_truncdfsf2.o)
                              zephyr/libzephyr.a(timeutil.c.obj) (__aeabi_d2f)
c:/ncs/v1.6.0/toolchain/opt/bin/../lib/gcc/arm-none-eabi/9.2.1/thumb/v8-m.main/nofp\libgcc.a(_arm_addsubsf3.o)
                              zephyr/libzephyr.a(timeutil.c.obj) (__aeabi_l2f)
c:/ncs/v1.6.0/toolchain/opt/bin/../lib/gcc/arm-none-eabi/9.2.1/thumb/v8-m.main/nofp\libgcc.a(_arm_muldivsf3.o)
                              zephyr/libzephyr.a(timeutil.c.obj) (__aeabi_fdiv)
c:/ncs/v1.6.0/toolchain/opt/bin/../lib/gcc/arm-none-eabi/9.2.1/thumb/v8-m.main/nofp\libgcc.a(_arm_cmpsf2.o)
                              zephyr/libzephyr.a(timeutil.c.obj) (__aeabi_fcmpeq)
c:/ncs/v1.6.0/toolchain/opt/bin/../lib/gcc/arm-none-eabi/9.2.1/thumb/v8-m.main/nofp\libgcc.a(_aeabi_ldivmod.o)
                              zephyr/libzephyr.a(timeutil.c.obj) (__aeabi_ldivmod)
c:/ncs/v1.6.0/toolchain/opt/bin/../lib/gcc/arm-none-eabi/9.2.1/thumb/v8-m.main/nofp\libgcc.a(_aeabi_uldivmod.o)
                              zephyr/libzephyr.a(cbprintf_complete.c.obj) (__aeabi_uldivmod)
c:/ncs/v1.6.0/toolchain/opt/bin/../lib/gcc/arm-none-eabi/9.2.1/thumb/v8-m.main/nofp\libgcc.a(_fixsfdi.o)
                              zephyr/libzephyr.a(timeutil.c.obj) (__aeabi_f2lz)
c:/ncs/v1.6.0/toolchain/opt/bin/../lib/gcc/arm-none-eabi/9.2.1/thumb/v8-m.main/nofp\libgcc.a(_fixdfdi.o)
                              zephyr/libzephyr.a(timeutil.c.obj) (__aeabi_d2lz)
c:/ncs/v1.6.0/toolchain/opt/bin/../lib/gcc/arm-none-eabi/9.2.1/thumb/v8-m.main/nofp\libgcc.a(_fixunssfdi.o)
                              c:/ncs/v1.6.0/toolchain/opt/bin/../lib/gcc/arm-none-eabi/9.2.1/thumb/v8-m.main/nofp\libgcc.a(_fixsfdi.o) (__aeabi_f2ulz)
c:/ncs/v1.6.0/toolchain/opt/bin/../lib/gcc/arm-none-eabi/9.2.1/thumb/v8-m.main/nofp\libgcc.a(_fixunsdfdi.o)
                              c:/ncs/v1.6.0/toolchain/opt/bin/../lib/gcc/arm-none-eabi/9.2.1/thumb/v8-m.main/nofp\libgcc.a(_fixdfdi.o) (__aeabi_d2ulz)
c:/ncs/v1.6.0/toolchain/opt/bin/../lib/gcc/arm-none-eabi/9.2.1/thumb/v8-m.main/nofp\libgcc.a(_udivmoddi4.o)
                              c:/ncs/v1.6.0/toolchain/opt/bin/../lib/gcc/arm-none-eabi/9.2.1/thumb/v8-m.main/nofp\libgcc.a(_aeabi_ldivmod.o) (__udivmoddi4)
c:/ncs/v1.6.0/toolchain/opt/bin/../lib/gcc/arm-none-eabi/9.2.1/thumb/v8-m.main/nofp\libgcc.a(_dvmd_tls.o)
                              c:/ncs/v1.6.0/toolchain/opt/bin/../lib/gcc/arm-none-eabi/9.2.1/thumb/v8-m.main/nofp\libgcc.a(_aeabi_ldivmod.o) (__aeabi_ldiv0)
c:/ncs/v1.6.0/toolchain/opt/bin/../lib/gcc/arm-none-eabi/9.2.1/thumb/v8-m.main/nofp\libgcc.a(_arm_cmpdf2.o)
                              c:/ncs/v1.6.0/toolchain/opt/bin/../lib/gcc/arm-none-eabi/9.2.1/thumb/v8-m.main/nofp\libgcc.a(_fixdfdi.o) (__aeabi_dcmplt)
c:/ncs/v1.6.0/toolchain/opt/bin/../lib/gcc/arm-none-eabi/9.2.1/thumb/v8-m.main/nofp\libgcc.a(_arm_fixunsdfsi.o)
                              c:/ncs/v1.6.0/toolchain/opt/bin/../lib/gcc/arm-none-eabi/9.2.1/thumb/v8-m.main/nofp\libgcc.a(_fixunssfdi.o) (__aeabi_d2uiz)
../mylib/src/libblst.a(server.o)
                              app/libapp.a(main.c.obj) (blst_p1_to_affine)

Discarded input sections

 .text          0x00000000        0x0 zephyr/CMakeFiles/zephyr_final.dir/misc/empty_file.c.obj
 .data          0x00000000        0x0 zephyr/CMakeFiles/zephyr_final.dir/misc/empty_file.c.obj
 .bss           0x00000000        0x0 zephyr/CMakeFiles/zephyr_final.dir/misc/empty_file.c.obj
 .debug_line    0x00000000        0x0 zephyr/CMakeFiles/zephyr_final.dir/misc/empty_file.c.obj
 .debug_str     0x00000000      0x1c5 zephyr/CMakeFiles/zephyr_final.dir/misc/empty_file.c.obj
 .comment       0x00000000       0x7a zephyr/CMakeFiles/zephyr_final.dir/misc/empty_file.c.obj
 .text          0x00000000        0x0 zephyr/CMakeFiles/zephyr_final.dir/isr_tables.c.obj
 .data          0x00000000        0x0 zephyr/CMakeFiles/zephyr_final.dir/isr_tables.c.obj
 .bss           0x00000000        0x0 zephyr/CMakeFiles/zephyr_final.dir/isr_tables.c.obj
 .text          0x00000000        0x0 zephyr/CMakeFiles/zephyr_final.dir/dev_handles.c.obj
 .data          0x00000000        0x0 zephyr/CMakeFiles/zephyr_final.dir/dev_handles.c.obj
 .bss           0x00000000        0x0 zephyr/CMakeFiles/zephyr_final.dir/dev_handles.c.obj
 .text          0x00000000        0x0 app/libapp.a(main.c.obj)
 .data          0x00000000        0x0 app/libapp.a(main.c.obj)
 .bss           0x00000000        0x0 app/libapp.a(main.c.obj)
 .bss.public_keys_store
                0x00000000      0x5a0 app/libapp.a(main.c.obj)
 .bss.secret_keys_store
                0x00000000      0x140 app/libapp.a(main.c.obj)
 .text          0x00000000        0x0 app/libapp.a(test_module.c.obj)
 .data          0x00000000        0x0 app/libapp.a(test_module.c.obj)
 .bss           0x00000000        0x0 app/libapp.a(test_module.c.obj)
 .rodata.foo.str1.1
                0x00000000       0x29 app/libapp.a(test_module.c.obj)
 .text.foo      0x00000000       0x6c app/libapp.a(test_module.c.obj)
 .text          0x00000000        0x0 app/libapp.a(dynamic_cmd.c.obj)
 .data          0x00000000        0x0 app/libapp.a(dynamic_cmd.c.obj)
 .bss           0x00000000        0x0 app/libapp.a(dynamic_cmd.c.obj)
 .text          0x00000000        0x0 app/libapp.a(qsort.c.obj)
 .data          0x00000000        0x0 app/libapp.a(qsort.c.obj)
 .bss           0x00000000        0x0 app/libapp.a(qsort.c.obj)
 .text          0x00000000        0x0 zephyr/libzephyr.a(cbprintf.c.obj)
 .data          0x00000000        0x0 zephyr/libzephyr.a(cbprintf.c.obj)
 .bss           0x00000000        0x0 zephyr/libzephyr.a(cbprintf.c.obj)
 .text.cbprintf
                0x00000000       0x1a zephyr/libzephyr.a(cbprintf.c.obj)
 .debug_info    0x00000000      0x179 zephyr/libzephyr.a(cbprintf.c.obj)
 .debug_abbrev  0x00000000      0x10c zephyr/libzephyr.a(cbprintf.c.obj)
 .debug_loc     0x00000000       0x5f zephyr/libzephyr.a(cbprintf.c.obj)
 .debug_aranges
                0x00000000       0x20 zephyr/libzephyr.a(cbprintf.c.obj)
 .debug_ranges  0x00000000       0x10 zephyr/libzephyr.a(cbprintf.c.obj)
 .debug_line    0x00000000       0xfd zephyr/libzephyr.a(cbprintf.c.obj)
 .debug_str     0x00000000      0x2a6 zephyr/libzephyr.a(cbprintf.c.obj)
 .comment       0x00000000       0x7a zephyr/libzephyr.a(cbprintf.c.obj)
 .debug_frame   0x00000000       0x38 zephyr/libzephyr.a(cbprintf.c.obj)
 .text          0x00000000        0x0 zephyr/libzephyr.a(cbprintf_packaged.c.obj)
 .data          0x00000000        0x0 zephyr/libzephyr.a(cbprintf_packaged.c.obj)
 .bss           0x00000000        0x0 zephyr/libzephyr.a(cbprintf_packaged.c.obj)
 .text.cbvprintf_package
                0x00000000      0x380 zephyr/libzephyr.a(cbprintf_packaged.c.obj)
 .text.cbprintf_package
                0x00000000       0x1a zephyr/libzephyr.a(cbprintf_packaged.c.obj)
 .text.cbpprintf
                0x00000000       0x50 zephyr/libzephyr.a(cbprintf_packaged.c.obj)
 .debug_info    0x00000000      0x632 zephyr/libzephyr.a(cbprintf_packaged.c.obj)
 .debug_abbrev  0x00000000      0x306 zephyr/libzephyr.a(cbprintf_packaged.c.obj)
 .debug_loc     0x00000000      0x9ff zephyr/libzephyr.a(cbprintf_packaged.c.obj)
 .debug_aranges
                0x00000000       0x30 zephyr/libzephyr.a(cbprintf_packaged.c.obj)
 .debug_ranges  0x00000000       0x70 zephyr/libzephyr.a(cbprintf_packaged.c.obj)
 .debug_line    0x00000000      0x592 zephyr/libzephyr.a(cbprintf_packaged.c.obj)
 .debug_str     0x00000000      0x3a7 zephyr/libzephyr.a(cbprintf_packaged.c.obj)
 .comment       0x00000000       0x7a zephyr/libzephyr.a(cbprintf_packaged.c.obj)
 .debug_frame   0x00000000       0x9c zephyr/libzephyr.a(cbprintf_packaged.c.obj)
 .text          0x00000000        0x0 zephyr/libzephyr.a(crc32c_sw.c.obj)
 .data          0x00000000        0x0 zephyr/libzephyr.a(crc32c_sw.c.obj)
 .bss           0x00000000        0x0 zephyr/libzephyr.a(crc32c_sw.c.obj)
 .text.crc32_c  0x00000000       0x48 zephyr/libzephyr.a(crc32c_sw.c.obj)
 .rodata.crc32c_table
                0x00000000       0x40 zephyr/libzephyr.a(crc32c_sw.c.obj)
 .debug_info    0x00000000      0x16c zephyr/libzephyr.a(crc32c_sw.c.obj)
 .debug_abbrev  0x00000000       0xcd zephyr/libzephyr.a(crc32c_sw.c.obj)
 .debug_loc     0x00000000      0x104 zephyr/libzephyr.a(crc32c_sw.c.obj)
 .debug_aranges
                0x00000000       0x20 zephyr/libzephyr.a(crc32c_sw.c.obj)
 .debug_ranges  0x00000000       0x30 zephyr/libzephyr.a(crc32c_sw.c.obj)
 .debug_line    0x00000000      0x16e zephyr/libzephyr.a(crc32c_sw.c.obj)
 .debug_str     0x00000000      0x2a1 zephyr/libzephyr.a(crc32c_sw.c.obj)
 .comment       0x00000000       0x7a zephyr/libzephyr.a(crc32c_sw.c.obj)
 .debug_frame   0x00000000       0x2c zephyr/libzephyr.a(crc32c_sw.c.obj)
 .text          0x00000000        0x0 zephyr/libzephyr.a(crc32_sw.c.obj)
 .data          0x00000000        0x0 zephyr/libzephyr.a(crc32_sw.c.obj)
 .bss           0x00000000        0x0 zephyr/libzephyr.a(crc32_sw.c.obj)
 .text.crc32_ieee_update
                0x00000000       0x3c zephyr/libzephyr.a(crc32_sw.c.obj)
 .text.crc32_ieee
                0x00000000        0xa zephyr/libzephyr.a(crc32_sw.c.obj)
 .rodata.table.3736
                0x00000000       0x40 zephyr/libzephyr.a(crc32_sw.c.obj)
 .debug_info    0x00000000      0x1b3 zephyr/libzephyr.a(crc32_sw.c.obj)
 .debug_abbrev  0x00000000      0x117 zephyr/libzephyr.a(crc32_sw.c.obj)
 .debug_loc     0x00000000      0x160 zephyr/libzephyr.a(crc32_sw.c.obj)
 .debug_aranges
                0x00000000       0x28 zephyr/libzephyr.a(crc32_sw.c.obj)
 .debug_ranges  0x00000000       0x50 zephyr/libzephyr.a(crc32_sw.c.obj)
 .debug_line    0x00000000      0x1a1 zephyr/libzephyr.a(crc32_sw.c.obj)
 .debug_str     0x00000000      0x29a zephyr/libzephyr.a(crc32_sw.c.obj)
 .comment       0x00000000       0x7a zephyr/libzephyr.a(crc32_sw.c.obj)
 .debug_frame   0x00000000       0x3c zephyr/libzephyr.a(crc32_sw.c.obj)
 .text          0x00000000        0x0 zephyr/libzephyr.a(crc16_sw.c.obj)
 .data          0x00000000        0x0 zephyr/libzephyr.a(crc16_sw.c.obj)
 .bss           0x00000000        0x0 zephyr/libzephyr.a(crc16_sw.c.obj)
 .text.crc16    0x00000000       0x5a zephyr/libzephyr.a(crc16_sw.c.obj)
 .text.crc16_ccitt
                0x00000000       0x26 zephyr/libzephyr.a(crc16_sw.c.obj)
 .text.crc16_itu_t
                0x00000000       0x28 zephyr/libzephyr.a(crc16_sw.c.obj)
 .debug_info    0x00000000      0x25e zephyr/libzephyr.a(crc16_sw.c.obj)
 .debug_abbrev  0x00000000       0xe9 zephyr/libzephyr.a(crc16_sw.c.obj)
 .debug_loc     0x00000000      0x2e2 zephyr/libzephyr.a(crc16_sw.c.obj)
 .debug_aranges
                0x00000000       0x30 zephyr/libzephyr.a(crc16_sw.c.obj)
 .debug_ranges  0x00000000       0x40 zephyr/libzephyr.a(crc16_sw.c.obj)
 .debug_line    0x00000000      0x2b0 zephyr/libzephyr.a(crc16_sw.c.obj)
 .debug_str     0x00000000      0x2be zephyr/libzephyr.a(crc16_sw.c.obj)
 .comment       0x00000000       0x7a zephyr/libzephyr.a(crc16_sw.c.obj)
 .debug_frame   0x00000000       0x58 zephyr/libzephyr.a(crc16_sw.c.obj)
 .text          0x00000000        0x0 zephyr/libzephyr.a(crc8_sw.c.obj)
 .data          0x00000000        0x0 zephyr/libzephyr.a(crc8_sw.c.obj)
 .bss           0x00000000        0x0 zephyr/libzephyr.a(crc8_sw.c.obj)
 .text.crc8_ccitt
                0x00000000       0x30 zephyr/libzephyr.a(crc8_sw.c.obj)
 .text.crc8     0x00000000       0x3e zephyr/libzephyr.a(crc8_sw.c.obj)
 .rodata.crc8_ccitt_small_table
                0x00000000       0x10 zephyr/libzephyr.a(crc8_sw.c.obj)
 .debug_info    0x00000000      0x1f7 zephyr/libzephyr.a(crc8_sw.c.obj)
 .debug_abbrev  0x00000000       0xdc zephyr/libzephyr.a(crc8_sw.c.obj)
 .debug_loc     0x00000000      0x250 zephyr/libzephyr.a(crc8_sw.c.obj)
 .debug_aranges
                0x00000000       0x28 zephyr/libzephyr.a(crc8_sw.c.obj)
 .debug_ranges  0x00000000       0x18 zephyr/libzephyr.a(crc8_sw.c.obj)
 .debug_line    0x00000000      0x1f7 zephyr/libzephyr.a(crc8_sw.c.obj)
 .debug_str     0x00000000      0x2b2 zephyr/libzephyr.a(crc8_sw.c.obj)
 .comment       0x00000000       0x7a zephyr/libzephyr.a(crc8_sw.c.obj)
 .debug_frame   0x00000000       0x48 zephyr/libzephyr.a(crc8_sw.c.obj)
 .text          0x00000000        0x0 zephyr/libzephyr.a(crc7_sw.c.obj)
 .data          0x00000000        0x0 zephyr/libzephyr.a(crc7_sw.c.obj)
 .bss           0x00000000        0x0 zephyr/libzephyr.a(crc7_sw.c.obj)
 .text.crc7_be  0x00000000       0x20 zephyr/libzephyr.a(crc7_sw.c.obj)
 .debug_info    0x00000000      0x11b zephyr/libzephyr.a(crc7_sw.c.obj)
 .debug_abbrev  0x00000000       0xac zephyr/libzephyr.a(crc7_sw.c.obj)
 .debug_loc     0x00000000       0xc0 zephyr/libzephyr.a(crc7_sw.c.obj)
 .debug_aranges
                0x00000000       0x20 zephyr/libzephyr.a(crc7_sw.c.obj)
 .debug_ranges  0x00000000       0x10 zephyr/libzephyr.a(crc7_sw.c.obj)
 .debug_line    0x00000000      0x109 zephyr/libzephyr.a(crc7_sw.c.obj)
 .debug_str     0x00000000      0x270 zephyr/libzephyr.a(crc7_sw.c.obj)
 .comment       0x00000000       0x7a zephyr/libzephyr.a(crc7_sw.c.obj)
 .debug_frame   0x00000000       0x20 zephyr/libzephyr.a(crc7_sw.c.obj)
 .text          0x00000000        0x0 zephyr/libzephyr.a(dec.c.obj)
 .data          0x00000000        0x0 zephyr/libzephyr.a(dec.c.obj)
 .bss           0x00000000        0x0 zephyr/libzephyr.a(dec.c.obj)
 .text.u8_to_dec
                0x00000000       0x42 zephyr/libzephyr.a(dec.c.obj)
 .debug_info    0x00000000      0x11f zephyr/libzephyr.a(dec.c.obj)
 .debug_abbrev  0x00000000       0x9c zephyr/libzephyr.a(dec.c.obj)
 .debug_loc     0x00000000      0x107 zephyr/libzephyr.a(dec.c.obj)
 .debug_aranges
                0x00000000       0x20 zephyr/libzephyr.a(dec.c.obj)
 .debug_ranges  0x00000000       0x10 zephyr/libzephyr.a(dec.c.obj)
 .debug_line    0x00000000      0x120 zephyr/libzephyr.a(dec.c.obj)
 .debug_str     0x00000000      0x28d zephyr/libzephyr.a(dec.c.obj)
 .comment       0x00000000       0x7a zephyr/libzephyr.a(dec.c.obj)
 .debug_frame   0x00000000       0x30 zephyr/libzephyr.a(dec.c.obj)
 .text          0x00000000        0x0 zephyr/libzephyr.a(fdtable.c.obj)
 .data          0x00000000        0x0 zephyr/libzephyr.a(fdtable.c.obj)
 .bss           0x00000000        0x0 zephyr/libzephyr.a(fdtable.c.obj)
 .text.z_fdtable_call_ioctl.constprop.0
                0x00000000       0x1e zephyr/libzephyr.a(fdtable.c.obj)
 .text._check_fd
                0x00000000       0x2c zephyr/libzephyr.a(fdtable.c.obj)
 .text.z_get_fd_obj
                0x00000000       0x30 zephyr/libzephyr.a(fdtable.c.obj)
 .text.z_get_fd_obj_and_vtable
                0x00000000       0x34 zephyr/libzephyr.a(fdtable.c.obj)
 .text.z_reserve_fd
                0x00000000       0x6c zephyr/libzephyr.a(fdtable.c.obj)
 .text.z_finalize_fd
                0x00000000       0x30 zephyr/libzephyr.a(fdtable.c.obj)
 .text.z_free_fd
                0x00000000       0x3c zephyr/libzephyr.a(fdtable.c.obj)
 .text.z_alloc_fd
                0x00000000       0x1a zephyr/libzephyr.a(fdtable.c.obj)
 ._k_mutex.static.fdtable_lock
                0x00000000       0x14 zephyr/libzephyr.a(fdtable.c.obj)
 .bss.fdtable   0x00000000       0x80 zephyr/libzephyr.a(fdtable.c.obj)
 .debug_info    0x00000000     0x131c zephyr/libzephyr.a(fdtable.c.obj)
 .debug_abbrev  0x00000000      0x435 zephyr/libzephyr.a(fdtable.c.obj)
 .debug_loc     0x00000000      0x543 zephyr/libzephyr.a(fdtable.c.obj)
 .debug_aranges
                0x00000000       0x58 zephyr/libzephyr.a(fdtable.c.obj)
 .debug_ranges  0x00000000       0xc8 zephyr/libzephyr.a(fdtable.c.obj)
 .debug_line    0x00000000      0x792 zephyr/libzephyr.a(fdtable.c.obj)
 .debug_str     0x00000000      0xb15 zephyr/libzephyr.a(fdtable.c.obj)
 .comment       0x00000000       0x7a zephyr/libzephyr.a(fdtable.c.obj)
 .debug_frame   0x00000000       0xf8 zephyr/libzephyr.a(fdtable.c.obj)
 .text          0x00000000        0x0 zephyr/libzephyr.a(hex.c.obj)
 .data          0x00000000        0x0 zephyr/libzephyr.a(hex.c.obj)
 .bss           0x00000000        0x0 zephyr/libzephyr.a(hex.c.obj)
 .text          0x00000000        0x0 zephyr/libzephyr.a(notify.c.obj)
 .data          0x00000000        0x0 zephyr/libzephyr.a(notify.c.obj)
 .bss           0x00000000        0x0 zephyr/libzephyr.a(notify.c.obj)
 .text          0x00000000        0x0 zephyr/libzephyr.a(printk.c.obj)
 .data          0x00000000        0x0 zephyr/libzephyr.a(printk.c.obj)
 .bss           0x00000000        0x0 zephyr/libzephyr.a(printk.c.obj)
 .text.__printk_get_hook
                0x00000000        0xc zephyr/libzephyr.a(printk.c.obj)
 .text.z_impl_k_str_out
                0x00000000       0x1c zephyr/libzephyr.a(printk.c.obj)
 .text          0x00000000        0x0 zephyr/libzephyr.a(onoff.c.obj)
 .data          0x00000000        0x0 zephyr/libzephyr.a(onoff.c.obj)
 .bss           0x00000000        0x0 zephyr/libzephyr.a(onoff.c.obj)
 .text.onoff_release
                0x00000000       0x4a zephyr/libzephyr.a(onoff.c.obj)
 .text.onoff_reset
                0x00000000       0x64 zephyr/libzephyr.a(onoff.c.obj)
 .text.onoff_cancel
                0x00000000       0x60 zephyr/libzephyr.a(onoff.c.obj)
 .text.onoff_monitor_register
                0x00000000       0x3c zephyr/libzephyr.a(onoff.c.obj)
 .text.onoff_monitor_unregister
                0x00000000       0x5a zephyr/libzephyr.a(onoff.c.obj)
 .text.onoff_sync_lock
                0x00000000       0x16 zephyr/libzephyr.a(onoff.c.obj)
 .text.onoff_sync_finalize
                0x00000000       0x42 zephyr/libzephyr.a(onoff.c.obj)
 .text          0x00000000        0x0 zephyr/libzephyr.a(rb.c.obj)
 .data          0x00000000        0x0 zephyr/libzephyr.a(rb.c.obj)
 .bss           0x00000000        0x0 zephyr/libzephyr.a(rb.c.obj)
 .text.set_child
                0x00000000       0x12 zephyr/libzephyr.a(rb.c.obj)
 .text.find_and_stack
                0x00000000       0x3a zephyr/libzephyr.a(rb.c.obj)
 .text.rotate   0x00000000       0x7c zephyr/libzephyr.a(rb.c.obj)
 .text.stack_left_limb
                0x00000000       0x36 zephyr/libzephyr.a(rb.c.obj)
 .text.z_rb_get_minmax
                0x00000000       0x18 zephyr/libzephyr.a(rb.c.obj)
 .text.rb_insert
                0x00000000      0x132 zephyr/libzephyr.a(rb.c.obj)
 .text.rb_remove
                0x00000000      0x310 zephyr/libzephyr.a(rb.c.obj)
 .text.z_rb_walk
                0x00000000       0x24 zephyr/libzephyr.a(rb.c.obj)
 .text.z_rb_child
                0x00000000        0xe zephyr/libzephyr.a(rb.c.obj)
 .text.z_rb_is_black
                0x00000000        0x8 zephyr/libzephyr.a(rb.c.obj)
 .text.rb_contains
                0x00000000       0x2c zephyr/libzephyr.a(rb.c.obj)
 .text.z_rb_foreach_next
                0x00000000       0x58 zephyr/libzephyr.a(rb.c.obj)
 .debug_info    0x00000000     0x2863 zephyr/libzephyr.a(rb.c.obj)
 .debug_abbrev  0x00000000      0x580 zephyr/libzephyr.a(rb.c.obj)
 .debug_loc     0x00000000     0x20f9 zephyr/libzephyr.a(rb.c.obj)
 .debug_aranges
                0x00000000       0x78 zephyr/libzephyr.a(rb.c.obj)
 .debug_ranges  0x00000000      0x570 zephyr/libzephyr.a(rb.c.obj)
 .debug_line    0x00000000     0x1314 zephyr/libzephyr.a(rb.c.obj)
 .debug_str     0x00000000      0x8af zephyr/libzephyr.a(rb.c.obj)
 .comment       0x00000000       0x7a zephyr/libzephyr.a(rb.c.obj)
 .debug_frame   0x00000000      0x178 zephyr/libzephyr.a(rb.c.obj)
 .text          0x00000000        0x0 zephyr/libzephyr.a(sem.c.obj)
 .data          0x00000000        0x0 zephyr/libzephyr.a(sem.c.obj)
 .bss           0x00000000        0x0 zephyr/libzephyr.a(sem.c.obj)
 .text.sys_sem_init
                0x00000000        0xa zephyr/libzephyr.a(sem.c.obj)
 .text.sys_sem_give
                0x00000000        0xa zephyr/libzephyr.a(sem.c.obj)
 .text.sys_sem_take
                0x00000000       0x1e zephyr/libzephyr.a(sem.c.obj)
 .text.sys_sem_count_get
                0x00000000        0x4 zephyr/libzephyr.a(sem.c.obj)
 .debug_info    0x00000000      0xc1e zephyr/libzephyr.a(sem.c.obj)
 .debug_abbrev  0x00000000      0x271 zephyr/libzephyr.a(sem.c.obj)
 .debug_loc     0x00000000      0x205 zephyr/libzephyr.a(sem.c.obj)
 .debug_aranges
                0x00000000       0x38 zephyr/libzephyr.a(sem.c.obj)
 .debug_ranges  0x00000000       0x70 zephyr/libzephyr.a(sem.c.obj)
 .debug_line    0x00000000      0x46f zephyr/libzephyr.a(sem.c.obj)
 .debug_str     0x00000000      0x7e7 zephyr/libzephyr.a(sem.c.obj)
 .comment       0x00000000       0x7a zephyr/libzephyr.a(sem.c.obj)
 .debug_frame   0x00000000       0x68 zephyr/libzephyr.a(sem.c.obj)
 .text          0x00000000        0x0 zephyr/libzephyr.a(thread_entry.c.obj)
 .data          0x00000000        0x0 zephyr/libzephyr.a(thread_entry.c.obj)
 .bss           0x00000000        0x0 zephyr/libzephyr.a(thread_entry.c.obj)
 .text          0x00000000        0x0 zephyr/libzephyr.a(timeutil.c.obj)
 .data          0x00000000        0x0 zephyr/libzephyr.a(timeutil.c.obj)
 .bss           0x00000000        0x0 zephyr/libzephyr.a(timeutil.c.obj)
 .text.timeutil_sync_state_update
                0x00000000       0x66 zephyr/libzephyr.a(timeutil.c.obj)
 .text.timeutil_sync_state_set_skew
                0x00000000       0x3c zephyr/libzephyr.a(timeutil.c.obj)
 .text.timeutil_sync_estimate_skew
                0x00000000       0x92 zephyr/libzephyr.a(timeutil.c.obj)
 .text.timeutil_sync_ref_from_local
                0x00000000       0x96 zephyr/libzephyr.a(timeutil.c.obj)
 .text.timeutil_sync_local_from_ref
                0x00000000       0x7a zephyr/libzephyr.a(timeutil.c.obj)
 .text.timeutil_sync_skew_to_ppb
                0x00000000       0x44 zephyr/libzephyr.a(timeutil.c.obj)
 .text          0x00000000        0x0 zephyr/libzephyr.a(heap.c.obj)
 .data          0x00000000        0x0 zephyr/libzephyr.a(heap.c.obj)
 .bss           0x00000000        0x0 zephyr/libzephyr.a(heap.c.obj)
 .text.merge_chunks
                0x00000000       0x3c zephyr/libzephyr.a(heap.c.obj)
 .text.split_chunks
                0x00000000       0x4e zephyr/libzephyr.a(heap.c.obj)
 .text.free_list_remove_bidx
                0x00000000       0x5e zephyr/libzephyr.a(heap.c.obj)
 .text.free_list_remove
                0x00000000       0x2e zephyr/libzephyr.a(heap.c.obj)
 .text.alloc_chunk
                0x00000000       0x72 zephyr/libzephyr.a(heap.c.obj)
 .text.free_chunk
                0x00000000       0x84 zephyr/libzephyr.a(heap.c.obj)
 .text.sys_heap_free
                0x00000000       0x2c zephyr/libzephyr.a(heap.c.obj)
 .text.sys_heap_alloc
                0x00000000       0x6e zephyr/libzephyr.a(heap.c.obj)
 .text.sys_heap_aligned_alloc
                0x00000000       0xf6 zephyr/libzephyr.a(heap.c.obj)
 .text.sys_heap_aligned_realloc
                0x00000000      0x142 zephyr/libzephyr.a(heap.c.obj)
 .text          0x00000000        0x0 zephyr/libzephyr.a(heap-validate.c.obj)
 .data          0x00000000        0x0 zephyr/libzephyr.a(heap-validate.c.obj)
 .bss           0x00000000        0x0 zephyr/libzephyr.a(heap-validate.c.obj)
 .text.chunk_field
                0x00000000       0x16 zephyr/libzephyr.a(heap-validate.c.obj)
 .text.chunk_size
                0x00000000        0xc zephyr/libzephyr.a(heap-validate.c.obj)
 .text.set_chunk_used
                0x00000000       0x30 zephyr/libzephyr.a(heap-validate.c.obj)
 .text.right_chunk
                0x00000000        0xc zephyr/libzephyr.a(heap-validate.c.obj)
 .text.solo_free_header
                0x00000000       0x1a zephyr/libzephyr.a(heap-validate.c.obj)
 .text.rand32   0x00000000       0x3c zephyr/libzephyr.a(heap-validate.c.obj)
 .text.bucket_idx
                0x00000000       0x1a zephyr/libzephyr.a(heap-validate.c.obj)
 .text.max_chunkid
                0x00000000       0x10 zephyr/libzephyr.a(heap-validate.c.obj)
 .text.in_bounds
                0x00000000       0x32 zephyr/libzephyr.a(heap-validate.c.obj)
 .text.valid_chunk
                0x00000000       0xca zephyr/libzephyr.a(heap-validate.c.obj)
 .text.sys_heap_validate
                0x00000000      0x1a0 zephyr/libzephyr.a(heap-validate.c.obj)
 .text.sys_heap_stress
                0x00000000      0x108 zephyr/libzephyr.a(heap-validate.c.obj)
 .rodata.heap_print_info.str1.1
                0x00000000      0x186 zephyr/libzephyr.a(heap-validate.c.obj)
 .text.heap_print_info
                0x00000000      0x1bc zephyr/libzephyr.a(heap-validate.c.obj)
 .text.sys_heap_print_info
                0x00000000        0x6 zephyr/libzephyr.a(heap-validate.c.obj)
 .data.state.9558
                0x00000000        0x8 zephyr/libzephyr.a(heap-validate.c.obj)
 .debug_info    0x00000000     0x220d zephyr/libzephyr.a(heap-validate.c.obj)
 .debug_abbrev  0x00000000      0x4bf zephyr/libzephyr.a(heap-validate.c.obj)
 .debug_loc     0x00000000     0x11c3 zephyr/libzephyr.a(heap-validate.c.obj)
 .debug_aranges
                0x00000000       0x88 zephyr/libzephyr.a(heap-validate.c.obj)
 .debug_ranges  0x00000000      0x428 zephyr/libzephyr.a(heap-validate.c.obj)
 .debug_line    0x00000000      0xeed zephyr/libzephyr.a(heap-validate.c.obj)
 .debug_str     0x00000000      0xb11 zephyr/libzephyr.a(heap-validate.c.obj)
 .comment       0x00000000       0x7a zephyr/libzephyr.a(heap-validate.c.obj)
 .debug_frame   0x00000000      0x190 zephyr/libzephyr.a(heap-validate.c.obj)
 .text          0x00000000        0x0 zephyr/libzephyr.a(bitarray.c.obj)
 .data          0x00000000        0x0 zephyr/libzephyr.a(bitarray.c.obj)
 .bss           0x00000000        0x0 zephyr/libzephyr.a(bitarray.c.obj)
 .text.setup_bundle_data.isra.0
                0x00000000       0x3a zephyr/libzephyr.a(bitarray.c.obj)
 .text.match_region.isra.0
                0x00000000       0x8c zephyr/libzephyr.a(bitarray.c.obj)
 .text.is_region_set_clear
                0x00000000       0x52 zephyr/libzephyr.a(bitarray.c.obj)
 .text.set_region.isra.0
                0x00000000       0x8a zephyr/libzephyr.a(bitarray.c.obj)
 .text.set_clear_region
                0x00000000       0x4a zephyr/libzephyr.a(bitarray.c.obj)
 .text.sys_bitarray_set_bit
                0x00000000       0x42 zephyr/libzephyr.a(bitarray.c.obj)
 .text.sys_bitarray_clear_bit
                0x00000000       0x44 zephyr/libzephyr.a(bitarray.c.obj)
 .text.sys_bitarray_test_bit
                0x00000000       0x46 zephyr/libzephyr.a(bitarray.c.obj)
 .text.sys_bitarray_test_and_set_bit
                0x00000000       0x50 zephyr/libzephyr.a(bitarray.c.obj)
 .text.sys_bitarray_test_and_clear_bit
                0x00000000       0x52 zephyr/libzephyr.a(bitarray.c.obj)
 .text.sys_bitarray_alloc
                0x00000000       0xb0 zephyr/libzephyr.a(bitarray.c.obj)
 .text.sys_bitarray_free
                0x00000000       0x72 zephyr/libzephyr.a(bitarray.c.obj)
 .text.sys_bitarray_is_region_set
                0x00000000        0x6 zephyr/libzephyr.a(bitarray.c.obj)
 .text.sys_bitarray_is_region_cleared
                0x00000000        0x6 zephyr/libzephyr.a(bitarray.c.obj)
 .text.sys_bitarray_set_region
                0x00000000        0x6 zephyr/libzephyr.a(bitarray.c.obj)
 .text.sys_bitarray_clear_region
                0x00000000        0x6 zephyr/libzephyr.a(bitarray.c.obj)
 .debug_info    0x00000000     0x1cb1 zephyr/libzephyr.a(bitarray.c.obj)
 .debug_abbrev  0x00000000      0x45f zephyr/libzephyr.a(bitarray.c.obj)
 .debug_loc     0x00000000     0x1323 zephyr/libzephyr.a(bitarray.c.obj)
 .debug_aranges
                0x00000000       0x98 zephyr/libzephyr.a(bitarray.c.obj)
 .debug_ranges  0x00000000      0x220 zephyr/libzephyr.a(bitarray.c.obj)
 .debug_line    0x00000000      0xd4c zephyr/libzephyr.a(bitarray.c.obj)
 .debug_str     0x00000000      0x997 zephyr/libzephyr.a(bitarray.c.obj)
 .comment       0x00000000       0x7a zephyr/libzephyr.a(bitarray.c.obj)
 .debug_frame   0x00000000      0x1dc zephyr/libzephyr.a(bitarray.c.obj)
 .text          0x00000000        0x0 zephyr/libzephyr.a(cbprintf_complete.c.obj)
 .data          0x00000000        0x0 zephyr/libzephyr.a(cbprintf_complete.c.obj)
 .bss           0x00000000        0x0 zephyr/libzephyr.a(cbprintf_complete.c.obj)
 .text          0x00000000        0x0 zephyr/libzephyr.a(ring_buffer.c.obj)
 .data          0x00000000        0x0 zephyr/libzephyr.a(ring_buffer.c.obj)
 .bss           0x00000000        0x0 zephyr/libzephyr.a(ring_buffer.c.obj)
 .text.ring_buf_item_put
                0x00000000       0x94 zephyr/libzephyr.a(ring_buffer.c.obj)
 .text.ring_buf_item_get
                0x00000000       0xe2 zephyr/libzephyr.a(ring_buffer.c.obj)
 .text          0x00000000        0x0 zephyr/libzephyr.a(mpsc_pbuf.c.obj)
 .data          0x00000000        0x0 zephyr/libzephyr.a(mpsc_pbuf.c.obj)
 .bss           0x00000000        0x0 zephyr/libzephyr.a(mpsc_pbuf.c.obj)
 .text.free_space
                0x00000000       0x2a zephyr/libzephyr.a(mpsc_pbuf.c.obj)
 .text.idx_inc  0x00000000       0x1c zephyr/libzephyr.a(mpsc_pbuf.c.obj)
 .text.add_skip_item
                0x00000000       0x2c zephyr/libzephyr.a(mpsc_pbuf.c.obj)
 .text.drop_item_locked
                0x00000000       0xb4 zephyr/libzephyr.a(mpsc_pbuf.c.obj)
 .text.mpsc_pbuf_init
                0x00000000       0x3e zephyr/libzephyr.a(mpsc_pbuf.c.obj)
 .text.mpsc_pbuf_put_word
                0x00000000       0x84 zephyr/libzephyr.a(mpsc_pbuf.c.obj)
 .text.mpsc_pbuf_alloc
                0x00000000       0xec zephyr/libzephyr.a(mpsc_pbuf.c.obj)
 .text.mpsc_pbuf_commit
                0x00000000       0x3a zephyr/libzephyr.a(mpsc_pbuf.c.obj)
 .text.mpsc_pbuf_put_word_ext
                0x00000000       0x9e zephyr/libzephyr.a(mpsc_pbuf.c.obj)
 .text.mpsc_pbuf_put_data
                0x00000000       0xae zephyr/libzephyr.a(mpsc_pbuf.c.obj)
 .text.mpsc_pbuf_claim
                0x00000000       0x9c zephyr/libzephyr.a(mpsc_pbuf.c.obj)
 .text.mpsc_pbuf_free
                0x00000000       0x68 zephyr/libzephyr.a(mpsc_pbuf.c.obj)
 .text.mpsc_pbuf_is_pending
                0x00000000       0x16 zephyr/libzephyr.a(mpsc_pbuf.c.obj)
 .debug_info    0x00000000     0x1fe5 zephyr/libzephyr.a(mpsc_pbuf.c.obj)
 .debug_abbrev  0x00000000      0x528 zephyr/libzephyr.a(mpsc_pbuf.c.obj)
 .debug_loc     0x00000000      0xf2d zephyr/libzephyr.a(mpsc_pbuf.c.obj)
 .debug_aranges
                0x00000000       0x80 zephyr/libzephyr.a(mpsc_pbuf.c.obj)
 .debug_ranges  0x00000000      0x260 zephyr/libzephyr.a(mpsc_pbuf.c.obj)
 .debug_line    0x00000000      0xf13 zephyr/libzephyr.a(mpsc_pbuf.c.obj)
 .debug_str     0x00000000      0xa37 zephyr/libzephyr.a(mpsc_pbuf.c.obj)
 .comment       0x00000000       0x7a zephyr/libzephyr.a(mpsc_pbuf.c.obj)
 .debug_frame   0x00000000      0x1bc zephyr/libzephyr.a(mpsc_pbuf.c.obj)
 .text          0x00000000        0x0 zephyr/libzephyr.a(reboot.c.obj)
 .data          0x00000000        0x0 zephyr/libzephyr.a(reboot.c.obj)
 .bss           0x00000000        0x0 zephyr/libzephyr.a(reboot.c.obj)
 .text          0x00000000        0x0 zephyr/libzephyr.a(fnmatch.c.obj)
 .data          0x00000000        0x0 zephyr/libzephyr.a(fnmatch.c.obj)
 .bss           0x00000000        0x0 zephyr/libzephyr.a(fnmatch.c.obj)
 .text          0x00000000        0x0 zephyr/libzephyr.a(configs.c.obj)
 .data          0x00000000        0x0 zephyr/libzephyr.a(configs.c.obj)
 .bss           0x00000000        0x0 zephyr/libzephyr.a(configs.c.obj)
 .text          0x00000000        0x0 zephyr/libzephyr.a(soc.c.obj)
 .data          0x00000000        0x0 zephyr/libzephyr.a(soc.c.obj)
 .bss           0x00000000        0x0 zephyr/libzephyr.a(soc.c.obj)
 .text          0x00000000        0x0 zephyr/libzephyr.a(power.c.obj)
 .data          0x00000000        0x0 zephyr/libzephyr.a(power.c.obj)
 .bss           0x00000000        0x0 zephyr/libzephyr.a(power.c.obj)
 .text          0x00000000        0x0 zephyr/libzephyr.a(validate_base_addresses.c.obj)
 .data          0x00000000        0x0 zephyr/libzephyr.a(validate_base_addresses.c.obj)
 .bss           0x00000000        0x0 zephyr/libzephyr.a(validate_base_addresses.c.obj)
 .debug_info    0x00000000      0x8a3 zephyr/libzephyr.a(validate_base_addresses.c.obj)
 .debug_abbrev  0x00000000      0x166 zephyr/libzephyr.a(validate_base_addresses.c.obj)
 .debug_aranges
                0x00000000       0x18 zephyr/libzephyr.a(validate_base_addresses.c.obj)
 .debug_line    0x00000000      0x2df zephyr/libzephyr.a(validate_base_addresses.c.obj)
 .debug_str     0x00000000      0x6eb zephyr/libzephyr.a(validate_base_addresses.c.obj)
 .comment       0x00000000       0x7a zephyr/libzephyr.a(validate_base_addresses.c.obj)
 .text          0x00000000        0x0 zephyr/libzephyr.a(validate_enabled_instances.c.obj)
 .data          0x00000000        0x0 zephyr/libzephyr.a(validate_enabled_instances.c.obj)
 .bss           0x00000000        0x0 zephyr/libzephyr.a(validate_enabled_instances.c.obj)
 .debug_info    0x00000000      0x8a3 zephyr/libzephyr.a(validate_enabled_instances.c.obj)
 .debug_abbrev  0x00000000      0x166 zephyr/libzephyr.a(validate_enabled_instances.c.obj)
 .debug_aranges
                0x00000000       0x18 zephyr/libzephyr.a(validate_enabled_instances.c.obj)
 .debug_line    0x00000000      0x2df zephyr/libzephyr.a(validate_enabled_instances.c.obj)
 .debug_str     0x00000000      0x6ee zephyr/libzephyr.a(validate_enabled_instances.c.obj)
 .comment       0x00000000       0x7a zephyr/libzephyr.a(validate_enabled_instances.c.obj)
 .text          0x00000000        0x0 zephyr/libzephyr.a(log_list.c.obj)
 .data          0x00000000        0x0 zephyr/libzephyr.a(log_list.c.obj)
 .bss           0x00000000        0x0 zephyr/libzephyr.a(log_list.c.obj)
 .text          0x00000000        0x0 zephyr/libzephyr.a(log_core.c.obj)
 .data          0x00000000        0x0 zephyr/libzephyr.a(log_core.c.obj)
 .bss           0x00000000        0x0 zephyr/libzephyr.a(log_core.c.obj)
 .text.log_msg2_generic_get_wlen
                0x00000000       0x22 zephyr/libzephyr.a(log_core.c.obj)
 .text.z_log_printk
                0x00000000        0x2 zephyr/libzephyr.a(log_core.c.obj)
 .text.log_count_args
                0x00000000       0x22 zephyr/libzephyr.a(log_core.c.obj)
 .text.log_hexdump_sync
                0x00000000       0x94 zephyr/libzephyr.a(log_core.c.obj)
 .text.log_thread_set
                0x00000000        0x2 zephyr/libzephyr.a(log_core.c.obj)
 .text.log_set_timestamp_func
                0x00000000       0x20 zephyr/libzephyr.a(log_core.c.obj)
 .text.z_impl_log_buffered_cnt
                0x00000000        0xc zephyr/libzephyr.a(log_core.c.obj)
 .text.notify_drop
                0x00000000        0x4 zephyr/libzephyr.a(log_core.c.obj)
 .text.z_log_dropped_pending
                0x00000000       0x14 zephyr/libzephyr.a(log_core.c.obj)
 .text.log_src_cnt_get
                0x00000000       0x14 zephyr/libzephyr.a(log_core.c.obj)
 .text.log_get_strdup_pool_utilization
                0x00000000        0x4 zephyr/libzephyr.a(log_core.c.obj)
 .text.log_get_strdup_longest_string
                0x00000000        0x4 zephyr/libzephyr.a(log_core.c.obj)
 .text.log_n    0x00000000       0x16 zephyr/libzephyr.a(log_core.c.obj)
 .text.log_hexdump
                0x00000000       0x16 zephyr/libzephyr.a(log_core.c.obj)
 .text.log_generic
                0x00000000       0x8c zephyr/libzephyr.a(log_core.c.obj)
 .text.log_string_sync
                0x00000000       0x1c zephyr/libzephyr.a(log_core.c.obj)
 .text.z_impl_z_log_string_from_user
                0x00000000        0x2 zephyr/libzephyr.a(log_core.c.obj)
 .text.z_vrfy_z_log_hexdump_from_user
                0x00000000        0x2 zephyr/libzephyr.a(log_core.c.obj)
 .text.log_from_user
                0x00000000        0x6 zephyr/libzephyr.a(log_core.c.obj)
 .text.log_generic_from_user
                0x00000000        0x2 zephyr/libzephyr.a(log_core.c.obj)
 .text.log_hexdump_from_user
                0x00000000        0x2 zephyr/libzephyr.a(log_core.c.obj)
 .text.z_log_msg2_init
                0x00000000       0x10 zephyr/libzephyr.a(log_core.c.obj)
 .text.z_log_msg2_put_trace
                0x00000000       0x30 zephyr/libzephyr.a(log_core.c.obj)
 .text.z_log_msg2_put_trace_ptr
                0x00000000       0x34 zephyr/libzephyr.a(log_core.c.obj)
 .text.z_log_msg2_alloc
                0x00000000       0x10 zephyr/libzephyr.a(log_core.c.obj)
 .text.z_log_msg2_commit
                0x00000000       0x20 zephyr/libzephyr.a(log_core.c.obj)
 .text.z_log_msg2_claim
                0x00000000        0xc zephyr/libzephyr.a(log_core.c.obj)
 .text.z_log_msg2_free
                0x00000000        0xc zephyr/libzephyr.a(log_core.c.obj)
 .text.z_log_msg2_pending
                0x00000000        0xc zephyr/libzephyr.a(log_core.c.obj)
 .bss.buf32     0x00000000      0x400 zephyr/libzephyr.a(log_core.c.obj)
 .bss.log_buffer
                0x00000000       0x3c zephyr/libzephyr.a(log_core.c.obj)
 .rodata.mpsc_config
                0x00000000       0x14 zephyr/libzephyr.a(log_core.c.obj)
 .text          0x00000000        0x0 zephyr/libzephyr.a(log_msg.c.obj)
 .data          0x00000000        0x0 zephyr/libzephyr.a(log_msg.c.obj)
 .bss           0x00000000        0x0 zephyr/libzephyr.a(log_msg.c.obj)
 .text.log_msg_create_n
                0x00000000       0xa8 zephyr/libzephyr.a(log_msg.c.obj)
 .text.log_msg_hexdump_create
                0x00000000       0xa6 zephyr/libzephyr.a(log_msg.c.obj)
 .text.log_msg_hexdump_data_put
                0x00000000        0xe zephyr/libzephyr.a(log_msg.c.obj)
 .text          0x00000000        0x0 zephyr/libzephyr.a(log_output.c.obj)
 .data          0x00000000        0x0 zephyr/libzephyr.a(log_output.c.obj)
 .bss           0x00000000        0x0 zephyr/libzephyr.a(log_output.c.obj)
 .text.cr_out_func
                0x00000000       0x1a zephyr/libzephyr.a(log_output.c.obj)
 .text.log_output_msg2_process
                0x00000000       0xc0 zephyr/libzephyr.a(log_output.c.obj)
 .text.log_output_string
                0x00000000       0x70 zephyr/libzephyr.a(log_output.c.obj)
 .text.log_output_hexdump
                0x00000000       0x74 zephyr/libzephyr.a(log_output.c.obj)
 .text.log_output_timestamp_to_us
                0x00000000       0x28 zephyr/libzephyr.a(log_output.c.obj)
 .text          0x00000000        0x0 zephyr/libzephyr.a(log_cmds.c.obj)
 .data          0x00000000        0x0 zephyr/libzephyr.a(log_cmds.c.obj)
 .bss           0x00000000        0x0 zephyr/libzephyr.a(log_cmds.c.obj)
 .text          0x00000000        0x0 zephyr/libzephyr.a(kernel_service.c.obj)
 .data          0x00000000        0x0 zephyr/libzephyr.a(kernel_service.c.obj)
 .bss           0x00000000        0x0 zephyr/libzephyr.a(kernel_service.c.obj)
 .text          0x00000000        0x0 zephyr/libzephyr.a(device_service.c.obj)
 .data          0x00000000        0x0 zephyr/libzephyr.a(device_service.c.obj)
 .bss           0x00000000        0x0 zephyr/libzephyr.a(device_service.c.obj)
 .text          0x00000000        0x0 zephyr/libzephyr.a(date_service.c.obj)
 .data          0x00000000        0x0 zephyr/libzephyr.a(date_service.c.obj)
 .bss           0x00000000        0x0 zephyr/libzephyr.a(date_service.c.obj)
 .text          0x00000000        0x0 zephyr/libzephyr.a(shell.c.obj)
 .data          0x00000000        0x0 zephyr/libzephyr.a(shell.c.obj)
 .bss           0x00000000        0x0 zephyr/libzephyr.a(shell.c.obj)
 .text.shell_uninit
                0x00000000        0xe zephyr/libzephyr.a(shell.c.obj)
 .text.shell_stop
                0x00000000       0x14 zephyr/libzephyr.a(shell.c.obj)
 .rodata.shell_hexdump_line.str1.1
                0x00000000       0x1b zephyr/libzephyr.a(shell.c.obj)
 .text.shell_hexdump_line
                0x00000000       0xd0 zephyr/libzephyr.a(shell.c.obj)
 .text.shell_hexdump
                0x00000000       0x30 zephyr/libzephyr.a(shell.c.obj)
 .text.shell_prompt_change
                0x00000000       0x20 zephyr/libzephyr.a(shell.c.obj)
 .text.shell_execute_cmd
                0x00000000       0x5e zephyr/libzephyr.a(shell.c.obj)
 .text.shell_insert_mode_set
                0x00000000       0x12 zephyr/libzephyr.a(shell.c.obj)
 .text.shell_use_colors_set
                0x00000000       0x12 zephyr/libzephyr.a(shell.c.obj)
 .text.shell_echo_set
                0x00000000       0x12 zephyr/libzephyr.a(shell.c.obj)
 .text.shell_obscure_set
                0x00000000       0x12 zephyr/libzephyr.a(shell.c.obj)
 .text.shell_mode_delete_set
                0x00000000       0x12 zephyr/libzephyr.a(shell.c.obj)
 .text          0x00000000        0x0 zephyr/libzephyr.a(shell_fprintf.c.obj)
 .data          0x00000000        0x0 zephyr/libzephyr.a(shell_fprintf.c.obj)
 .bss           0x00000000        0x0 zephyr/libzephyr.a(shell_fprintf.c.obj)
 .text          0x00000000        0x0 zephyr/libzephyr.a(shell_utils.c.obj)
 .data          0x00000000        0x0 zephyr/libzephyr.a(shell_utils.c.obj)
 .bss           0x00000000        0x0 zephyr/libzephyr.a(shell_utils.c.obj)
 .text.shell_set_root_cmd
                0x00000000       0x5c zephyr/libzephyr.a(shell_utils.c.obj)
 .text.shell_device_lookup
                0x00000000       0x68 zephyr/libzephyr.a(shell_utils.c.obj)
 .text          0x00000000        0x0 zephyr/libzephyr.a(shell_ops.c.obj)
 .data          0x00000000        0x0 zephyr/libzephyr.a(shell_ops.c.obj)
 .bss           0x00000000        0x0 zephyr/libzephyr.a(shell_ops.c.obj)
 .text          0x00000000        0x0 zephyr/libzephyr.a(shell_uart.c.obj)
 .data          0x00000000        0x0 zephyr/libzephyr.a(shell_uart.c.obj)
 .bss           0x00000000        0x0 zephyr/libzephyr.a(shell_uart.c.obj)
 .text.log_msg2_generic_get_wlen
                0x00000000       0x22 zephyr/libzephyr.a(shell_uart.c.obj)
 .text.shell_backend_uart_get_ptr
                0x00000000        0x8 zephyr/libzephyr.a(shell_uart.c.obj)
 .bss.shell_uart_mpsc_buffer
                0x00000000       0x3c zephyr/libzephyr.a(shell_uart.c.obj)
 .bss.shell_uartshell_uart_out_buffer
                0x00000000      0x200 zephyr/libzephyr.a(shell_uart.c.obj)
 .rodata.shell_uart_mpsc_buffer_config
                0x00000000       0x14 zephyr/libzephyr.a(shell_uart.c.obj)
 .text          0x00000000        0x0 zephyr/libzephyr.a(shell_help.c.obj)
 .data          0x00000000        0x0 zephyr/libzephyr.a(shell_help.c.obj)
 .bss           0x00000000        0x0 zephyr/libzephyr.a(shell_help.c.obj)
 .text          0x00000000        0x0 zephyr/libzephyr.a(shell_cmds.c.obj)
 .data          0x00000000        0x0 zephyr/libzephyr.a(shell_cmds.c.obj)
 .bss           0x00000000        0x0 zephyr/libzephyr.a(shell_cmds.c.obj)
 .text          0x00000000        0x0 zephyr/libzephyr.a(shell_history.c.obj)
 .data          0x00000000        0x0 zephyr/libzephyr.a(shell_history.c.obj)
 .bss           0x00000000        0x0 zephyr/libzephyr.a(shell_history.c.obj)
 .text          0x00000000        0x0 zephyr/libzephyr.a(shell_log_backend.c.obj)
 .data          0x00000000        0x0 zephyr/libzephyr.a(shell_log_backend.c.obj)
 .bss           0x00000000        0x0 zephyr/libzephyr.a(shell_log_backend.c.obj)
 .text          0x00000000        0x0 zephyr/libzephyr.a(shell_wildcard.c.obj)
 .data          0x00000000        0x0 zephyr/libzephyr.a(shell_wildcard.c.obj)
 .bss           0x00000000        0x0 zephyr/libzephyr.a(shell_wildcard.c.obj)
 .text          0x00000000        0x0 zephyr/libzephyr.a(power.c.obj)
 .data          0x00000000        0x0 zephyr/libzephyr.a(power.c.obj)
 .bss           0x00000000        0x0 zephyr/libzephyr.a(power.c.obj)
 .text.pm_dump_debug_info
                0x00000000        0x2 zephyr/libzephyr.a(power.c.obj)
 .text.pm_power_state_exit_post_ops
                0x00000000       0x16 zephyr/libzephyr.a(power.c.obj)
 .text.pm_power_state_set
                0x00000000        0xc zephyr/libzephyr.a(power.c.obj)
 .text.pm_power_state_force
                0x00000000       0x5c zephyr/libzephyr.a(power.c.obj)
 .text.pm_notifier_register
                0x00000000       0x34 zephyr/libzephyr.a(power.c.obj)
 .text.pm_notifier_unregister
                0x00000000       0x58 zephyr/libzephyr.a(power.c.obj)
 .text          0x00000000        0x0 zephyr/libzephyr.a(pm_ctrl.c.obj)
 .data          0x00000000        0x0 zephyr/libzephyr.a(pm_ctrl.c.obj)
 .bss           0x00000000        0x0 zephyr/libzephyr.a(pm_ctrl.c.obj)
 .text.pm_constraint_set
                0x00000000       0x1c zephyr/libzephyr.a(pm_ctrl.c.obj)
 .text.pm_constraint_release
                0x00000000       0x1c zephyr/libzephyr.a(pm_ctrl.c.obj)
 .text.pm_constraint_get
                0x00000000       0x18 zephyr/libzephyr.a(pm_ctrl.c.obj)
 .bss.power_state_disable_count
                0x00000000       0x1c zephyr/libzephyr.a(pm_ctrl.c.obj)
 .debug_info    0x00000000     0x1112 zephyr/libzephyr.a(pm_ctrl.c.obj)
 .debug_abbrev  0x00000000      0x2b4 zephyr/libzephyr.a(pm_ctrl.c.obj)
 .debug_loc     0x00000000      0x128 zephyr/libzephyr.a(pm_ctrl.c.obj)
 .debug_aranges
                0x00000000       0x30 zephyr/libzephyr.a(pm_ctrl.c.obj)
 .debug_ranges  0x00000000       0x50 zephyr/libzephyr.a(pm_ctrl.c.obj)
 .debug_line    0x00000000      0x47a zephyr/libzephyr.a(pm_ctrl.c.obj)
 .debug_str     0x00000000     0x105b zephyr/libzephyr.a(pm_ctrl.c.obj)
 .comment       0x00000000       0x7a zephyr/libzephyr.a(pm_ctrl.c.obj)
 .debug_frame   0x00000000       0x40 zephyr/libzephyr.a(pm_ctrl.c.obj)
 .text          0x00000000        0x0 zephyr/libzephyr.a(policy_residency.c.obj)
 .data          0x00000000        0x0 zephyr/libzephyr.a(policy_residency.c.obj)
 .bss           0x00000000        0x0 zephyr/libzephyr.a(policy_residency.c.obj)
 .text          0x00000000        0x0 zephyr/libzephyr.a(uart_console.c.obj)
 .data          0x00000000        0x0 zephyr/libzephyr.a(uart_console.c.obj)
 .bss           0x00000000        0x0 zephyr/libzephyr.a(uart_console.c.obj)
 .text          0x00000000        0x0 zephyr/libzephyr.a(clock_control_nrf.c.obj)
 .data          0x00000000        0x0 zephyr/libzephyr.a(clock_control_nrf.c.obj)
 .bss           0x00000000        0x0 zephyr/libzephyr.a(clock_control_nrf.c.obj)
 .text.z_nrf_clock_control_get_onoff
                0x00000000       0x10 zephyr/libzephyr.a(clock_control_nrf.c.obj)
 .text.z_nrf_clock_bt_ctlr_hf_request
                0x00000000       0x20 zephyr/libzephyr.a(clock_control_nrf.c.obj)
 .text.z_nrf_clock_bt_ctlr_hf_release
                0x00000000       0x20 zephyr/libzephyr.a(clock_control_nrf.c.obj)
 .__device_handles_pass1
                0x00000000        0xa zephyr/libzephyr.a(clock_control_nrf.c.obj)
 .text          0x00000000        0x0 zephyr/libzephyr.a(sys_clock_init.c.obj)
 .data          0x00000000        0x0 zephyr/libzephyr.a(sys_clock_init.c.obj)
 .bss           0x00000000        0x0 zephyr/libzephyr.a(sys_clock_init.c.obj)
 .text.sys_clock_driver_init
                0x00000000        0x4 zephyr/libzephyr.a(sys_clock_init.c.obj)
 .text.sys_clock_device_ctrl
                0x00000000        0x6 zephyr/libzephyr.a(sys_clock_init.c.obj)
 .text.sys_clock_set_timeout
                0x00000000        0x2 zephyr/libzephyr.a(sys_clock_init.c.obj)
 .__device_handles_pass1
                0x00000000        0x6 zephyr/libzephyr.a(sys_clock_init.c.obj)
 .text          0x00000000        0x0 zephyr/libzephyr.a(nrf_rtc_timer.c.obj)
 .data          0x00000000        0x0 zephyr/libzephyr.a(nrf_rtc_timer.c.obj)
 .bss           0x00000000        0x0 zephyr/libzephyr.a(nrf_rtc_timer.c.obj)
 .text.z_nrf_rtc_timer_read
                0x00000000        0xc zephyr/libzephyr.a(nrf_rtc_timer.c.obj)
 .text.z_nrf_rtc_timer_compare_evt_address_get
                0x00000000       0x10 zephyr/libzephyr.a(nrf_rtc_timer.c.obj)
 .text.z_nrf_rtc_timer_compare_int_lock
                0x00000000       0x3c zephyr/libzephyr.a(nrf_rtc_timer.c.obj)
 .text.z_nrf_rtc_timer_compare_int_unlock
                0x00000000       0x30 zephyr/libzephyr.a(nrf_rtc_timer.c.obj)
 .text.z_nrf_rtc_timer_compare_read
                0x00000000       0x10 zephyr/libzephyr.a(nrf_rtc_timer.c.obj)
 .text.z_nrf_rtc_timer_get_ticks
                0x00000000       0x78 zephyr/libzephyr.a(nrf_rtc_timer.c.obj)
 .text.z_nrf_rtc_timer_compare_set
                0x00000000       0x38 zephyr/libzephyr.a(nrf_rtc_timer.c.obj)
 .text.z_nrf_rtc_timer_chan_alloc
                0x00000000       0x3c zephyr/libzephyr.a(nrf_rtc_timer.c.obj)
 .text.z_nrf_rtc_timer_chan_free
                0x00000000       0x1c zephyr/libzephyr.a(nrf_rtc_timer.c.obj)
 .bss.alloc_mask
                0x00000000        0x4 zephyr/libzephyr.a(nrf_rtc_timer.c.obj)
 .text          0x00000000        0x0 zephyr/libzephyr.a(secure_services_ns.c.obj)
 .data          0x00000000        0x0 zephyr/libzephyr.a(secure_services_ns.c.obj)
 .bss           0x00000000        0x0 zephyr/libzephyr.a(secure_services_ns.c.obj)
 .text.spm_request_read
                0x00000000       0x18 zephyr/libzephyr.a(secure_services_ns.c.obj)
 .text.spm_firmware_info
                0x00000000       0x18 zephyr/libzephyr.a(secure_services_ns.c.obj)
 .text          0x00000000        0x0 zephyr/libzephyr.a(flash_map_partition_manager.c.obj)
 .data          0x00000000        0x0 zephyr/libzephyr.a(flash_map_partition_manager.c.obj)
 .bss           0x00000000        0x0 zephyr/libzephyr.a(flash_map_partition_manager.c.obj)
 .rodata.str1.1
                0x00000000       0x13 zephyr/libzephyr.a(flash_map_partition_manager.c.obj)
 .data.flash_map
                0x00000000        0x4 zephyr/libzephyr.a(flash_map_partition_manager.c.obj)
 .rodata.default_flash_map
                0x00000000       0x20 zephyr/libzephyr.a(flash_map_partition_manager.c.obj)
 .rodata.flash_map_entries
                0x00000000        0x4 zephyr/libzephyr.a(flash_map_partition_manager.c.obj)
 .debug_info    0x00000000      0x9dc zephyr/libzephyr.a(flash_map_partition_manager.c.obj)
 .debug_abbrev  0x00000000      0x197 zephyr/libzephyr.a(flash_map_partition_manager.c.obj)
 .debug_aranges
                0x00000000       0x18 zephyr/libzephyr.a(flash_map_partition_manager.c.obj)
 .debug_line    0x00000000      0x39c zephyr/libzephyr.a(flash_map_partition_manager.c.obj)
 .debug_str     0x00000000      0x8b5 zephyr/libzephyr.a(flash_map_partition_manager.c.obj)
 .comment       0x00000000       0x7a zephyr/libzephyr.a(flash_map_partition_manager.c.obj)
 .text          0x00000000        0x0 zephyr/arch/common/libarch__common.a(sw_isr_common.c.obj)
 .data          0x00000000        0x0 zephyr/arch/common/libarch__common.a(sw_isr_common.c.obj)
 .bss           0x00000000        0x0 zephyr/arch/common/libarch__common.a(sw_isr_common.c.obj)
 .debug_info    0x00000000      0x1e2 zephyr/arch/common/libarch__common.a(sw_isr_common.c.obj)
 .debug_abbrev  0x00000000       0xdf zephyr/arch/common/libarch__common.a(sw_isr_common.c.obj)
 .debug_aranges
                0x00000000       0x18 zephyr/arch/common/libarch__common.a(sw_isr_common.c.obj)
 .debug_line    0x00000000      0x199 zephyr/arch/common/libarch__common.a(sw_isr_common.c.obj)
 .debug_str     0x00000000      0x361 zephyr/arch/common/libarch__common.a(sw_isr_common.c.obj)
 .comment       0x00000000       0x7a zephyr/arch/common/libarch__common.a(sw_isr_common.c.obj)
 .text          0x00000000        0x0 zephyr/arch/arch/arm/core/aarch32/libarch__arm__core__aarch32.a(swap.c.obj)
 .data          0x00000000        0x0 zephyr/arch/arch/arm/core/aarch32/libarch__arm__core__aarch32.a(swap.c.obj)
 .bss           0x00000000        0x0 zephyr/arch/arch/arm/core/aarch32/libarch__arm__core__aarch32.a(swap.c.obj)
 .text          0x00000000        0x0 zephyr/arch/arch/arm/core/aarch32/libarch__arm__core__aarch32.a(irq_manage.c.obj)
 .data          0x00000000        0x0 zephyr/arch/arch/arm/core/aarch32/libarch__arm__core__aarch32.a(irq_manage.c.obj)
 .bss           0x00000000        0x0 zephyr/arch/arch/arm/core/aarch32/libarch__arm__core__aarch32.a(irq_manage.c.obj)
 .text.arch_irq_disable
                0x00000000       0x28 zephyr/arch/arch/arm/core/aarch32/libarch__arm__core__aarch32.a(irq_manage.c.obj)
 .text._arch_isr_direct_pm
                0x00000000       0x1c zephyr/arch/arch/arm/core/aarch32/libarch__arm__core__aarch32.a(irq_manage.c.obj)
 .text          0x00000000        0x0 zephyr/arch/arch/arm/core/aarch32/libarch__arm__core__aarch32.a(thread.c.obj)
 .data          0x00000000        0x0 zephyr/arch/arch/arm/core/aarch32/libarch__arm__core__aarch32.a(thread.c.obj)
 .bss           0x00000000        0x0 zephyr/arch/arch/arm/core/aarch32/libarch__arm__core__aarch32.a(thread.c.obj)
 .text          0x00000000        0x0 zephyr/arch/arch/arm/core/aarch32/libarch__arm__core__aarch32.a(fatal.c.obj)
 .data          0x00000000        0x0 zephyr/arch/arch/arm/core/aarch32/libarch__arm__core__aarch32.a(fatal.c.obj)
 .bss           0x00000000        0x0 zephyr/arch/arch/arm/core/aarch32/libarch__arm__core__aarch32.a(fatal.c.obj)
 .text.arch_syscall_oops
                0x00000000       0x1c zephyr/arch/arch/arm/core/aarch32/libarch__arm__core__aarch32.a(fatal.c.obj)
 .text          0x00000000        0x0 zephyr/arch/arch/arm/core/aarch32/libarch__arm__core__aarch32.a(nmi.c.obj)
 .data          0x00000000        0x0 zephyr/arch/arch/arm/core/aarch32/libarch__arm__core__aarch32.a(nmi.c.obj)
 .bss           0x00000000        0x0 zephyr/arch/arch/arm/core/aarch32/libarch__arm__core__aarch32.a(nmi.c.obj)
 .text          0x00000000        0x0 zephyr/arch/arch/arm/core/aarch32/libarch__arm__core__aarch32.a(prep_c.c.obj)
 .data          0x00000000        0x0 zephyr/arch/arch/arm/core/aarch32/libarch__arm__core__aarch32.a(prep_c.c.obj)
 .bss           0x00000000        0x0 zephyr/arch/arch/arm/core/aarch32/libarch__arm__core__aarch32.a(prep_c.c.obj)
 .text          0x00000000        0x0 zephyr/arch/arch/arm/core/aarch32/libarch__arm__core__aarch32.a(swap_helper.S.obj)
 .data          0x00000000        0x0 zephyr/arch/arch/arm/core/aarch32/libarch__arm__core__aarch32.a(swap_helper.S.obj)
 .bss           0x00000000        0x0 zephyr/arch/arch/arm/core/aarch32/libarch__arm__core__aarch32.a(swap_helper.S.obj)
 .text          0x00000000        0x0 zephyr/arch/arch/arm/core/aarch32/libarch__arm__core__aarch32.a(cpu_idle.S.obj)
 .data          0x00000000        0x0 zephyr/arch/arch/arm/core/aarch32/libarch__arm__core__aarch32.a(cpu_idle.S.obj)
 .bss           0x00000000        0x0 zephyr/arch/arch/arm/core/aarch32/libarch__arm__core__aarch32.a(cpu_idle.S.obj)
 .text          0x00000000        0x0 zephyr/arch/arch/arm/core/aarch32/libarch__arm__core__aarch32.a(nmi_on_reset.S.obj)
 .data          0x00000000        0x0 zephyr/arch/arch/arm/core/aarch32/libarch__arm__core__aarch32.a(nmi_on_reset.S.obj)
 .bss           0x00000000        0x0 zephyr/arch/arch/arm/core/aarch32/libarch__arm__core__aarch32.a(nmi_on_reset.S.obj)
 .text          0x00000000        0x0 zephyr/arch/arch/arm/core/aarch32/libarch__arm__core__aarch32.a(isr_wrapper.S.obj)
 .data          0x00000000        0x0 zephyr/arch/arch/arm/core/aarch32/libarch__arm__core__aarch32.a(isr_wrapper.S.obj)
 .bss           0x00000000        0x0 zephyr/arch/arch/arm/core/aarch32/libarch__arm__core__aarch32.a(isr_wrapper.S.obj)
 .text          0x00000000        0x0 zephyr/arch/arch/arm/core/aarch32/cortex_m/libarch__arm__core__aarch32__cortex_m.a(vector_table.S.obj)
 .data          0x00000000        0x0 zephyr/arch/arch/arm/core/aarch32/cortex_m/libarch__arm__core__aarch32__cortex_m.a(vector_table.S.obj)
 .bss           0x00000000        0x0 zephyr/arch/arch/arm/core/aarch32/cortex_m/libarch__arm__core__aarch32__cortex_m.a(vector_table.S.obj)
 .text          0x00000000        0x0 zephyr/arch/arch/arm/core/aarch32/cortex_m/libarch__arm__core__aarch32__cortex_m.a(reset.S.obj)
 .data          0x00000000        0x0 zephyr/arch/arch/arm/core/aarch32/cortex_m/libarch__arm__core__aarch32__cortex_m.a(reset.S.obj)
 .bss           0x00000000        0x0 zephyr/arch/arch/arm/core/aarch32/cortex_m/libarch__arm__core__aarch32__cortex_m.a(reset.S.obj)
 .text          0x00000000        0x0 zephyr/arch/arch/arm/core/aarch32/cortex_m/libarch__arm__core__aarch32__cortex_m.a(fault_s.S.obj)
 .data          0x00000000        0x0 zephyr/arch/arch/arm/core/aarch32/cortex_m/libarch__arm__core__aarch32__cortex_m.a(fault_s.S.obj)
 .bss           0x00000000        0x0 zephyr/arch/arch/arm/core/aarch32/cortex_m/libarch__arm__core__aarch32__cortex_m.a(fault_s.S.obj)
 .text          0x00000000        0x0 zephyr/arch/arch/arm/core/aarch32/cortex_m/libarch__arm__core__aarch32__cortex_m.a(exc_exit.S.obj)
 .data          0x00000000        0x0 zephyr/arch/arch/arm/core/aarch32/cortex_m/libarch__arm__core__aarch32__cortex_m.a(exc_exit.S.obj)
 .bss           0x00000000        0x0 zephyr/arch/arch/arm/core/aarch32/cortex_m/libarch__arm__core__aarch32__cortex_m.a(exc_exit.S.obj)
 .text          0x00000000        0x0 zephyr/arch/arch/arm/core/aarch32/cortex_m/libarch__arm__core__aarch32__cortex_m.a(fault.c.obj)
 .data          0x00000000        0x0 zephyr/arch/arch/arm/core/aarch32/cortex_m/libarch__arm__core__aarch32__cortex_m.a(fault.c.obj)
 .bss           0x00000000        0x0 zephyr/arch/arch/arm/core/aarch32/cortex_m/libarch__arm__core__aarch32__cortex_m.a(fault.c.obj)
 .text          0x00000000        0x0 zephyr/arch/arch/arm/core/aarch32/cortex_m/libarch__arm__core__aarch32__cortex_m.a(fpu.c.obj)
 .data          0x00000000        0x0 zephyr/arch/arch/arm/core/aarch32/cortex_m/libarch__arm__core__aarch32__cortex_m.a(fpu.c.obj)
 .bss           0x00000000        0x0 zephyr/arch/arch/arm/core/aarch32/cortex_m/libarch__arm__core__aarch32__cortex_m.a(fpu.c.obj)
 .text          0x00000000        0x0 zephyr/arch/arch/arm/core/aarch32/cortex_m/libarch__arm__core__aarch32__cortex_m.a(scb.c.obj)
 .data          0x00000000        0x0 zephyr/arch/arch/arm/core/aarch32/cortex_m/libarch__arm__core__aarch32__cortex_m.a(scb.c.obj)
 .bss           0x00000000        0x0 zephyr/arch/arch/arm/core/aarch32/cortex_m/libarch__arm__core__aarch32__cortex_m.a(scb.c.obj)
 .text.z_arm_clear_arm_mpu_config
                0x00000000       0x20 zephyr/arch/arch/arm/core/aarch32/cortex_m/libarch__arm__core__aarch32__cortex_m.a(scb.c.obj)
 .text          0x00000000        0x0 zephyr/arch/arch/arm/core/aarch32/cortex_m/libarch__arm__core__aarch32__cortex_m.a(irq_init.c.obj)
 .data          0x00000000        0x0 zephyr/arch/arch/arm/core/aarch32/cortex_m/libarch__arm__core__aarch32__cortex_m.a(irq_init.c.obj)
 .bss           0x00000000        0x0 zephyr/arch/arch/arm/core/aarch32/cortex_m/libarch__arm__core__aarch32__cortex_m.a(irq_init.c.obj)
 .text          0x00000000        0x0 zephyr/arch/arch/arm/core/aarch32/cortex_m/libarch__arm__core__aarch32__cortex_m.a(thread_abort.c.obj)
 .data          0x00000000        0x0 zephyr/arch/arch/arm/core/aarch32/cortex_m/libarch__arm__core__aarch32__cortex_m.a(thread_abort.c.obj)
 .bss           0x00000000        0x0 zephyr/arch/arch/arm/core/aarch32/cortex_m/libarch__arm__core__aarch32__cortex_m.a(thread_abort.c.obj)
 .text          0x00000000        0x0 zephyr/arch/arch/arm/core/aarch32/cortex_m/cmse/libarch__arm__core__aarch32__cortex_m__cmse.a(arm_core_cmse.c.obj)
 .data          0x00000000        0x0 zephyr/arch/arch/arm/core/aarch32/cortex_m/cmse/libarch__arm__core__aarch32__cortex_m__cmse.a(arm_core_cmse.c.obj)
 .bss           0x00000000        0x0 zephyr/arch/arch/arm/core/aarch32/cortex_m/cmse/libarch__arm__core__aarch32__cortex_m__cmse.a(arm_core_cmse.c.obj)
 .text.arm_cmse_addr_read_ok
                0x00000000       0x12 zephyr/arch/arch/arm/core/aarch32/cortex_m/cmse/libarch__arm__core__aarch32__cortex_m__cmse.a(arm_core_cmse.c.obj)
 .text.arm_cmse_addr_readwrite_ok
                0x00000000       0x12 zephyr/arch/arch/arm/core/aarch32/cortex_m/cmse/libarch__arm__core__aarch32__cortex_m__cmse.a(arm_core_cmse.c.obj)
 .text.arm_cmse_addr_range_read_ok
                0x00000000       0x18 zephyr/arch/arch/arm/core/aarch32/cortex_m/cmse/libarch__arm__core__aarch32__cortex_m__cmse.a(arm_core_cmse.c.obj)
 .text.arm_cmse_addr_range_readwrite_ok
                0x00000000       0x18 zephyr/arch/arch/arm/core/aarch32/cortex_m/cmse/libarch__arm__core__aarch32__cortex_m__cmse.a(arm_core_cmse.c.obj)
 .text          0x00000000        0x0 zephyr/arch/arch/arm/core/aarch32/mpu/libarch__arm__core__aarch32__mpu.a(arm_core_mpu.c.obj)
 .data          0x00000000        0x0 zephyr/arch/arch/arm/core/aarch32/mpu/libarch__arm__core__aarch32__mpu.a(arm_core_mpu.c.obj)
 .bss           0x00000000        0x0 zephyr/arch/arch/arm/core/aarch32/mpu/libarch__arm__core__aarch32__mpu.a(arm_core_mpu.c.obj)
 .text.z_arm_configure_dynamic_mpu_regions
                0x00000000        0xc zephyr/arch/arch/arm/core/aarch32/mpu/libarch__arm__core__aarch32__mpu.a(arm_core_mpu.c.obj)
 .bss.dynamic_regions.10290
                0x00000000        0x0 zephyr/arch/arch/arm/core/aarch32/mpu/libarch__arm__core__aarch32__mpu.a(arm_core_mpu.c.obj)
 .text          0x00000000        0x0 zephyr/arch/arch/arm/core/aarch32/mpu/libarch__arm__core__aarch32__mpu.a(arm_mpu.c.obj)
 .data          0x00000000        0x0 zephyr/arch/arch/arm/core/aarch32/mpu/libarch__arm__core__aarch32__mpu.a(arm_mpu.c.obj)
 .bss           0x00000000        0x0 zephyr/arch/arch/arm/core/aarch32/mpu/libarch__arm__core__aarch32__mpu.a(arm_mpu.c.obj)
 .text.arm_core_mpu_configure_dynamic_mpu_regions
                0x00000000       0x40 zephyr/arch/arch/arm/core/aarch32/mpu/libarch__arm__core__aarch32__mpu.a(arm_mpu.c.obj)
 .text          0x00000000        0x0 zephyr/lib/libc/minimal/liblib__libc__minimal.a(abort.c.obj)
 .data          0x00000000        0x0 zephyr/lib/libc/minimal/liblib__libc__minimal.a(abort.c.obj)
 .bss           0x00000000        0x0 zephyr/lib/libc/minimal/liblib__libc__minimal.a(abort.c.obj)
 .rodata.abort.str1.1
                0x00000000        0x9 zephyr/lib/libc/minimal/liblib__libc__minimal.a(abort.c.obj)
 .text.abort    0x00000000       0x1c zephyr/lib/libc/minimal/liblib__libc__minimal.a(abort.c.obj)
 .debug_info    0x00000000      0x912 zephyr/lib/libc/minimal/liblib__libc__minimal.a(abort.c.obj)
 .debug_abbrev  0x00000000      0x1ce zephyr/lib/libc/minimal/liblib__libc__minimal.a(abort.c.obj)
 .debug_aranges
                0x00000000       0x20 zephyr/lib/libc/minimal/liblib__libc__minimal.a(abort.c.obj)
 .debug_ranges  0x00000000       0x10 zephyr/lib/libc/minimal/liblib__libc__minimal.a(abort.c.obj)
 .debug_line    0x00000000      0x364 zephyr/lib/libc/minimal/liblib__libc__minimal.a(abort.c.obj)
 .debug_str     0x00000000      0x768 zephyr/lib/libc/minimal/liblib__libc__minimal.a(abort.c.obj)
 .comment       0x00000000       0x7a zephyr/lib/libc/minimal/liblib__libc__minimal.a(abort.c.obj)
 .debug_frame   0x00000000       0x28 zephyr/lib/libc/minimal/liblib__libc__minimal.a(abort.c.obj)
 .text          0x00000000        0x0 zephyr/lib/libc/minimal/liblib__libc__minimal.a(atoi.c.obj)
 .data          0x00000000        0x0 zephyr/lib/libc/minimal/liblib__libc__minimal.a(atoi.c.obj)
 .bss           0x00000000        0x0 zephyr/lib/libc/minimal/liblib__libc__minimal.a(atoi.c.obj)
 .text.atoi     0x00000000       0x4c zephyr/lib/libc/minimal/liblib__libc__minimal.a(atoi.c.obj)
 .debug_info    0x00000000      0x111 zephyr/lib/libc/minimal/liblib__libc__minimal.a(atoi.c.obj)
 .debug_abbrev  0x00000000      0x102 zephyr/lib/libc/minimal/liblib__libc__minimal.a(atoi.c.obj)
 .debug_loc     0x00000000       0xab zephyr/lib/libc/minimal/liblib__libc__minimal.a(atoi.c.obj)
 .debug_aranges
                0x00000000       0x20 zephyr/lib/libc/minimal/liblib__libc__minimal.a(atoi.c.obj)
 .debug_ranges  0x00000000       0x10 zephyr/lib/libc/minimal/liblib__libc__minimal.a(atoi.c.obj)
 .debug_line    0x00000000      0x14a zephyr/lib/libc/minimal/liblib__libc__minimal.a(atoi.c.obj)
 .debug_str     0x00000000      0x200 zephyr/lib/libc/minimal/liblib__libc__minimal.a(atoi.c.obj)
 .comment       0x00000000       0x7a zephyr/lib/libc/minimal/liblib__libc__minimal.a(atoi.c.obj)
 .debug_frame   0x00000000       0x2c zephyr/lib/libc/minimal/liblib__libc__minimal.a(atoi.c.obj)
 .text          0x00000000        0x0 zephyr/lib/libc/minimal/liblib__libc__minimal.a(strtol.c.obj)
 .data          0x00000000        0x0 zephyr/lib/libc/minimal/liblib__libc__minimal.a(strtol.c.obj)
 .bss           0x00000000        0x0 zephyr/lib/libc/minimal/liblib__libc__minimal.a(strtol.c.obj)
 .text          0x00000000        0x0 zephyr/lib/libc/minimal/liblib__libc__minimal.a(strtoul.c.obj)
 .data          0x00000000        0x0 zephyr/lib/libc/minimal/liblib__libc__minimal.a(strtoul.c.obj)
 .bss           0x00000000        0x0 zephyr/lib/libc/minimal/liblib__libc__minimal.a(strtoul.c.obj)
 .text.strtoul  0x00000000       0xf2 zephyr/lib/libc/minimal/liblib__libc__minimal.a(strtoul.c.obj)
 .debug_info    0x00000000      0x2ba zephyr/lib/libc/minimal/liblib__libc__minimal.a(strtoul.c.obj)
 .debug_abbrev  0x00000000      0x123 zephyr/lib/libc/minimal/liblib__libc__minimal.a(strtoul.c.obj)
 .debug_loc     0x00000000      0x3c7 zephyr/lib/libc/minimal/liblib__libc__minimal.a(strtoul.c.obj)
 .debug_aranges
                0x00000000       0x20 zephyr/lib/libc/minimal/liblib__libc__minimal.a(strtoul.c.obj)
 .debug_ranges  0x00000000       0x10 zephyr/lib/libc/minimal/liblib__libc__minimal.a(strtoul.c.obj)
 .debug_line    0x00000000      0x2f5 zephyr/lib/libc/minimal/liblib__libc__minimal.a(strtoul.c.obj)
 .debug_str     0x00000000      0x2cf zephyr/lib/libc/minimal/liblib__libc__minimal.a(strtoul.c.obj)
 .comment       0x00000000       0x7a zephyr/lib/libc/minimal/liblib__libc__minimal.a(strtoul.c.obj)
 .debug_frame   0x00000000       0x30 zephyr/lib/libc/minimal/liblib__libc__minimal.a(strtoul.c.obj)
 .text          0x00000000        0x0 zephyr/lib/libc/minimal/liblib__libc__minimal.a(malloc.c.obj)
 .data          0x00000000        0x0 zephyr/lib/libc/minimal/liblib__libc__minimal.a(malloc.c.obj)
 .bss           0x00000000        0x0 zephyr/lib/libc/minimal/liblib__libc__minimal.a(malloc.c.obj)
 .rodata.malloc.str1.1
                0x00000000       0x2b zephyr/lib/libc/minimal/liblib__libc__minimal.a(malloc.c.obj)
 .text.malloc   0x00000000       0x34 zephyr/lib/libc/minimal/liblib__libc__minimal.a(malloc.c.obj)
 .text.free     0x00000000        0x2 zephyr/lib/libc/minimal/liblib__libc__minimal.a(malloc.c.obj)
 .text.realloc  0x00000000        0x6 zephyr/lib/libc/minimal/liblib__libc__minimal.a(malloc.c.obj)
 .text.calloc   0x00000000       0x2c zephyr/lib/libc/minimal/liblib__libc__minimal.a(malloc.c.obj)
 .text.reallocarray
                0x00000000        0x4 zephyr/lib/libc/minimal/liblib__libc__minimal.a(malloc.c.obj)
 .debug_info    0x00000000     0x13db zephyr/lib/libc/minimal/liblib__libc__minimal.a(malloc.c.obj)
 .debug_abbrev  0x00000000      0x3ec zephyr/lib/libc/minimal/liblib__libc__minimal.a(malloc.c.obj)
 .debug_loc     0x00000000      0x1fb zephyr/lib/libc/minimal/liblib__libc__minimal.a(malloc.c.obj)
 .debug_aranges
                0x00000000       0x40 zephyr/lib/libc/minimal/liblib__libc__minimal.a(malloc.c.obj)
 .debug_ranges  0x00000000       0x88 zephyr/lib/libc/minimal/liblib__libc__minimal.a(malloc.c.obj)
 .debug_line    0x00000000      0x5ec zephyr/lib/libc/minimal/liblib__libc__minimal.a(malloc.c.obj)
 .debug_str     0x00000000      0xc3a zephyr/lib/libc/minimal/liblib__libc__minimal.a(malloc.c.obj)
 .comment       0x00000000       0x7a zephyr/lib/libc/minimal/liblib__libc__minimal.a(malloc.c.obj)
 .debug_frame   0x00000000       0x74 zephyr/lib/libc/minimal/liblib__libc__minimal.a(malloc.c.obj)
 .text          0x00000000        0x0 zephyr/lib/libc/minimal/liblib__libc__minimal.a(bsearch.c.obj)
 .data          0x00000000        0x0 zephyr/lib/libc/minimal/liblib__libc__minimal.a(bsearch.c.obj)
 .bss           0x00000000        0x0 zephyr/lib/libc/minimal/liblib__libc__minimal.a(bsearch.c.obj)
 .text.bsearch  0x00000000       0x3c zephyr/lib/libc/minimal/liblib__libc__minimal.a(bsearch.c.obj)
 .debug_info    0x00000000      0x16a zephyr/lib/libc/minimal/liblib__libc__minimal.a(bsearch.c.obj)
 .debug_abbrev  0x00000000       0xea zephyr/lib/libc/minimal/liblib__libc__minimal.a(bsearch.c.obj)
 .debug_loc     0x00000000      0x133 zephyr/lib/libc/minimal/liblib__libc__minimal.a(bsearch.c.obj)
 .debug_aranges
                0x00000000       0x20 zephyr/lib/libc/minimal/liblib__libc__minimal.a(bsearch.c.obj)
 .debug_ranges  0x00000000       0x10 zephyr/lib/libc/minimal/liblib__libc__minimal.a(bsearch.c.obj)
 .debug_line    0x00000000      0x151 zephyr/lib/libc/minimal/liblib__libc__minimal.a(bsearch.c.obj)
 .debug_str     0x00000000      0x226 zephyr/lib/libc/minimal/liblib__libc__minimal.a(bsearch.c.obj)
 .comment       0x00000000       0x7a zephyr/lib/libc/minimal/liblib__libc__minimal.a(bsearch.c.obj)
 .debug_frame   0x00000000       0x38 zephyr/lib/libc/minimal/liblib__libc__minimal.a(bsearch.c.obj)
 .text          0x00000000        0x0 zephyr/lib/libc/minimal/liblib__libc__minimal.a(exit.c.obj)
 .data          0x00000000        0x0 zephyr/lib/libc/minimal/liblib__libc__minimal.a(exit.c.obj)
 .bss           0x00000000        0x0 zephyr/lib/libc/minimal/liblib__libc__minimal.a(exit.c.obj)
 .rodata._exit.str1.1
                0x00000000        0x6 zephyr/lib/libc/minimal/liblib__libc__minimal.a(exit.c.obj)
 .text._exit    0x00000000       0x10 zephyr/lib/libc/minimal/liblib__libc__minimal.a(exit.c.obj)
 .debug_info    0x00000000      0x8f5 zephyr/lib/libc/minimal/liblib__libc__minimal.a(exit.c.obj)
 .debug_abbrev  0x00000000      0x1c4 zephyr/lib/libc/minimal/liblib__libc__minimal.a(exit.c.obj)
 .debug_loc     0x00000000       0x25 zephyr/lib/libc/minimal/liblib__libc__minimal.a(exit.c.obj)
 .debug_aranges
                0x00000000       0x20 zephyr/lib/libc/minimal/liblib__libc__minimal.a(exit.c.obj)
 .debug_ranges  0x00000000       0x10 zephyr/lib/libc/minimal/liblib__libc__minimal.a(exit.c.obj)
 .debug_line    0x00000000      0x363 zephyr/lib/libc/minimal/liblib__libc__minimal.a(exit.c.obj)
 .debug_str     0x00000000      0x6f8 zephyr/lib/libc/minimal/liblib__libc__minimal.a(exit.c.obj)
 .comment       0x00000000       0x7a zephyr/lib/libc/minimal/liblib__libc__minimal.a(exit.c.obj)
 .debug_frame   0x00000000       0x28 zephyr/lib/libc/minimal/liblib__libc__minimal.a(exit.c.obj)
 .text          0x00000000        0x0 zephyr/lib/libc/minimal/liblib__libc__minimal.a(strncasecmp.c.obj)
 .data          0x00000000        0x0 zephyr/lib/libc/minimal/liblib__libc__minimal.a(strncasecmp.c.obj)
 .bss           0x00000000        0x0 zephyr/lib/libc/minimal/liblib__libc__minimal.a(strncasecmp.c.obj)
 .text.strncasecmp
                0x00000000       0x4c zephyr/lib/libc/minimal/liblib__libc__minimal.a(strncasecmp.c.obj)
 .debug_info    0x00000000      0x154 zephyr/lib/libc/minimal/liblib__libc__minimal.a(strncasecmp.c.obj)
 .debug_abbrev  0x00000000      0x108 zephyr/lib/libc/minimal/liblib__libc__minimal.a(strncasecmp.c.obj)
 .debug_loc     0x00000000      0x164 zephyr/lib/libc/minimal/liblib__libc__minimal.a(strncasecmp.c.obj)
 .debug_aranges
                0x00000000       0x20 zephyr/lib/libc/minimal/liblib__libc__minimal.a(strncasecmp.c.obj)
 .debug_ranges  0x00000000       0x10 zephyr/lib/libc/minimal/liblib__libc__minimal.a(strncasecmp.c.obj)
 .debug_line    0x00000000      0x188 zephyr/lib/libc/minimal/liblib__libc__minimal.a(strncasecmp.c.obj)
 .debug_str     0x00000000      0x229 zephyr/lib/libc/minimal/liblib__libc__minimal.a(strncasecmp.c.obj)
 .comment       0x00000000       0x7a zephyr/lib/libc/minimal/liblib__libc__minimal.a(strncasecmp.c.obj)
 .debug_frame   0x00000000       0x2c zephyr/lib/libc/minimal/liblib__libc__minimal.a(strncasecmp.c.obj)
 .text          0x00000000        0x0 zephyr/lib/libc/minimal/liblib__libc__minimal.a(strstr.c.obj)
 .data          0x00000000        0x0 zephyr/lib/libc/minimal/liblib__libc__minimal.a(strstr.c.obj)
 .bss           0x00000000        0x0 zephyr/lib/libc/minimal/liblib__libc__minimal.a(strstr.c.obj)
 .text          0x00000000        0x0 zephyr/lib/libc/minimal/liblib__libc__minimal.a(string.c.obj)
 .data          0x00000000        0x0 zephyr/lib/libc/minimal/liblib__libc__minimal.a(string.c.obj)
 .bss           0x00000000        0x0 zephyr/lib/libc/minimal/liblib__libc__minimal.a(string.c.obj)
 .text.strrchr  0x00000000       0x1a zephyr/lib/libc/minimal/liblib__libc__minimal.a(string.c.obj)
 .text.strtok_r
                0x00000000       0x4c zephyr/lib/libc/minimal/liblib__libc__minimal.a(string.c.obj)
 .text.strcat   0x00000000       0x12 zephyr/lib/libc/minimal/liblib__libc__minimal.a(string.c.obj)
 .text.strncat  0x00000000       0x28 zephyr/lib/libc/minimal/liblib__libc__minimal.a(string.c.obj)
 .text.memchr   0x00000000       0x20 zephyr/lib/libc/minimal/liblib__libc__minimal.a(string.c.obj)
 .text          0x00000000        0x0 zephyr/lib/libc/minimal/liblib__libc__minimal.a(strspn.c.obj)
 .data          0x00000000        0x0 zephyr/lib/libc/minimal/liblib__libc__minimal.a(strspn.c.obj)
 .bss           0x00000000        0x0 zephyr/lib/libc/minimal/liblib__libc__minimal.a(strspn.c.obj)
 .text.strspn   0x00000000       0x20 zephyr/lib/libc/minimal/liblib__libc__minimal.a(strspn.c.obj)
 .text.strcspn  0x00000000       0x20 zephyr/lib/libc/minimal/liblib__libc__minimal.a(strspn.c.obj)
 .debug_info    0x00000000      0x128 zephyr/lib/libc/minimal/liblib__libc__minimal.a(strspn.c.obj)
 .debug_abbrev  0x00000000       0xcd zephyr/lib/libc/minimal/liblib__libc__minimal.a(strspn.c.obj)
 .debug_loc     0x00000000       0xcc zephyr/lib/libc/minimal/liblib__libc__minimal.a(strspn.c.obj)
 .debug_aranges
                0x00000000       0x28 zephyr/lib/libc/minimal/liblib__libc__minimal.a(strspn.c.obj)
 .debug_ranges  0x00000000       0x18 zephyr/lib/libc/minimal/liblib__libc__minimal.a(strspn.c.obj)
 .debug_line    0x00000000      0x161 zephyr/lib/libc/minimal/liblib__libc__minimal.a(strspn.c.obj)
 .debug_str     0x00000000      0x218 zephyr/lib/libc/minimal/liblib__libc__minimal.a(strspn.c.obj)
 .comment       0x00000000       0x7a zephyr/lib/libc/minimal/liblib__libc__minimal.a(strspn.c.obj)
 .debug_frame   0x00000000       0x50 zephyr/lib/libc/minimal/liblib__libc__minimal.a(strspn.c.obj)
 .text          0x00000000        0x0 zephyr/lib/libc/minimal/liblib__libc__minimal.a(stdout_console.c.obj)
 .data          0x00000000        0x0 zephyr/lib/libc/minimal/liblib__libc__minimal.a(stdout_console.c.obj)
 .bss           0x00000000        0x0 zephyr/lib/libc/minimal/liblib__libc__minimal.a(stdout_console.c.obj)
 .text.z_impl_zephyr_fwrite
                0x00000000       0x48 zephyr/lib/libc/minimal/liblib__libc__minimal.a(stdout_console.c.obj)
 .text.fputs    0x00000000       0x22 zephyr/lib/libc/minimal/liblib__libc__minimal.a(stdout_console.c.obj)
 .text.fwrite   0x00000000        0x4 zephyr/lib/libc/minimal/liblib__libc__minimal.a(stdout_console.c.obj)
 .text.puts     0x00000000       0x20 zephyr/lib/libc/minimal/liblib__libc__minimal.a(stdout_console.c.obj)
 .text          0x00000000        0x0 zephyr/lib/libc/minimal/liblib__libc__minimal.a(sprintf.c.obj)
 .data          0x00000000        0x0 zephyr/lib/libc/minimal/liblib__libc__minimal.a(sprintf.c.obj)
 .bss           0x00000000        0x0 zephyr/lib/libc/minimal/liblib__libc__minimal.a(sprintf.c.obj)
 .text.vsnprintf
                0x00000000       0x24 zephyr/lib/libc/minimal/liblib__libc__minimal.a(sprintf.c.obj)
 .text.vsprintf
                0x00000000       0x28 zephyr/lib/libc/minimal/liblib__libc__minimal.a(sprintf.c.obj)
 .text          0x00000000        0x0 zephyr/lib/libc/minimal/liblib__libc__minimal.a(fprintf.c.obj)
 .data          0x00000000        0x0 zephyr/lib/libc/minimal/liblib__libc__minimal.a(fprintf.c.obj)
 .bss           0x00000000        0x0 zephyr/lib/libc/minimal/liblib__libc__minimal.a(fprintf.c.obj)
 .text.fprintf  0x00000000       0x24 zephyr/lib/libc/minimal/liblib__libc__minimal.a(fprintf.c.obj)
 .text.vfprintf
                0x00000000       0x10 zephyr/lib/libc/minimal/liblib__libc__minimal.a(fprintf.c.obj)
 .text.vprintf  0x00000000       0x10 zephyr/lib/libc/minimal/liblib__libc__minimal.a(fprintf.c.obj)
 .text          0x00000000        0x0 zephyr/lib/libc/minimal/liblib__libc__minimal.a(gmtime.c.obj)
 .data          0x00000000        0x0 zephyr/lib/libc/minimal/liblib__libc__minimal.a(gmtime.c.obj)
 .bss           0x00000000        0x0 zephyr/lib/libc/minimal/liblib__libc__minimal.a(gmtime.c.obj)
 .text.gmtime   0x00000000        0xc zephyr/lib/libc/minimal/liblib__libc__minimal.a(gmtime.c.obj)
 .bss.shared.3716
                0x00000000       0x24 zephyr/lib/libc/minimal/liblib__libc__minimal.a(gmtime.c.obj)
 .text          0x00000000        0x0 zephyr/lib/libc/minimal/liblib__libc__minimal.a(time.c.obj)
 .data          0x00000000        0x0 zephyr/lib/libc/minimal/liblib__libc__minimal.a(time.c.obj)
 .bss           0x00000000        0x0 zephyr/lib/libc/minimal/liblib__libc__minimal.a(time.c.obj)
 .text.time     0x00000000       0x28 zephyr/lib/libc/minimal/liblib__libc__minimal.a(time.c.obj)
 .debug_info    0x00000000      0x9ca zephyr/lib/libc/minimal/liblib__libc__minimal.a(time.c.obj)
 .debug_abbrev  0x00000000      0x23e zephyr/lib/libc/minimal/liblib__libc__minimal.a(time.c.obj)
 .debug_loc     0x00000000       0x6f zephyr/lib/libc/minimal/liblib__libc__minimal.a(time.c.obj)
 .debug_aranges
                0x00000000       0x20 zephyr/lib/libc/minimal/liblib__libc__minimal.a(time.c.obj)
 .debug_ranges  0x00000000       0x28 zephyr/lib/libc/minimal/liblib__libc__minimal.a(time.c.obj)
 .debug_line    0x00000000      0x43a zephyr/lib/libc/minimal/liblib__libc__minimal.a(time.c.obj)
 .debug_str     0x00000000      0x74a zephyr/lib/libc/minimal/liblib__libc__minimal.a(time.c.obj)
 .comment       0x00000000       0x7a zephyr/lib/libc/minimal/liblib__libc__minimal.a(time.c.obj)
 .debug_frame   0x00000000       0x30 zephyr/lib/libc/minimal/liblib__libc__minimal.a(time.c.obj)
 .text          0x00000000        0x0 zephyr/lib/posix/liblib__posix.a(pthread_common.c.obj)
 .data          0x00000000        0x0 zephyr/lib/posix/liblib__posix.a(pthread_common.c.obj)
 .bss           0x00000000        0x0 zephyr/lib/posix/liblib__posix.a(pthread_common.c.obj)
 .text.timespec_to_timeoutms
                0x00000000       0x70 zephyr/lib/posix/liblib__posix.a(pthread_common.c.obj)
 .debug_info    0x00000000      0xa63 zephyr/lib/posix/liblib__posix.a(pthread_common.c.obj)
 .debug_abbrev  0x00000000      0x25f zephyr/lib/posix/liblib__posix.a(pthread_common.c.obj)
 .debug_loc     0x00000000       0xfb zephyr/lib/posix/liblib__posix.a(pthread_common.c.obj)
 .debug_aranges
                0x00000000       0x20 zephyr/lib/posix/liblib__posix.a(pthread_common.c.obj)
 .debug_ranges  0x00000000       0x10 zephyr/lib/posix/liblib__posix.a(pthread_common.c.obj)
 .debug_line    0x00000000      0x4ea zephyr/lib/posix/liblib__posix.a(pthread_common.c.obj)
 .debug_str     0x00000000      0x7bf zephyr/lib/posix/liblib__posix.a(pthread_common.c.obj)
 .comment       0x00000000       0x7a zephyr/lib/posix/liblib__posix.a(pthread_common.c.obj)
 .debug_frame   0x00000000       0x38 zephyr/lib/posix/liblib__posix.a(pthread_common.c.obj)
 .text          0x00000000        0x0 zephyr/lib/posix/liblib__posix.a(clock.c.obj)
 .data          0x00000000        0x0 zephyr/lib/posix/liblib__posix.a(clock.c.obj)
 .bss           0x00000000        0x0 zephyr/lib/posix/liblib__posix.a(clock.c.obj)
 .text.gettimeofday
                0x00000000       0x24 zephyr/lib/posix/liblib__posix.a(clock.c.obj)
 .text          0x00000000        0x0 zephyr/lib/posix/liblib__posix.a(sleep.c.obj)
 .data          0x00000000        0x0 zephyr/lib/posix/liblib__posix.a(sleep.c.obj)
 .bss           0x00000000        0x0 zephyr/lib/posix/liblib__posix.a(sleep.c.obj)
 .text.sleep    0x00000000       0x2c zephyr/lib/posix/liblib__posix.a(sleep.c.obj)
 .text.usleep   0x00000000       0x3a zephyr/lib/posix/liblib__posix.a(sleep.c.obj)
 .debug_info    0x00000000      0xc88 zephyr/lib/posix/liblib__posix.a(sleep.c.obj)
 .debug_abbrev  0x00000000      0x31c zephyr/lib/posix/liblib__posix.a(sleep.c.obj)
 .debug_loc     0x00000000      0x2af zephyr/lib/posix/liblib__posix.a(sleep.c.obj)
 .debug_aranges
                0x00000000       0x28 zephyr/lib/posix/liblib__posix.a(sleep.c.obj)
 .debug_ranges  0x00000000       0xa0 zephyr/lib/posix/liblib__posix.a(sleep.c.obj)
 .debug_line    0x00000000      0x4c2 zephyr/lib/posix/liblib__posix.a(sleep.c.obj)
 .debug_str     0x00000000      0x7d7 zephyr/lib/posix/liblib__posix.a(sleep.c.obj)
 .comment       0x00000000       0x7a zephyr/lib/posix/liblib__posix.a(sleep.c.obj)
 .debug_frame   0x00000000       0x48 zephyr/lib/posix/liblib__posix.a(sleep.c.obj)
 .text          0x00000000        0x0 zephyr/lib/posix/liblib__posix.a(timer.c.obj)
 .data          0x00000000        0x0 zephyr/lib/posix/liblib__posix.a(timer.c.obj)
 .bss           0x00000000        0x0 zephyr/lib/posix/liblib__posix.a(timer.c.obj)
 .text.zephyr_timer_wrapper
                0x00000000        0xc zephyr/lib/posix/liblib__posix.a(timer.c.obj)
 .text.timer_create
                0x00000000       0x84 zephyr/lib/posix/liblib__posix.a(timer.c.obj)
 .text.timer_gettime
                0x00000000       0x68 zephyr/lib/posix/liblib__posix.a(timer.c.obj)
 .text.timer_settime
                0x00000000       0xfc zephyr/lib/posix/liblib__posix.a(timer.c.obj)
 .text.timer_delete
                0x00000000       0x38 zephyr/lib/posix/liblib__posix.a(timer.c.obj)
 ._k_mem_slab.static.posix_timer_slab
                0x00000000       0x1c zephyr/lib/posix/liblib__posix.a(timer.c.obj)
 .noinit."WEST_TOPDIR/zephyr/lib/posix/timer.c".0
                0x00000000      0x1b8 zephyr/lib/posix/liblib__posix.a(timer.c.obj)
 .debug_info    0x00000000     0x1702 zephyr/lib/posix/liblib__posix.a(timer.c.obj)
 .debug_abbrev  0x00000000      0x44c zephyr/lib/posix/liblib__posix.a(timer.c.obj)
 .debug_loc     0x00000000      0x940 zephyr/lib/posix/liblib__posix.a(timer.c.obj)
 .debug_aranges
                0x00000000       0x40 zephyr/lib/posix/liblib__posix.a(timer.c.obj)
 .debug_ranges  0x00000000      0x1b8 zephyr/lib/posix/liblib__posix.a(timer.c.obj)
 .debug_line    0x00000000      0x939 zephyr/lib/posix/liblib__posix.a(timer.c.obj)
 .debug_str     0x00000000      0xbd1 zephyr/lib/posix/liblib__posix.a(timer.c.obj)
 .comment       0x00000000       0x7a zephyr/lib/posix/liblib__posix.a(timer.c.obj)
 .debug_frame   0x00000000       0xa8 zephyr/lib/posix/liblib__posix.a(timer.c.obj)
 .text          0x00000000        0x0 zephyr/lib/posix/liblib__posix.a(nanosleep.c.obj)
 .data          0x00000000        0x0 zephyr/lib/posix/liblib__posix.a(nanosleep.c.obj)
 .bss           0x00000000        0x0 zephyr/lib/posix/liblib__posix.a(nanosleep.c.obj)
 .text.nanosleep
                0x00000000      0x10c zephyr/lib/posix/liblib__posix.a(nanosleep.c.obj)
 .debug_info    0x00000000      0xc42 zephyr/lib/posix/liblib__posix.a(nanosleep.c.obj)
 .debug_abbrev  0x00000000      0x30d zephyr/lib/posix/liblib__posix.a(nanosleep.c.obj)
 .debug_loc     0x00000000      0x279 zephyr/lib/posix/liblib__posix.a(nanosleep.c.obj)
 .debug_aranges
                0x00000000       0x20 zephyr/lib/posix/liblib__posix.a(nanosleep.c.obj)
 .debug_ranges  0x00000000       0x40 zephyr/lib/posix/liblib__posix.a(nanosleep.c.obj)
 .debug_line    0x00000000      0x563 zephyr/lib/posix/liblib__posix.a(nanosleep.c.obj)
 .debug_str     0x00000000      0x804 zephyr/lib/posix/liblib__posix.a(nanosleep.c.obj)
 .comment       0x00000000       0x7a zephyr/lib/posix/liblib__posix.a(nanosleep.c.obj)
 .debug_frame   0x00000000       0x30 zephyr/lib/posix/liblib__posix.a(nanosleep.c.obj)
 .text          0x00000000        0x0 zephyr/soc/arm/common/cortex_m/libsoc__arm__common__cortex_m.a(arm_mpu_regions.c.obj)
 .data          0x00000000        0x0 zephyr/soc/arm/common/cortex_m/libsoc__arm__common__cortex_m.a(arm_mpu_regions.c.obj)
 .bss           0x00000000        0x0 zephyr/soc/arm/common/cortex_m/libsoc__arm__common__cortex_m.a(arm_mpu_regions.c.obj)
 .text          0x00000000        0x0 zephyr/subsys/random/libsubsys__random.a(rand32_entropy_device.c.obj)
 .data          0x00000000        0x0 zephyr/subsys/random/libsubsys__random.a(rand32_entropy_device.c.obj)
 .bss           0x00000000        0x0 zephyr/subsys/random/libsubsys__random.a(rand32_entropy_device.c.obj)
 .rodata.rand_get.str1.1
                0x00000000        0xe zephyr/subsys/random/libsubsys__random.a(rand32_entropy_device.c.obj)
 .text.rand_get
                0x00000000       0x54 zephyr/subsys/random/libsubsys__random.a(rand32_entropy_device.c.obj)
 .text.z_impl_sys_rand32_get
                0x00000000       0x34 zephyr/subsys/random/libsubsys__random.a(rand32_entropy_device.c.obj)
 .text.z_impl_sys_rand_get
                0x00000000        0x6 zephyr/subsys/random/libsubsys__random.a(rand32_entropy_device.c.obj)
 .text.z_impl_sys_csrand_get
                0x00000000       0x12 zephyr/subsys/random/libsubsys__random.a(rand32_entropy_device.c.obj)
 .bss.entropy_driver
                0x00000000        0x4 zephyr/subsys/random/libsubsys__random.a(rand32_entropy_device.c.obj)
 .debug_info    0x00000000     0x144c zephyr/subsys/random/libsubsys__random.a(rand32_entropy_device.c.obj)
 .debug_abbrev  0x00000000      0x3e5 zephyr/subsys/random/libsubsys__random.a(rand32_entropy_device.c.obj)
 .debug_loc     0x00000000      0x326 zephyr/subsys/random/libsubsys__random.a(rand32_entropy_device.c.obj)
 .debug_aranges
                0x00000000       0x38 zephyr/subsys/random/libsubsys__random.a(rand32_entropy_device.c.obj)
 .debug_ranges  0x00000000       0x78 zephyr/subsys/random/libsubsys__random.a(rand32_entropy_device.c.obj)
 .debug_line    0x00000000      0x5af zephyr/subsys/random/libsubsys__random.a(rand32_entropy_device.c.obj)
 .debug_str     0x00000000     0x111a zephyr/subsys/random/libsubsys__random.a(rand32_entropy_device.c.obj)
 .comment       0x00000000       0x7a zephyr/subsys/random/libsubsys__random.a(rand32_entropy_device.c.obj)
 .debug_frame   0x00000000       0x78 zephyr/subsys/random/libsubsys__random.a(rand32_entropy_device.c.obj)
 .text          0x00000000        0x0 zephyr/drivers/gpio/libdrivers__gpio.a(gpio_nrfx.c.obj)
 .data          0x00000000        0x0 zephyr/drivers/gpio/libdrivers__gpio.a(gpio_nrfx.c.obj)
 .bss           0x00000000        0x0 zephyr/drivers/gpio/libdrivers__gpio.a(gpio_nrfx.c.obj)
 .__device_handles_pass1
                0x00000000       0x10 zephyr/drivers/gpio/libdrivers__gpio.a(gpio_nrfx.c.obj)
 .text          0x00000000        0x0 zephyr/drivers/serial/libdrivers__serial.a(uart_nrfx_uarte.c.obj)
 .data          0x00000000        0x0 zephyr/drivers/serial/libdrivers__serial.a(uart_nrfx_uarte.c.obj)
 .bss           0x00000000        0x0 zephyr/drivers/serial/libdrivers__serial.a(uart_nrfx_uarte.c.obj)
 .__device_handles_pass1
                0x00000000        0xa zephyr/drivers/serial/libdrivers__serial.a(uart_nrfx_uarte.c.obj)
 .text          0x00000000        0x0 zephyr/drivers/entropy/libdrivers__entropy.a(entropy_cc310.c.obj)
 .data          0x00000000        0x0 zephyr/drivers/entropy/libdrivers__entropy.a(entropy_cc310.c.obj)
 .bss           0x00000000        0x0 zephyr/drivers/entropy/libdrivers__entropy.a(entropy_cc310.c.obj)
 .__device_handles_pass1
                0x00000000        0x8 zephyr/drivers/entropy/libdrivers__entropy.a(entropy_cc310.c.obj)
 .text          0x00000000        0x0 modules/nrf/lib/fatal_error/lib..__nrf__lib__fatal_error.a(fatal_error.c.obj)
 .data          0x00000000        0x0 modules/nrf/lib/fatal_error/lib..__nrf__lib__fatal_error.a(fatal_error.c.obj)
 .bss           0x00000000        0x0 modules/nrf/lib/fatal_error/lib..__nrf__lib__fatal_error.a(fatal_error.c.obj)
 .text          0x00000000        0x0 modules/nrf/subsys/fw_info/lib..__nrf__subsys__fw_info.a(fw_info.c.obj)
 .data          0x00000000        0x0 modules/nrf/subsys/fw_info/lib..__nrf__subsys__fw_info.a(fw_info.c.obj)
 .bss           0x00000000        0x0 modules/nrf/subsys/fw_info/lib..__nrf__subsys__fw_info.a(fw_info.c.obj)
 .text.fw_info_ext_api_provide
                0x00000000       0xfc modules/nrf/subsys/fw_info/lib..__nrf__subsys__fw_info.a(fw_info.c.obj)
 .text.fw_info_invalidate
                0x00000000       0x1c modules/nrf/subsys/fw_info/lib..__nrf__subsys__fw_info.a(fw_info.c.obj)
 .rodata.fw_info_allowed_offsets
                0x00000000       0x14 modules/nrf/subsys/fw_info/lib..__nrf__subsys__fw_info.a(fw_info.c.obj)
 .text          0x00000000        0x0 modules/hal_nordic/nrfx/libmodules__hal_nordic__nrfx.a(system_nrf5340_application.c.obj)
 .data          0x00000000        0x0 modules/hal_nordic/nrfx/libmodules__hal_nordic__nrfx.a(system_nrf5340_application.c.obj)
 .bss           0x00000000        0x0 modules/hal_nordic/nrfx/libmodules__hal_nordic__nrfx.a(system_nrf5340_application.c.obj)
 .text          0x00000000        0x0 modules/hal_nordic/nrfx/libmodules__hal_nordic__nrfx.a(nrfx_glue.c.obj)
 .data          0x00000000        0x0 modules/hal_nordic/nrfx/libmodules__hal_nordic__nrfx.a(nrfx_glue.c.obj)
 .bss           0x00000000        0x0 modules/hal_nordic/nrfx/libmodules__hal_nordic__nrfx.a(nrfx_glue.c.obj)
 .rodata.nrfx_error_string_get.str1.1
                0x00000000      0x178 modules/hal_nordic/nrfx/libmodules__hal_nordic__nrfx.a(nrfx_glue.c.obj)
 .text.nrfx_error_string_get
                0x00000000       0xd4 modules/hal_nordic/nrfx/libmodules__hal_nordic__nrfx.a(nrfx_glue.c.obj)
 .text          0x00000000        0x0 modules/hal_nordic/nrfx/libmodules__hal_nordic__nrfx.a(nrfx_clock.c.obj)
 .data          0x00000000        0x0 modules/hal_nordic/nrfx/libmodules__hal_nordic__nrfx.a(nrfx_clock.c.obj)
 .bss           0x00000000        0x0 modules/hal_nordic/nrfx/libmodules__hal_nordic__nrfx.a(nrfx_clock.c.obj)
 .text.nrfx_clock_disable
                0x00000000       0x18 modules/hal_nordic/nrfx/libmodules__hal_nordic__nrfx.a(nrfx_clock.c.obj)
 .text.nrfx_clock_uninit
                0x00000000       0x28 modules/hal_nordic/nrfx/libmodules__hal_nordic__nrfx.a(nrfx_clock.c.obj)
 .text.nrfx_clock_calibration_start
                0x00000000        0x8 modules/hal_nordic/nrfx/libmodules__hal_nordic__nrfx.a(nrfx_clock.c.obj)
 .text.nrfx_clock_is_calibrating
                0x00000000        0x8 modules/hal_nordic/nrfx/libmodules__hal_nordic__nrfx.a(nrfx_clock.c.obj)
 .text.nrfx_clock_calibration_timer_start
                0x00000000        0x2 modules/hal_nordic/nrfx/libmodules__hal_nordic__nrfx.a(nrfx_clock.c.obj)
 .text.nrfx_clock_calibration_timer_stop
                0x00000000        0x2 modules/hal_nordic/nrfx/libmodules__hal_nordic__nrfx.a(nrfx_clock.c.obj)
 .text.nrfx_clock_divider_set
                0x00000000       0x44 modules/hal_nordic/nrfx/libmodules__hal_nordic__nrfx.a(nrfx_clock.c.obj)
 .text          0x00000000        0x0 modules/hal_nordic/nrfx/libmodules__hal_nordic__nrfx.a(nrfx_dppi.c.obj)
 .data          0x00000000        0x0 modules/hal_nordic/nrfx/libmodules__hal_nordic__nrfx.a(nrfx_dppi.c.obj)
 .bss           0x00000000        0x0 modules/hal_nordic/nrfx/libmodules__hal_nordic__nrfx.a(nrfx_dppi.c.obj)
 .text.nrfx_dppi_free
                0x00000000       0x48 modules/hal_nordic/nrfx/libmodules__hal_nordic__nrfx.a(nrfx_dppi.c.obj)
 .text.nrfx_dppi_channel_free
                0x00000000       0x50 modules/hal_nordic/nrfx/libmodules__hal_nordic__nrfx.a(nrfx_dppi.c.obj)
 .text.nrfx_dppi_channel_enable
                0x00000000       0x30 modules/hal_nordic/nrfx/libmodules__hal_nordic__nrfx.a(nrfx_dppi.c.obj)
 .text.nrfx_dppi_channel_disable
                0x00000000       0x30 modules/hal_nordic/nrfx/libmodules__hal_nordic__nrfx.a(nrfx_dppi.c.obj)
 .text.nrfx_dppi_group_alloc
                0x00000000       0x54 modules/hal_nordic/nrfx/libmodules__hal_nordic__nrfx.a(nrfx_dppi.c.obj)
 .text.nrfx_dppi_group_free
                0x00000000       0x54 modules/hal_nordic/nrfx/libmodules__hal_nordic__nrfx.a(nrfx_dppi.c.obj)
 .text.nrfx_dppi_channel_include_in_group
                0x00000000       0x60 modules/hal_nordic/nrfx/libmodules__hal_nordic__nrfx.a(nrfx_dppi.c.obj)
 .text.nrfx_dppi_channel_remove_from_group
                0x00000000       0x64 modules/hal_nordic/nrfx/libmodules__hal_nordic__nrfx.a(nrfx_dppi.c.obj)
 .text.nrfx_dppi_group_clear
                0x00000000       0x34 modules/hal_nordic/nrfx/libmodules__hal_nordic__nrfx.a(nrfx_dppi.c.obj)
 .text.nrfx_dppi_group_enable
                0x00000000       0x2c modules/hal_nordic/nrfx/libmodules__hal_nordic__nrfx.a(nrfx_dppi.c.obj)
 .text.nrfx_dppi_group_disable
                0x00000000       0x2c modules/hal_nordic/nrfx/libmodules__hal_nordic__nrfx.a(nrfx_dppi.c.obj)
 .bss.m_allocated_groups
                0x00000000        0x1 modules/hal_nordic/nrfx/libmodules__hal_nordic__nrfx.a(nrfx_dppi.c.obj)
 .text          0x00000000        0x0 modules/hal_nordic/nrfx/libmodules__hal_nordic__nrfx.a(nrfx_gpiote.c.obj)
 .data          0x00000000        0x0 modules/hal_nordic/nrfx/libmodules__hal_nordic__nrfx.a(nrfx_gpiote.c.obj)
 .bss           0x00000000        0x0 modules/hal_nordic/nrfx/libmodules__hal_nordic__nrfx.a(nrfx_gpiote.c.obj)
 .text.nrf_gpio_pin_port_decode
                0x00000000       0x20 modules/hal_nordic/nrfx/libmodules__hal_nordic__nrfx.a(nrfx_gpiote.c.obj)
 .text.nrf_gpio_cfg_sense_set
                0x00000000       0x26 modules/hal_nordic/nrfx/libmodules__hal_nordic__nrfx.a(nrfx_gpiote.c.obj)
 .text.pin_configured_clear
                0x00000000       0x1c modules/hal_nordic/nrfx/libmodules__hal_nordic__nrfx.a(nrfx_gpiote.c.obj)
 .text.nrf_gpio_cfg_default
                0x00000000       0x26 modules/hal_nordic/nrfx/libmodules__hal_nordic__nrfx.a(nrfx_gpiote.c.obj)
 .text.nrfx_gpiote_init
                0x00000000       0x9c modules/hal_nordic/nrfx/libmodules__hal_nordic__nrfx.a(nrfx_gpiote.c.obj)
 .text.nrfx_gpiote_is_init
                0x00000000       0x14 modules/hal_nordic/nrfx/libmodules__hal_nordic__nrfx.a(nrfx_gpiote.c.obj)
 .text.channel_free
                0x00000000       0x3c modules/hal_nordic/nrfx/libmodules__hal_nordic__nrfx.a(nrfx_gpiote.c.obj)
 .text.gpiote_out_init
                0x00000000      0x108 modules/hal_nordic/nrfx/libmodules__hal_nordic__nrfx.a(nrfx_gpiote.c.obj)
 .text.gpiote_in_init.part.0
                0x00000000      0x13c modules/hal_nordic/nrfx/libmodules__hal_nordic__nrfx.a(nrfx_gpiote.c.obj)
 .text.nrfx_gpiote_out_init
                0x00000000        0x8 modules/hal_nordic/nrfx/libmodules__hal_nordic__nrfx.a(nrfx_gpiote.c.obj)
 .text.nrfx_gpiote_out_prealloc_init
                0x00000000        0x8 modules/hal_nordic/nrfx/libmodules__hal_nordic__nrfx.a(nrfx_gpiote.c.obj)
 .text.nrfx_gpiote_out_uninit
                0x00000000       0x58 modules/hal_nordic/nrfx/libmodules__hal_nordic__nrfx.a(nrfx_gpiote.c.obj)
 .text.nrfx_gpiote_out_set
                0x00000000       0x18 modules/hal_nordic/nrfx/libmodules__hal_nordic__nrfx.a(nrfx_gpiote.c.obj)
 .text.nrfx_gpiote_out_clear
                0x00000000       0x18 modules/hal_nordic/nrfx/libmodules__hal_nordic__nrfx.a(nrfx_gpiote.c.obj)
 .text.nrfx_gpiote_out_toggle
                0x00000000       0x22 modules/hal_nordic/nrfx/libmodules__hal_nordic__nrfx.a(nrfx_gpiote.c.obj)
 .text.nrfx_gpiote_out_task_enable
                0x00000000       0x24 modules/hal_nordic/nrfx/libmodules__hal_nordic__nrfx.a(nrfx_gpiote.c.obj)
 .text.nrfx_gpiote_out_task_disable
                0x00000000       0x24 modules/hal_nordic/nrfx/libmodules__hal_nordic__nrfx.a(nrfx_gpiote.c.obj)
 .text.nrfx_gpiote_out_task_get
                0x00000000       0x14 modules/hal_nordic/nrfx/libmodules__hal_nordic__nrfx.a(nrfx_gpiote.c.obj)
 .text.nrfx_gpiote_out_task_addr_get
                0x00000000       0x1c modules/hal_nordic/nrfx/libmodules__hal_nordic__nrfx.a(nrfx_gpiote.c.obj)
 .text.nrfx_gpiote_set_task_get
                0x00000000       0x18 modules/hal_nordic/nrfx/libmodules__hal_nordic__nrfx.a(nrfx_gpiote.c.obj)
 .text.nrfx_gpiote_set_task_addr_get
                0x00000000       0x1c modules/hal_nordic/nrfx/libmodules__hal_nordic__nrfx.a(nrfx_gpiote.c.obj)
 .text.nrfx_gpiote_clr_task_get
                0x00000000       0x18 modules/hal_nordic/nrfx/libmodules__hal_nordic__nrfx.a(nrfx_gpiote.c.obj)
 .text.nrfx_gpiote_clr_task_addr_get
                0x00000000       0x1c modules/hal_nordic/nrfx/libmodules__hal_nordic__nrfx.a(nrfx_gpiote.c.obj)
 .text.nrfx_gpiote_out_task_force
                0x00000000       0x30 modules/hal_nordic/nrfx/libmodules__hal_nordic__nrfx.a(nrfx_gpiote.c.obj)
 .text.nrfx_gpiote_out_task_trigger
                0x00000000       0x20 modules/hal_nordic/nrfx/libmodules__hal_nordic__nrfx.a(nrfx_gpiote.c.obj)
 .text.nrfx_gpiote_set_task_trigger
                0x00000000       0x20 modules/hal_nordic/nrfx/libmodules__hal_nordic__nrfx.a(nrfx_gpiote.c.obj)
 .text.nrfx_gpiote_clr_task_trigger
                0x00000000       0x20 modules/hal_nordic/nrfx/libmodules__hal_nordic__nrfx.a(nrfx_gpiote.c.obj)
 .text.nrfx_gpiote_in_init
                0x00000000       0x28 modules/hal_nordic/nrfx/libmodules__hal_nordic__nrfx.a(nrfx_gpiote.c.obj)
 .text.nrfx_gpiote_in_prealloc_init
                0x00000000       0x38 modules/hal_nordic/nrfx/libmodules__hal_nordic__nrfx.a(nrfx_gpiote.c.obj)
 .text.nrfx_gpiote_in_event_enable
                0x00000000       0x9c modules/hal_nordic/nrfx/libmodules__hal_nordic__nrfx.a(nrfx_gpiote.c.obj)
 .text.nrfx_gpiote_in_event_disable
                0x00000000       0x44 modules/hal_nordic/nrfx/libmodules__hal_nordic__nrfx.a(nrfx_gpiote.c.obj)
 .text.nrfx_gpiote_in_uninit
                0x00000000       0x64 modules/hal_nordic/nrfx/libmodules__hal_nordic__nrfx.a(nrfx_gpiote.c.obj)
 .text.nrfx_gpiote_uninit
                0x00000000       0x58 modules/hal_nordic/nrfx/libmodules__hal_nordic__nrfx.a(nrfx_gpiote.c.obj)
 .text.nrfx_gpiote_in_is_set
                0x00000000       0x1a modules/hal_nordic/nrfx/libmodules__hal_nordic__nrfx.a(nrfx_gpiote.c.obj)
 .text.nrfx_gpiote_in_event_get
                0x00000000       0x1c modules/hal_nordic/nrfx/libmodules__hal_nordic__nrfx.a(nrfx_gpiote.c.obj)
 .text.nrfx_gpiote_in_event_addr_get
                0x00000000       0x10 modules/hal_nordic/nrfx/libmodules__hal_nordic__nrfx.a(nrfx_gpiote.c.obj)
 .text.nrfx_gpiote_irq_handler
                0x00000000      0x164 modules/hal_nordic/nrfx/libmodules__hal_nordic__nrfx.a(nrfx_gpiote.c.obj)
 .text          0x00000000        0x0 modules/hal_nordic/nrfx/libmodules__hal_nordic__nrfx.a(nrfx_nvmc.c.obj)
 .data          0x00000000        0x0 modules/hal_nordic/nrfx/libmodules__hal_nordic__nrfx.a(nrfx_nvmc.c.obj)
 .bss           0x00000000        0x0 modules/hal_nordic/nrfx/libmodules__hal_nordic__nrfx.a(nrfx_nvmc.c.obj)
 .text.partial_word_create
                0x00000000       0x26 modules/hal_nordic/nrfx/libmodules__hal_nordic__nrfx.a(nrfx_nvmc.c.obj)
 .text.nvmc_words_write
                0x00000000       0x28 modules/hal_nordic/nrfx/libmodules__hal_nordic__nrfx.a(nrfx_nvmc.c.obj)
 .text.nrfx_nvmc_page_erase
                0x00000000       0x38 modules/hal_nordic/nrfx/libmodules__hal_nordic__nrfx.a(nrfx_nvmc.c.obj)
 .text.nrfx_nvmc_uicr_erase
                0x00000000        0x8 modules/hal_nordic/nrfx/libmodules__hal_nordic__nrfx.a(nrfx_nvmc.c.obj)
 .text.nrfx_nvmc_all_erase
                0x00000000       0x24 modules/hal_nordic/nrfx/libmodules__hal_nordic__nrfx.a(nrfx_nvmc.c.obj)
 .text.nrfx_nvmc_page_partial_erase_init
                0x00000000       0x30 modules/hal_nordic/nrfx/libmodules__hal_nordic__nrfx.a(nrfx_nvmc.c.obj)
 .text.nrfx_nvmc_page_partial_erase_continue
                0x00000000       0x4c modules/hal_nordic/nrfx/libmodules__hal_nordic__nrfx.a(nrfx_nvmc.c.obj)
 .text.nrfx_nvmc_byte_writable_check
                0x00000000        0xe modules/hal_nordic/nrfx/libmodules__hal_nordic__nrfx.a(nrfx_nvmc.c.obj)
 .text.nrfx_nvmc_word_writable_check
                0x00000000        0xe modules/hal_nordic/nrfx/libmodules__hal_nordic__nrfx.a(nrfx_nvmc.c.obj)
 .text.nrfx_nvmc_word_write
                0x00000000       0x24 modules/hal_nordic/nrfx/libmodules__hal_nordic__nrfx.a(nrfx_nvmc.c.obj)
 .text.nrfx_nvmc_byte_write
                0x00000000       0x20 modules/hal_nordic/nrfx/libmodules__hal_nordic__nrfx.a(nrfx_nvmc.c.obj)
 .text.nrfx_nvmc_halfword_write
                0x00000000       0x20 modules/hal_nordic/nrfx/libmodules__hal_nordic__nrfx.a(nrfx_nvmc.c.obj)
 .text.nrfx_nvmc_bytes_write
                0x00000000       0x84 modules/hal_nordic/nrfx/libmodules__hal_nordic__nrfx.a(nrfx_nvmc.c.obj)
 .text.nrfx_nvmc_words_write
                0x00000000       0x1c modules/hal_nordic/nrfx/libmodules__hal_nordic__nrfx.a(nrfx_nvmc.c.obj)
 .text.nrfx_nvmc_otp_halfword_read
                0x00000000       0x10 modules/hal_nordic/nrfx/libmodules__hal_nordic__nrfx.a(nrfx_nvmc.c.obj)
 .text.nrfx_nvmc_halfword_writable_check
                0x00000000       0x1c modules/hal_nordic/nrfx/libmodules__hal_nordic__nrfx.a(nrfx_nvmc.c.obj)
 .text.nrfx_nvmc_flash_size_get
                0x00000000        0x6 modules/hal_nordic/nrfx/libmodules__hal_nordic__nrfx.a(nrfx_nvmc.c.obj)
 .text.nrfx_nvmc_flash_page_size_get
                0x00000000        0x6 modules/hal_nordic/nrfx/libmodules__hal_nordic__nrfx.a(nrfx_nvmc.c.obj)
 .text.nrfx_nvmc_flash_page_count_get
                0x00000000        0x6 modules/hal_nordic/nrfx/libmodules__hal_nordic__nrfx.a(nrfx_nvmc.c.obj)
 .bss.m_partial_erase_time_elapsed
                0x00000000        0x4 modules/hal_nordic/nrfx/libmodules__hal_nordic__nrfx.a(nrfx_nvmc.c.obj)
 .data.m_partial_erase_page_addr
                0x00000000        0x4 modules/hal_nordic/nrfx/libmodules__hal_nordic__nrfx.a(nrfx_nvmc.c.obj)
 .debug_info    0x00000000     0x1376 modules/hal_nordic/nrfx/libmodules__hal_nordic__nrfx.a(nrfx_nvmc.c.obj)
 .debug_abbrev  0x00000000      0x488 modules/hal_nordic/nrfx/libmodules__hal_nordic__nrfx.a(nrfx_nvmc.c.obj)
 .debug_loc     0x00000000      0xade modules/hal_nordic/nrfx/libmodules__hal_nordic__nrfx.a(nrfx_nvmc.c.obj)
 .debug_aranges
                0x00000000       0xb0 modules/hal_nordic/nrfx/libmodules__hal_nordic__nrfx.a(nrfx_nvmc.c.obj)
 .debug_ranges  0x00000000      0x330 modules/hal_nordic/nrfx/libmodules__hal_nordic__nrfx.a(nrfx_nvmc.c.obj)
 .debug_line    0x00000000      0xb3d modules/hal_nordic/nrfx/libmodules__hal_nordic__nrfx.a(nrfx_nvmc.c.obj)
 .debug_str     0x00000000      0xb06 modules/hal_nordic/nrfx/libmodules__hal_nordic__nrfx.a(nrfx_nvmc.c.obj)
 .comment       0x00000000       0x7a modules/hal_nordic/nrfx/libmodules__hal_nordic__nrfx.a(nrfx_nvmc.c.obj)
 .debug_frame   0x00000000      0x1a0 modules/hal_nordic/nrfx/libmodules__hal_nordic__nrfx.a(nrfx_nvmc.c.obj)
 .text          0x00000000        0x0 zephyr/kernel/libkernel.a(device.c.obj)
 .data          0x00000000        0x0 zephyr/kernel/libkernel.a(device.c.obj)
 .bss           0x00000000        0x0 zephyr/kernel/libkernel.a(device.c.obj)
 .text.device_busy_set
                0x00000000        0x2 zephyr/kernel/libkernel.a(device.c.obj)
 .text.device_busy_clear
                0x00000000        0x2 zephyr/kernel/libkernel.a(device.c.obj)
 .text          0x00000000        0x0 zephyr/kernel/libkernel.a(errno.c.obj)
 .data          0x00000000        0x0 zephyr/kernel/libkernel.a(errno.c.obj)
 .bss           0x00000000        0x0 zephyr/kernel/libkernel.a(errno.c.obj)
 .text          0x00000000        0x0 zephyr/kernel/libkernel.a(fatal.c.obj)
 .data          0x00000000        0x0 zephyr/kernel/libkernel.a(fatal.c.obj)
 .bss           0x00000000        0x0 zephyr/kernel/libkernel.a(fatal.c.obj)
 .text.coredump
                0x00000000        0x2 zephyr/kernel/libkernel.a(fatal.c.obj)
 .text.coredump_memory_dump
                0x00000000        0x2 zephyr/kernel/libkernel.a(fatal.c.obj)
 .text.coredump_buffer_output
                0x00000000        0x2 zephyr/kernel/libkernel.a(fatal.c.obj)
 .text.coredump_query
                0x00000000        0x6 zephyr/kernel/libkernel.a(fatal.c.obj)
 .text.coredump_cmd
                0x00000000        0x6 zephyr/kernel/libkernel.a(fatal.c.obj)
 .text.arch_system_halt
                0x00000000       0x12 zephyr/kernel/libkernel.a(fatal.c.obj)
 .rodata.k_sys_fatal_error_handler.str1.1
                0x00000000        0xf zephyr/kernel/libkernel.a(fatal.c.obj)
 .text.k_sys_fatal_error_handler
                0x00000000       0x34 zephyr/kernel/libkernel.a(fatal.c.obj)
 .text.k_fatal_halt
                0x00000000        0x6 zephyr/kernel/libkernel.a(fatal.c.obj)
 .text          0x00000000        0x0 zephyr/kernel/libkernel.a(init.c.obj)
 .data          0x00000000        0x0 zephyr/kernel/libkernel.a(init.c.obj)
 .bss           0x00000000        0x0 zephyr/kernel/libkernel.a(init.c.obj)
 .text.main     0x00000000        0x4 zephyr/kernel/libkernel.a(init.c.obj)
 .rodata.z_early_boot_rand_get.str1.1
                0x00000000        0xe zephyr/kernel/libkernel.a(init.c.obj)
 .text.z_early_boot_rand_get
                0x00000000       0x6c zephyr/kernel/libkernel.a(init.c.obj)
 .text          0x00000000        0x0 zephyr/kernel/libkernel.a(mem_slab.c.obj)
 .data          0x00000000        0x0 zephyr/kernel/libkernel.a(mem_slab.c.obj)
 .bss           0x00000000        0x0 zephyr/kernel/libkernel.a(mem_slab.c.obj)
 .text          0x00000000        0x0 zephyr/kernel/libkernel.a(thread.c.obj)
 .data          0x00000000        0x0 zephyr/kernel/libkernel.a(thread.c.obj)
 .bss           0x00000000        0x0 zephyr/kernel/libkernel.a(thread.c.obj)
 .text.k_thread_foreach_unlocked
                0x00000000       0x4c zephyr/kernel/libkernel.a(thread.c.obj)
 .text.z_thread_essential_set
                0x00000000       0x14 zephyr/kernel/libkernel.a(thread.c.obj)
 .text.z_thread_essential_clear
                0x00000000       0x14 zephyr/kernel/libkernel.a(thread.c.obj)
 .text.z_is_thread_essential
                0x00000000       0x10 zephyr/kernel/libkernel.a(thread.c.obj)
 .text.z_impl_k_thread_name_copy
                0x00000000       0x12 zephyr/kernel/libkernel.a(thread.c.obj)
 .text.z_init_thread_base
                0x00000000       0x14 zephyr/kernel/libkernel.a(thread.c.obj)
 .text.k_thread_user_mode_enter
                0x00000000       0x2c zephyr/kernel/libkernel.a(thread.c.obj)
 .text.z_impl_k_float_disable
                0x00000000        0x6 zephyr/kernel/libkernel.a(thread.c.obj)
 .text.z_impl_k_float_enable
                0x00000000        0x6 zephyr/kernel/libkernel.a(thread.c.obj)
 .text          0x00000000        0x0 zephyr/kernel/libkernel.a(version.c.obj)
 .data          0x00000000        0x0 zephyr/kernel/libkernel.a(version.c.obj)
 .bss           0x00000000        0x0 zephyr/kernel/libkernel.a(version.c.obj)
 .text          0x00000000        0x0 zephyr/kernel/libkernel.a(idle.c.obj)
 .data          0x00000000        0x0 zephyr/kernel/libkernel.a(idle.c.obj)
 .bss           0x00000000        0x0 zephyr/kernel/libkernel.a(idle.c.obj)
 .text          0x00000000        0x0 zephyr/kernel/libkernel.a(msg_q.c.obj)
 .data          0x00000000        0x0 zephyr/kernel/libkernel.a(msg_q.c.obj)
 .bss           0x00000000        0x0 zephyr/kernel/libkernel.a(msg_q.c.obj)
 .text.k_msgq_init
                0x00000000       0x26 zephyr/kernel/libkernel.a(msg_q.c.obj)
 .text.z_impl_k_msgq_alloc_init
                0x00000000       0x3e zephyr/kernel/libkernel.a(msg_q.c.obj)
 .text.k_msgq_cleanup
                0x00000000       0x32 zephyr/kernel/libkernel.a(msg_q.c.obj)
 .text.z_impl_k_msgq_get_attrs
                0x00000000        0xe zephyr/kernel/libkernel.a(msg_q.c.obj)
 .text.z_impl_k_msgq_purge
                0x00000000       0x42 zephyr/kernel/libkernel.a(msg_q.c.obj)
 .text          0x00000000        0x0 zephyr/kernel/libkernel.a(mutex.c.obj)
 .data          0x00000000        0x0 zephyr/kernel/libkernel.a(mutex.c.obj)
 .bss           0x00000000        0x0 zephyr/kernel/libkernel.a(mutex.c.obj)
 .text          0x00000000        0x0 zephyr/kernel/libkernel.a(sem.c.obj)
 .data          0x00000000        0x0 zephyr/kernel/libkernel.a(sem.c.obj)
 .bss           0x00000000        0x0 zephyr/kernel/libkernel.a(sem.c.obj)
 .text.z_impl_k_sem_init
                0x00000000       0x20 zephyr/kernel/libkernel.a(sem.c.obj)
 .text.z_impl_k_sem_reset
                0x00000000       0x48 zephyr/kernel/libkernel.a(sem.c.obj)
 .text          0x00000000        0x0 zephyr/kernel/libkernel.a(sched.c.obj)
 .data          0x00000000        0x0 zephyr/kernel/libkernel.a(sched.c.obj)
 .bss           0x00000000        0x0 zephyr/kernel/libkernel.a(sched.c.obj)
 .text.z_swap_next_thread
                0x00000000        0xc zephyr/kernel/libkernel.a(sched.c.obj)
 .text.z_priq_dumb_add
                0x00000000       0x46 zephyr/kernel/libkernel.a(sched.c.obj)
 .text.z_priq_dumb_remove
                0x00000000        0x6 zephyr/kernel/libkernel.a(sched.c.obj)
 .text.z_pend_thread
                0x00000000        0x4 zephyr/kernel/libkernel.a(sched.c.obj)
 .text.z_pend_curr_irqlock
                0x00000000       0x48 zephyr/kernel/libkernel.a(sched.c.obj)
 .text.z_move_thread_to_end_of_prio_q
                0x00000000       0x20 zephyr/kernel/libkernel.a(sched.c.obj)
 .text.z_impl_k_thread_resume
                0x00000000       0x3c zephyr/kernel/libkernel.a(sched.c.obj)
 .text.z_thread_priority_set
                0x00000000       0x20 zephyr/kernel/libkernel.a(sched.c.obj)
 .text.z_priq_rb_lessthan
                0x00000000       0x2a zephyr/kernel/libkernel.a(sched.c.obj)
 .text.z_priq_rb_add
                0x00000000       0x5c zephyr/kernel/libkernel.a(sched.c.obj)
 .text.z_priq_rb_remove
                0x00000000       0x10 zephyr/kernel/libkernel.a(sched.c.obj)
 .text.z_priq_rb_best
                0x00000000       0x10 zephyr/kernel/libkernel.a(sched.c.obj)
 .text.z_priq_mq_add
                0x00000000       0x32 zephyr/kernel/libkernel.a(sched.c.obj)
 .text.z_priq_mq_remove
                0x00000000       0x30 zephyr/kernel/libkernel.a(sched.c.obj)
 .text.z_priq_mq_best
                0x00000000       0x28 zephyr/kernel/libkernel.a(sched.c.obj)
 .text.z_unpend_all
                0x00000000       0x20 zephyr/kernel/libkernel.a(sched.c.obj)
 .text.z_impl_k_thread_priority_get
                0x00000000        0x6 zephyr/kernel/libkernel.a(sched.c.obj)
 .text.z_impl_k_thread_priority_set
                0x00000000        0x4 zephyr/kernel/libkernel.a(sched.c.obj)
 .text.z_impl_k_usleep
                0x00000000       0x44 zephyr/kernel/libkernel.a(sched.c.obj)
 .text.z_impl_k_wakeup
                0x00000000       0x38 zephyr/kernel/libkernel.a(sched.c.obj)
 .text.z_impl_k_thread_join
                0x00000000       0x80 zephyr/kernel/libkernel.a(sched.c.obj)
 .text          0x00000000        0x0 zephyr/kernel/libkernel.a(xip.c.obj)
 .data          0x00000000        0x0 zephyr/kernel/libkernel.a(xip.c.obj)
 .bss           0x00000000        0x0 zephyr/kernel/libkernel.a(xip.c.obj)
 .text          0x00000000        0x0 zephyr/kernel/libkernel.a(timeout.c.obj)
 .data          0x00000000        0x0 zephyr/kernel/libkernel.a(timeout.c.obj)
 .bss           0x00000000        0x0 zephyr/kernel/libkernel.a(timeout.c.obj)
 .text.z_timeout_expires
                0x00000000       0x30 zephyr/kernel/libkernel.a(timeout.c.obj)
 .text.sys_clock_timeout_end_calc
                0x00000000       0x52 zephyr/kernel/libkernel.a(timeout.c.obj)
 .text          0x00000000        0x0 zephyr/kernel/libkernel.a(timer.c.obj)
 .data          0x00000000        0x0 zephyr/kernel/libkernel.a(timer.c.obj)
 .bss           0x00000000        0x0 zephyr/kernel/libkernel.a(timer.c.obj)
 .text.z_impl_k_timer_status_get
                0x00000000       0x22 zephyr/kernel/libkernel.a(timer.c.obj)
 .text.z_impl_k_timer_status_sync
                0x00000000       0x58 zephyr/kernel/libkernel.a(timer.c.obj)
 .bss.lock      0x00000000        0x0 zephyr/kernel/libkernel.a(timer.c.obj)
 .text          0x00000000        0x0 zephyr/kernel/libkernel.a(poll.c.obj)
 .data          0x00000000        0x0 zephyr/kernel/libkernel.a(poll.c.obj)
 .bss           0x00000000        0x0 zephyr/kernel/libkernel.a(poll.c.obj)
 .text.triggered_work_handler
                0x00000000       0x38 zephyr/kernel/libkernel.a(poll.c.obj)
 .text.triggered_work_expiration_handler
                0x00000000       0x18 zephyr/kernel/libkernel.a(poll.c.obj)
 .text.k_work_poll_init
                0x00000000       0x24 zephyr/kernel/libkernel.a(poll.c.obj)
 .text.k_work_poll_submit_to_queue
                0x00000000       0xfc zephyr/kernel/libkernel.a(poll.c.obj)
 .text.k_work_poll_submit
                0x00000000       0x10 zephyr/kernel/libkernel.a(poll.c.obj)
 .text.k_work_poll_cancel
                0x00000000       0x50 zephyr/kernel/libkernel.a(poll.c.obj)
 .text          0x00000000        0x0 zephyr/kernel/libkernel.a(mempool.c.obj)
 .data          0x00000000        0x0 zephyr/kernel/libkernel.a(mempool.c.obj)
 .bss           0x00000000        0x0 zephyr/kernel/libkernel.a(mempool.c.obj)
 .text.z_heap_aligned_alloc
                0x00000000       0x26 zephyr/kernel/libkernel.a(mempool.c.obj)
 .text.k_free   0x00000000        0xe zephyr/kernel/libkernel.a(mempool.c.obj)
 .text.k_aligned_alloc
                0x00000000       0x10 zephyr/kernel/libkernel.a(mempool.c.obj)
 .text.k_malloc
                0x00000000        0x8 zephyr/kernel/libkernel.a(mempool.c.obj)
 .text.k_calloc
                0x00000000       0x24 zephyr/kernel/libkernel.a(mempool.c.obj)
 .text.k_thread_system_pool_assign
                0x00000000        0xc zephyr/kernel/libkernel.a(mempool.c.obj)
 .text.z_thread_aligned_alloc
                0x00000000       0x34 zephyr/kernel/libkernel.a(mempool.c.obj)
 ._k_heap.static._system_heap
                0x00000000       0x14 zephyr/kernel/libkernel.a(mempool.c.obj)
 .bss.kheap__system_heap
                0x00000000     0xc000 zephyr/kernel/libkernel.a(mempool.c.obj)
 .debug_info    0x00000000      0xda5 zephyr/kernel/libkernel.a(mempool.c.obj)
 .debug_abbrev  0x00000000      0x34e zephyr/kernel/libkernel.a(mempool.c.obj)
 .debug_loc     0x00000000      0x4e3 zephyr/kernel/libkernel.a(mempool.c.obj)
 .debug_aranges
                0x00000000       0x50 zephyr/kernel/libkernel.a(mempool.c.obj)
 .debug_ranges  0x00000000       0x70 zephyr/kernel/libkernel.a(mempool.c.obj)
 .debug_line    0x00000000      0x4e0 zephyr/kernel/libkernel.a(mempool.c.obj)
 .debug_str     0x00000000      0x94f zephyr/kernel/libkernel.a(mempool.c.obj)
 .comment       0x00000000       0x7a zephyr/kernel/libkernel.a(mempool.c.obj)
 .debug_frame   0x00000000       0xb8 zephyr/kernel/libkernel.a(mempool.c.obj)
 .text          0x00000000        0x0 zephyr/kernel/libkernel.a(banner.c.obj)
 .data          0x00000000        0x0 zephyr/kernel/libkernel.a(banner.c.obj)
 .bss           0x00000000        0x0 zephyr/kernel/libkernel.a(banner.c.obj)
 .text          0x00000000        0x0 zephyr/kernel/libkernel.a(kheap.c.obj)
 .data          0x00000000        0x0 zephyr/kernel/libkernel.a(kheap.c.obj)
 .bss           0x00000000        0x0 zephyr/kernel/libkernel.a(kheap.c.obj)
 .text.k_heap_aligned_alloc
                0x00000000       0x8e zephyr/kernel/libkernel.a(kheap.c.obj)
 .text.k_heap_alloc
                0x00000000       0x14 zephyr/kernel/libkernel.a(kheap.c.obj)
 .text.k_heap_free
                0x00000000       0x3a zephyr/kernel/libkernel.a(kheap.c.obj)
 .text          0x00000000        0x0 zephyr/kernel/libkernel.a(system_work_q.c.obj)
 .data          0x00000000        0x0 zephyr/kernel/libkernel.a(system_work_q.c.obj)
 .bss           0x00000000        0x0 zephyr/kernel/libkernel.a(system_work_q.c.obj)
 .text          0x00000000        0x0 zephyr/kernel/libkernel.a(work.c.obj)
 .data          0x00000000        0x0 zephyr/kernel/libkernel.a(work.c.obj)
 .bss           0x00000000        0x0 zephyr/kernel/libkernel.a(work.c.obj)
 .text.handle_flush
                0x00000000        0x6 zephyr/kernel/libkernel.a(work.c.obj)
 .text.unschedule_locked
                0x00000000       0x1c zephyr/kernel/libkernel.a(work.c.obj)
 .text.cancel_async_locked
                0x00000000       0x66 zephyr/kernel/libkernel.a(work.c.obj)
 .text.cancel_sync_locked
                0x00000000       0x3c zephyr/kernel/libkernel.a(work.c.obj)
 .text.work_timeout
                0x00000000       0x3e zephyr/kernel/libkernel.a(work.c.obj)
 .text.k_work_init
                0x00000000       0x12 zephyr/kernel/libkernel.a(work.c.obj)
 .text.queue_flusher_locked
                0x00000000       0x6c zephyr/kernel/libkernel.a(work.c.obj)
 .text.k_work_busy_get
                0x00000000       0x20 zephyr/kernel/libkernel.a(work.c.obj)
 .text.k_work_submit
                0x00000000        0xc zephyr/kernel/libkernel.a(work.c.obj)
 .text.k_work_flush
                0x00000000       0x58 zephyr/kernel/libkernel.a(work.c.obj)
 .text.k_work_cancel
                0x00000000       0x20 zephyr/kernel/libkernel.a(work.c.obj)
 .text.k_work_cancel_sync
                0x00000000       0x52 zephyr/kernel/libkernel.a(work.c.obj)
 .text.k_work_queue_drain
                0x00000000       0x6c zephyr/kernel/libkernel.a(work.c.obj)
 .text.k_work_queue_unplug
                0x00000000       0x32 zephyr/kernel/libkernel.a(work.c.obj)
 .text.k_work_init_delayable
                0x00000000       0x18 zephyr/kernel/libkernel.a(work.c.obj)
 .text.k_work_delayable_busy_get
                0x00000000       0x24 zephyr/kernel/libkernel.a(work.c.obj)
 .text.k_work_schedule_for_queue
                0x00000000       0x58 zephyr/kernel/libkernel.a(work.c.obj)
 .text.k_work_schedule
                0x00000000        0xc zephyr/kernel/libkernel.a(work.c.obj)
 .text.k_work_reschedule_for_queue
                0x00000000       0x5c zephyr/kernel/libkernel.a(work.c.obj)
 .text.k_work_reschedule
                0x00000000        0xc zephyr/kernel/libkernel.a(work.c.obj)
 .text.k_work_cancel_delayable
                0x00000000       0x28 zephyr/kernel/libkernel.a(work.c.obj)
 .text.k_work_cancel_delayable_sync
                0x00000000       0x5e zephyr/kernel/libkernel.a(work.c.obj)
 .text.k_work_flush_delayable
                0x00000000       0x80 zephyr/kernel/libkernel.a(work.c.obj)
 .text          0x00000000        0x0 zephyr/CMakeFiles/offsets.dir/./arch/arm/core/offsets/offsets.c.obj
 .data          0x00000000        0x0 zephyr/CMakeFiles/offsets.dir/./arch/arm/core/offsets/offsets.c.obj
 .bss           0x00000000        0x0 zephyr/CMakeFiles/offsets.dir/./arch/arm/core/offsets/offsets.c.obj
 .text          0x00000000       0xe8 c:/ncs/v1.6.0/toolchain/opt/bin/../lib/gcc/arm-none-eabi/9.2.1/thumb/v8-m.main/nofp\libgcc.a(cmse.o)
 .data          0x00000000        0x0 c:/ncs/v1.6.0/toolchain/opt/bin/../lib/gcc/arm-none-eabi/9.2.1/thumb/v8-m.main/nofp\libgcc.a(cmse.o)
 .bss           0x00000000        0x0 c:/ncs/v1.6.0/toolchain/opt/bin/../lib/gcc/arm-none-eabi/9.2.1/thumb/v8-m.main/nofp\libgcc.a(cmse.o)
 .debug_frame   0x00000000       0x34 c:/ncs/v1.6.0/toolchain/opt/bin/../lib/gcc/arm-none-eabi/9.2.1/thumb/v8-m.main/nofp\libgcc.a(cmse.o)
 .text          0x00000000      0x254 c:/ncs/v1.6.0/toolchain/opt/bin/../lib/gcc/arm-none-eabi/9.2.1/thumb/v8-m.main/nofp\libgcc.a(_arm_muldf3.o)
 .data          0x00000000        0x0 c:/ncs/v1.6.0/toolchain/opt/bin/../lib/gcc/arm-none-eabi/9.2.1/thumb/v8-m.main/nofp\libgcc.a(_arm_muldf3.o)
 .bss           0x00000000        0x0 c:/ncs/v1.6.0/toolchain/opt/bin/../lib/gcc/arm-none-eabi/9.2.1/thumb/v8-m.main/nofp\libgcc.a(_arm_muldf3.o)
 .debug_frame   0x00000000       0x30 c:/ncs/v1.6.0/toolchain/opt/bin/../lib/gcc/arm-none-eabi/9.2.1/thumb/v8-m.main/nofp\libgcc.a(_arm_muldf3.o)
 .text          0x00000000      0x168 c:/ncs/v1.6.0/toolchain/opt/bin/../lib/gcc/arm-none-eabi/9.2.1/thumb/v8-m.main/nofp\libgcc.a(_arm_mulsf3.o)
 .data          0x00000000        0x0 c:/ncs/v1.6.0/toolchain/opt/bin/../lib/gcc/arm-none-eabi/9.2.1/thumb/v8-m.main/nofp\libgcc.a(_arm_mulsf3.o)
 .bss           0x00000000        0x0 c:/ncs/v1.6.0/toolchain/opt/bin/../lib/gcc/arm-none-eabi/9.2.1/thumb/v8-m.main/nofp\libgcc.a(_arm_mulsf3.o)
 .debug_frame   0x00000000       0x24 c:/ncs/v1.6.0/toolchain/opt/bin/../lib/gcc/arm-none-eabi/9.2.1/thumb/v8-m.main/nofp\libgcc.a(_arm_mulsf3.o)
 .text          0x00000000      0x378 c:/ncs/v1.6.0/toolchain/opt/bin/../lib/gcc/arm-none-eabi/9.2.1/thumb/v8-m.main/nofp\libgcc.a(_arm_addsubdf3.o)
 .data          0x00000000        0x0 c:/ncs/v1.6.0/toolchain/opt/bin/../lib/gcc/arm-none-eabi/9.2.1/thumb/v8-m.main/nofp\libgcc.a(_arm_addsubdf3.o)
 .bss           0x00000000        0x0 c:/ncs/v1.6.0/toolchain/opt/bin/../lib/gcc/arm-none-eabi/9.2.1/thumb/v8-m.main/nofp\libgcc.a(_arm_addsubdf3.o)
 .debug_frame   0x00000000       0xac c:/ncs/v1.6.0/toolchain/opt/bin/../lib/gcc/arm-none-eabi/9.2.1/thumb/v8-m.main/nofp\libgcc.a(_arm_addsubdf3.o)
 .text          0x00000000      0x424 c:/ncs/v1.6.0/toolchain/opt/bin/../lib/gcc/arm-none-eabi/9.2.1/thumb/v8-m.main/nofp\libgcc.a(_arm_muldivdf3.o)
 .data          0x00000000        0x0 c:/ncs/v1.6.0/toolchain/opt/bin/../lib/gcc/arm-none-eabi/9.2.1/thumb/v8-m.main/nofp\libgcc.a(_arm_muldivdf3.o)
 .bss           0x00000000        0x0 c:/ncs/v1.6.0/toolchain/opt/bin/../lib/gcc/arm-none-eabi/9.2.1/thumb/v8-m.main/nofp\libgcc.a(_arm_muldivdf3.o)
 .debug_frame   0x00000000       0x50 c:/ncs/v1.6.0/toolchain/opt/bin/../lib/gcc/arm-none-eabi/9.2.1/thumb/v8-m.main/nofp\libgcc.a(_arm_muldivdf3.o)
 .text          0x00000000       0xa0 c:/ncs/v1.6.0/toolchain/opt/bin/../lib/gcc/arm-none-eabi/9.2.1/thumb/v8-m.main/nofp\libgcc.a(_arm_truncdfsf2.o)
 .data          0x00000000        0x0 c:/ncs/v1.6.0/toolchain/opt/bin/../lib/gcc/arm-none-eabi/9.2.1/thumb/v8-m.main/nofp\libgcc.a(_arm_truncdfsf2.o)
 .bss           0x00000000        0x0 c:/ncs/v1.6.0/toolchain/opt/bin/../lib/gcc/arm-none-eabi/9.2.1/thumb/v8-m.main/nofp\libgcc.a(_arm_truncdfsf2.o)
 .debug_frame   0x00000000       0x24 c:/ncs/v1.6.0/toolchain/opt/bin/../lib/gcc/arm-none-eabi/9.2.1/thumb/v8-m.main/nofp\libgcc.a(_arm_truncdfsf2.o)
 .text          0x00000000      0x21c c:/ncs/v1.6.0/toolchain/opt/bin/../lib/gcc/arm-none-eabi/9.2.1/thumb/v8-m.main/nofp\libgcc.a(_arm_addsubsf3.o)
 .data          0x00000000        0x0 c:/ncs/v1.6.0/toolchain/opt/bin/../lib/gcc/arm-none-eabi/9.2.1/thumb/v8-m.main/nofp\libgcc.a(_arm_addsubsf3.o)
 .bss           0x00000000        0x0 c:/ncs/v1.6.0/toolchain/opt/bin/../lib/gcc/arm-none-eabi/9.2.1/thumb/v8-m.main/nofp\libgcc.a(_arm_addsubsf3.o)
 .debug_frame   0x00000000       0x4c c:/ncs/v1.6.0/toolchain/opt/bin/../lib/gcc/arm-none-eabi/9.2.1/thumb/v8-m.main/nofp\libgcc.a(_arm_addsubsf3.o)
 .text          0x00000000      0x2a0 c:/ncs/v1.6.0/toolchain/opt/bin/../lib/gcc/arm-none-eabi/9.2.1/thumb/v8-m.main/nofp\libgcc.a(_arm_muldivsf3.o)
 .data          0x00000000        0x0 c:/ncs/v1.6.0/toolchain/opt/bin/../lib/gcc/arm-none-eabi/9.2.1/thumb/v8-m.main/nofp\libgcc.a(_arm_muldivsf3.o)
 .bss           0x00000000        0x0 c:/ncs/v1.6.0/toolchain/opt/bin/../lib/gcc/arm-none-eabi/9.2.1/thumb/v8-m.main/nofp\libgcc.a(_arm_muldivsf3.o)
 .debug_frame   0x00000000       0x38 c:/ncs/v1.6.0/toolchain/opt/bin/../lib/gcc/arm-none-eabi/9.2.1/thumb/v8-m.main/nofp\libgcc.a(_arm_muldivsf3.o)
 .text          0x00000000       0xec c:/ncs/v1.6.0/toolchain/opt/bin/../lib/gcc/arm-none-eabi/9.2.1/thumb/v8-m.main/nofp\libgcc.a(_arm_cmpsf2.o)
 .data          0x00000000        0x0 c:/ncs/v1.6.0/toolchain/opt/bin/../lib/gcc/arm-none-eabi/9.2.1/thumb/v8-m.main/nofp\libgcc.a(_arm_cmpsf2.o)
 .bss           0x00000000        0x0 c:/ncs/v1.6.0/toolchain/opt/bin/../lib/gcc/arm-none-eabi/9.2.1/thumb/v8-m.main/nofp\libgcc.a(_arm_cmpsf2.o)
 .debug_frame   0x00000000       0xc8 c:/ncs/v1.6.0/toolchain/opt/bin/../lib/gcc/arm-none-eabi/9.2.1/thumb/v8-m.main/nofp\libgcc.a(_arm_cmpsf2.o)
 .data          0x00000000        0x0 c:/ncs/v1.6.0/toolchain/opt/bin/../lib/gcc/arm-none-eabi/9.2.1/thumb/v8-m.main/nofp\libgcc.a(_aeabi_ldivmod.o)
 .bss           0x00000000        0x0 c:/ncs/v1.6.0/toolchain/opt/bin/../lib/gcc/arm-none-eabi/9.2.1/thumb/v8-m.main/nofp\libgcc.a(_aeabi_ldivmod.o)
 .data          0x00000000        0x0 c:/ncs/v1.6.0/toolchain/opt/bin/../lib/gcc/arm-none-eabi/9.2.1/thumb/v8-m.main/nofp\libgcc.a(_aeabi_uldivmod.o)
 .bss           0x00000000        0x0 c:/ncs/v1.6.0/toolchain/opt/bin/../lib/gcc/arm-none-eabi/9.2.1/thumb/v8-m.main/nofp\libgcc.a(_aeabi_uldivmod.o)
 .text          0x00000000       0x28 c:/ncs/v1.6.0/toolchain/opt/bin/../lib/gcc/arm-none-eabi/9.2.1/thumb/v8-m.main/nofp\libgcc.a(_fixsfdi.o)
 .data          0x00000000        0x0 c:/ncs/v1.6.0/toolchain/opt/bin/../lib/gcc/arm-none-eabi/9.2.1/thumb/v8-m.main/nofp\libgcc.a(_fixsfdi.o)
 .bss           0x00000000        0x0 c:/ncs/v1.6.0/toolchain/opt/bin/../lib/gcc/arm-none-eabi/9.2.1/thumb/v8-m.main/nofp\libgcc.a(_fixsfdi.o)
 .debug_frame   0x00000000       0x30 c:/ncs/v1.6.0/toolchain/opt/bin/../lib/gcc/arm-none-eabi/9.2.1/thumb/v8-m.main/nofp\libgcc.a(_fixsfdi.o)
 .text          0x00000000       0x34 c:/ncs/v1.6.0/toolchain/opt/bin/../lib/gcc/arm-none-eabi/9.2.1/thumb/v8-m.main/nofp\libgcc.a(_fixdfdi.o)
 .data          0x00000000        0x0 c:/ncs/v1.6.0/toolchain/opt/bin/../lib/gcc/arm-none-eabi/9.2.1/thumb/v8-m.main/nofp\libgcc.a(_fixdfdi.o)
 .bss           0x00000000        0x0 c:/ncs/v1.6.0/toolchain/opt/bin/../lib/gcc/arm-none-eabi/9.2.1/thumb/v8-m.main/nofp\libgcc.a(_fixdfdi.o)
 .debug_frame   0x00000000       0x38 c:/ncs/v1.6.0/toolchain/opt/bin/../lib/gcc/arm-none-eabi/9.2.1/thumb/v8-m.main/nofp\libgcc.a(_fixdfdi.o)
 .text          0x00000000       0x40 c:/ncs/v1.6.0/toolchain/opt/bin/../lib/gcc/arm-none-eabi/9.2.1/thumb/v8-m.main/nofp\libgcc.a(_fixunssfdi.o)
 .data          0x00000000        0x0 c:/ncs/v1.6.0/toolchain/opt/bin/../lib/gcc/arm-none-eabi/9.2.1/thumb/v8-m.main/nofp\libgcc.a(_fixunssfdi.o)
 .bss           0x00000000        0x0 c:/ncs/v1.6.0/toolchain/opt/bin/../lib/gcc/arm-none-eabi/9.2.1/thumb/v8-m.main/nofp\libgcc.a(_fixunssfdi.o)
 .debug_frame   0x00000000       0x2c c:/ncs/v1.6.0/toolchain/opt/bin/../lib/gcc/arm-none-eabi/9.2.1/thumb/v8-m.main/nofp\libgcc.a(_fixunssfdi.o)
 .text          0x00000000       0x3c c:/ncs/v1.6.0/toolchain/opt/bin/../lib/gcc/arm-none-eabi/9.2.1/thumb/v8-m.main/nofp\libgcc.a(_fixunsdfdi.o)
 .data          0x00000000        0x0 c:/ncs/v1.6.0/toolchain/opt/bin/../lib/gcc/arm-none-eabi/9.2.1/thumb/v8-m.main/nofp\libgcc.a(_fixunsdfdi.o)
 .bss           0x00000000        0x0 c:/ncs/v1.6.0/toolchain/opt/bin/../lib/gcc/arm-none-eabi/9.2.1/thumb/v8-m.main/nofp\libgcc.a(_fixunsdfdi.o)
 .debug_frame   0x00000000       0x2c c:/ncs/v1.6.0/toolchain/opt/bin/../lib/gcc/arm-none-eabi/9.2.1/thumb/v8-m.main/nofp\libgcc.a(_fixunsdfdi.o)
 .data          0x00000000        0x0 c:/ncs/v1.6.0/toolchain/opt/bin/../lib/gcc/arm-none-eabi/9.2.1/thumb/v8-m.main/nofp\libgcc.a(_udivmoddi4.o)
 .bss           0x00000000        0x0 c:/ncs/v1.6.0/toolchain/opt/bin/../lib/gcc/arm-none-eabi/9.2.1/thumb/v8-m.main/nofp\libgcc.a(_udivmoddi4.o)
 .ARM.extab     0x00000000        0x0 c:/ncs/v1.6.0/toolchain/opt/bin/../lib/gcc/arm-none-eabi/9.2.1/thumb/v8-m.main/nofp\libgcc.a(_udivmoddi4.o)
 .data          0x00000000        0x0 c:/ncs/v1.6.0/toolchain/opt/bin/../lib/gcc/arm-none-eabi/9.2.1/thumb/v8-m.main/nofp\libgcc.a(_dvmd_tls.o)
 .bss           0x00000000        0x0 c:/ncs/v1.6.0/toolchain/opt/bin/../lib/gcc/arm-none-eabi/9.2.1/thumb/v8-m.main/nofp\libgcc.a(_dvmd_tls.o)
 .text          0x00000000      0x110 c:/ncs/v1.6.0/toolchain/opt/bin/../lib/gcc/arm-none-eabi/9.2.1/thumb/v8-m.main/nofp\libgcc.a(_arm_cmpdf2.o)
 .data          0x00000000        0x0 c:/ncs/v1.6.0/toolchain/opt/bin/../lib/gcc/arm-none-eabi/9.2.1/thumb/v8-m.main/nofp\libgcc.a(_arm_cmpdf2.o)
 .bss           0x00000000        0x0 c:/ncs/v1.6.0/toolchain/opt/bin/../lib/gcc/arm-none-eabi/9.2.1/thumb/v8-m.main/nofp\libgcc.a(_arm_cmpdf2.o)
 .debug_frame   0x00000000       0xc4 c:/ncs/v1.6.0/toolchain/opt/bin/../lib/gcc/arm-none-eabi/9.2.1/thumb/v8-m.main/nofp\libgcc.a(_arm_cmpdf2.o)
 .text          0x00000000       0x40 c:/ncs/v1.6.0/toolchain/opt/bin/../lib/gcc/arm-none-eabi/9.2.1/thumb/v8-m.main/nofp\libgcc.a(_arm_fixunsdfsi.o)
 .data          0x00000000        0x0 c:/ncs/v1.6.0/toolchain/opt/bin/../lib/gcc/arm-none-eabi/9.2.1/thumb/v8-m.main/nofp\libgcc.a(_arm_fixunsdfsi.o)
 .bss           0x00000000        0x0 c:/ncs/v1.6.0/toolchain/opt/bin/../lib/gcc/arm-none-eabi/9.2.1/thumb/v8-m.main/nofp\libgcc.a(_arm_fixunsdfsi.o)
 .debug_frame   0x00000000       0x24 c:/ncs/v1.6.0/toolchain/opt/bin/../lib/gcc/arm-none-eabi/9.2.1/thumb/v8-m.main/nofp\libgcc.a(_arm_fixunsdfsi.o)
 .data          0x00000000        0x0 ../mylib/src/libblst.a(server.o)
 .bss           0x00000000        0x0 ../mylib/src/libblst.a(server.o)

Memory Configuration

Name             Origin             Length             Attributes
FLASH            0x00020000         0x000e0000         xr
SRAM             0x20008000         0x00078000         xw
SRAM1            0x21000000         0x00010000         rw
IDT_LIST         0x20080000         0x00000800         xw
*default*        0x00000000         0xffffffff

Linker script and memory map

LOAD zephyr/CMakeFiles/zephyr_final.dir/misc/empty_file.c.obj
LOAD zephyr/CMakeFiles/zephyr_final.dir/isr_tables.c.obj
LOAD zephyr/CMakeFiles/zephyr_final.dir/dev_handles.c.obj
                0x00000020                _region_min_align = 0x20

.rel.plt        0x00020000        0x0
 *(SORT_BY_ALIGNMENT(.rel.plt))
                [!provide]                PROVIDE (__rel_iplt_start = .)
 *(SORT_BY_ALIGNMENT(.rel.iplt))
 .rel.iplt      0x00020000        0x0 zephyr/CMakeFiles/zephyr_final.dir/isr_tables.c.obj
                [!provide]                PROVIDE (__rel_iplt_end = .)

.rela.plt       0x00000000        0x0
 *(SORT_BY_ALIGNMENT(.rela.plt))
                [!provide]                PROVIDE (__rela_iplt_start = .)
 *(SORT_BY_ALIGNMENT(.rela.iplt))
                [!provide]                PROVIDE (__rela_iplt_end = .)

.rel.dyn
 *(SORT_BY_ALIGNMENT(.rel.*))

.rela.dyn
 *(SORT_BY_ALIGNMENT(.rela.*))

/DISCARD/
 *(SORT_BY_ALIGNMENT(.plt))
 *(SORT_BY_ALIGNMENT(.iplt))
 *(SORT_BY_ALIGNMENT(.got.plt))
 *(SORT_BY_ALIGNMENT(.igot.plt))
 *(SORT_BY_ALIGNMENT(.got))
 *(SORT_BY_ALIGNMENT(.igot))
 *(SORT_BY_ALIGNMENT(.irq_info*))
 *(SORT_BY_ALIGNMENT(.intList*))
 *(SORT_BY_ALIGNMENT(.note.GNU-stack))
                0x00020000                _image_rom_start = 0x20000

rom_start       0x00020000      0x23c
                0x00000000                . = 0x0
                0x00000000                . = ALIGN (0x4)
                0x00000000                . = ALIGN (0x80)
                0x00000000                . = ALIGN (0x200)
                0x00020000                _vector_start = .
 *(SORT_BY_ALIGNMENT(.exc_vector_table))
 *(SORT_BY_ALIGNMENT(.exc_vector_table.*))
 .exc_vector_table._vector_table_section
                0x00020000       0x40 zephyr/arch/arch/arm/core/aarch32/cortex_m/libarch__arm__core__aarch32__cortex_m.a(vector_table.S.obj)
                0x00020000                _vector_table
 *(SORT_BY_ALIGNMENT(.gnu.linkonce.irq_vector_table*))
 .gnu.linkonce.irq_vector_table
                0x00020040      0x114 zephyr/CMakeFiles/zephyr_final.dir/isr_tables.c.obj
                0x00020040                _irq_vector_table
 *(SORT_BY_ALIGNMENT(.vectors))
                0x00020154                _vector_end = .
                0x00000200                . = 0x200
 *fill*         0x00020154       0xac 
                0x00020200                _fw_info_start = .
 *(SORT_BY_NAME(SORT_BY_ALIGNMENT(.firmware_info*)))
 .firmware_info
                0x00020200       0x3c modules/nrf/subsys/fw_info/lib..__nrf__subsys__fw_info.a(fw_info.c.obj)
                0x00020200                m_firmware_info
                0x0000003c                _fw_info_size = ABSOLUTE ((. - _fw_info_start))

text            0x00020240    0x18026
                0x00020240                _image_text_start = .
 *(SORT_BY_ALIGNMENT(.text))
 .text          0x00020240       0xa0 c:/ncs/v1.6.0/toolchain/opt/bin/../lib/gcc/arm-none-eabi/9.2.1/thumb/v8-m.main/nofp\libgcc.a(_aeabi_ldivmod.o)
                0x00020240                __aeabi_ldivmod
 .text          0x000202e0       0x30 c:/ncs/v1.6.0/toolchain/opt/bin/../lib/gcc/arm-none-eabi/9.2.1/thumb/v8-m.main/nofp\libgcc.a(_aeabi_uldivmod.o)
                0x000202e0                __aeabi_uldivmod
 .text          0x00020310      0x2c8 c:/ncs/v1.6.0/toolchain/opt/bin/../lib/gcc/arm-none-eabi/9.2.1/thumb/v8-m.main/nofp\libgcc.a(_udivmoddi4.o)
                0x00020310                __udivmoddi4
 .text          0x000205d8        0x4 c:/ncs/v1.6.0/toolchain/opt/bin/../lib/gcc/arm-none-eabi/9.2.1/thumb/v8-m.main/nofp\libgcc.a(_dvmd_tls.o)
                0x000205d8                __aeabi_idiv0
                0x000205d8                __aeabi_ldiv0
 .text          0x000205dc     0xcb94 ../mylib/src/libblst.a(server.o)
                0x00023be8                blst_p1_cneg
                0x00023bfa                blst_p1_from_affine
                0x00023c5c                blst_p1_affine_on_curve
                0x00023c64                blst_p1_on_curve
                0x00023d68                blst_p1_affine_serialize
                0x00023d9e                blst_p1_affine_compress
                0x00023de8                blst_p1_is_equal
                0x00023df0                blst_p1_is_inf
                0x00023e0e                blst_p1_generator
                0x00023e18                blst_p1_affine_is_inf
                0x00023e34                blst_p1_affine_generator
                0x00023e3c                blst_p1_in_g1
                0x00023e44                blst_p1_affine_in_g1
                0x00023eac                blst_p2_cneg
                0x00023ebe                blst_p2_from_affine
                0x00023f14                blst_p2_affine_serialize
                0x00023f4a                blst_p2_affine_compress
                0x00023f94                blst_p2_is_inf
                0x00023fb2                blst_p2_generator
                0x00023fbc                blst_p2_affine_is_inf
                0x00023fd8                blst_p2_affine_generator
                0x00023fe0                blst_fp12_conjugate
                0x00023fe8                blst_fp12_is_equal
                0x00024010                blst_fp12_is_one
                0x00024064                blst_fp12_one
                0x0002406c                blst_pairing_sizeof
                0x00024072                blst_pairing_init
                0x00024090                blst_pairing_get_dst
                0x0002409e                mul_mont_sparse_256
                0x000240b2                sqr_mont_sparse_256
                0x000240c8                mul_mont_384
                0x000240dc                sqr_mont_384
                0x000240f2                add_mod_256
                0x00024102                add_mod_384
                0x00024112                sub_mod_256
                0x00024122                sub_mod_384
                0x00024132                mul_by_3_mod_256
                0x0002413c                mul_by_3_mod_384
                0x00024146                lshift_mod_256
                0x00024156                lshift_mod_384
                0x00024166                cneg_mod_256
                0x00024176                cneg_mod_384
                0x00024186                check_mod_256
                0x00024190                from_mont_256
                0x000241a0                from_mont_384
                0x000241b0                redc_mont_256
                0x000241c0                redc_mont_384
                0x000241d0                rshift_mod_256
                0x000241e0                rshift_mod_384
                0x000241f0                div_by_2_mod_384
                0x00024206                eucl_inverse_mod_256
                0x00024216                sgn0_pty_mod_384
                0x00024220                sgn0_pty_mont_384
                0x00024244                sgn0_pty_mod_384x
                0x000242be                sgn0_pty_mont_384x
                0x00024354                mul_mont_384x
                0x00024634                blst_fp12_frobenius_map
                0x00024a78                blst_fp12_mul
                0x00024c20                blst_fp12_sqr
                0x00024f64                blst_fp12_mul_by_xy00z0
                0x000250a0                blst_miller_loop_lines
                0x000250a8                sqr_n_mul_mont_383
                0x00025850                blst_p1_from_jacobian
                0x00025858                blst_p1_to_affine
                0x000258ec                blst_p1_serialize
                0x00025924                blst_p1_compress
                0x00025a30                blst_fp2_inverse
                0x00025a38                blst_fp2_eucl_inverse
                0x00025a40                blst_fp_inverse
                0x00025a48                blst_fp_eucl_inverse
                0x00026274                blst_p1_uncompress
                0x0002627c                blst_p1_deserialize
                0x000262e0                blst_aggregate_in_g1
                0x00026380                blst_fp_sqrt
                0x0002671c                blst_map_to_g1
                0x00026724                sqr_mont_382x
                0x00026828                ct_inverse_mod_383
                0x00026838                div_3_limbs
                0x00026a7c                blst_sk_to_pk_in_g1
                0x00026a8c                blst_sign_pk_in_g2
                0x00026a94                blst_sk_to_pk2_in_g1
                0x00026af4                blst_sign_pk2_in_g2
                0x00026b52                blst_p1_mult
                0x00026c30                quot_rem_128
                0x00026c3a                quot_rem_64
                0x00026c44                blst_sha256_block_data_order
                0x00026e58                blst_sha256_hcopy
                0x00026e6c                blst_sha256_emit
                0x00026f4c                blst_sha256_bcopy
                0x00027374                blst_encode_to_g1
                0x0002739e                blst_hash_to_g1
                0x00027500                blst_keygen
                0x00027754                mul_by_8_mod_384
                0x0002776a                mul_by_3_mod_384x
                0x0002778a                mul_by_8_mod_384x
                0x000277b6                mul_by_1_plus_i_mod_384x
                0x00027804                add_mod_384x
                0x0002783a                sub_mod_384x
                0x00027870                sqr_mont_384x
                0x00027980                blst_p2_from_jacobian
                0x000279d8                blst_p2_to_affine
                0x00027a2c                blst_p2_serialize
                0x00027ab0                blst_p2_compress
                0x00027bb8                blst_p2_affine_on_curve
                0x00027ed0                blst_p2_on_curve
                0x000281bc                blst_fp2_sqrt
                0x00028460                blst_p2_uncompress
                0x00028468                blst_p2_deserialize
                0x000285d4                blst_p2_is_equal
                0x000292d0                blst_p2_mult
                0x00029436                blst_p2_in_g2
                0x0002943e                blst_p2_affine_in_g2
                0x000294a4                blst_pairing_merge
                0x000296f0                blst_sk_to_pk_in_g2
                0x00029700                blst_sign_pk_in_g1
                0x00029708                blst_sk_to_pk2_in_g2
                0x00029768                blst_sign_pk2_in_g1
                0x00029fe0                blst_map_to_g2
                0x00029fe8                blst_encode_to_g2
                0x0002a012                blst_hash_to_g2
                0x0002a400                blst_fp12_cyclotomic_sqr
                0x0002a978                blst_fp12_inverse
                0x0002aae4                blst_final_exp
                0x0002b414                blst_miller_loop
                0x0002b6d4                blst_pairing_aggregate_pk_in_g2
                0x0002b6fe                blst_pairing_mul_n_aggregate_pk_in_g2
                0x0002b73e                blst_pairing_chk_n_aggr_pk_in_g2
                0x0002b764                blst_pairing_chk_n_mul_n_aggr_pk_in_g2
                0x0002b7fc                blst_pairing_commit
                0x0002b900                blst_pairing_finalverify
                0x0002b908                blst_core_verify_pk_in_g2
                0x0002b970                blst_aggregated_in_g1
                0x0002b984                blst_aggregated_in_g2
                0x0002ba50                blst_precompute_lines
                0x0002c0d0                blst_pairing_aggregate_pk_in_g1
                0x0002c0fa                blst_pairing_mul_n_aggregate_pk_in_g1
                0x0002c13a                blst_pairing_chk_n_aggr_pk_in_g1
                0x0002c160                blst_pairing_chk_n_mul_n_aggr_pk_in_g1
                0x0002c1a6                blst_core_verify_pk_in_g1
                0x0002c20e                blst_aggregate_in_g2
                0x0002c5ac                blst_fr_add
                0x0002c5c4                blst_fr_sub
                0x0002c5dc                blst_fr_mul_by_3
                0x0002c5ec                blst_fr_lshift
                0x0002c604                blst_fr_rshift
                0x0002c61c                blst_fr_mul
                0x0002c63c                blst_fr_sqr
                0x0002c65c                blst_fr_cneg
                0x0002c680                blst_fr_to
                0x0002c6a8                blst_fr_from
                0x0002c6c4                blst_fr_eucl_inverse
                0x0002c6e4                blst_fp_add
                0x0002c6fc                blst_fp_sub
                0x0002c714                blst_fp_mul_by_3
                0x0002c724                blst_fp_mul_by_8
                0x0002c740                blst_fp_lshift
                0x0002c758                blst_fp_mul
                0x0002c778                blst_fp_sqr
                0x0002c79c                blst_fp_cneg
                0x0002c7c0                blst_fp_to
                0x0002c7e4                blst_fp_from
                0x0002c804                blst_fp_from_uint32
                0x0002c828                blst_uint32_from_fp
                0x0002c848                blst_fp_from_uint64
                0x0002c86c                blst_uint64_from_fp
                0x0002c88c                blst_fp_from_bendian
                0x0002c8d8                blst_bendian_from_fp
                0x0002c924                blst_fp_from_lendian
                0x0002c970                blst_lendian_from_fp
                0x0002c9b8                blst_fp2_add
                0x0002c9f4                blst_fp2_sub
                0x0002ca30                blst_fp2_mul_by_3
                0x0002ca58                blst_fp2_mul_by_8
                0x0002ca88                blst_fp2_lshift
                0x0002cac4                blst_fp2_mul
                0x0002cae0                blst_fp2_sqr
                0x0002caf4                blst_fp2_cneg
                0x0002cb38                blst_p1_add
                0x0002cb40                blst_p1_add_or_double
                0x0002cb4a                blst_p1_add_affine
                0x0002cb52                blst_p1_add_or_double_affine
                0x0002cb5a                blst_p1_double
                0x0002cb62                blst_p1_affine_is_equal
                0x0002cb8a                blst_p2_add
                0x0002cb92                blst_p2_add_or_double
                0x0002cb9c                blst_p2_add_affine
                0x0002cba4                blst_p2_add_or_double_affine
                0x0002cbac                blst_p2_double
                0x0002cbb4                blst_p2_affine_is_equal
                0x0002cbdc                blst_scalar_from_uint32
                0x0002cc0c                blst_uint32_from_scalar
                0x0002cc46                blst_scalar_from_uint64
                0x0002cc9a                blst_uint64_from_scalar
                0x0002ccf4                blst_scalar_from_bendian
                0x0002cd62                blst_bendian_from_scalar
                0x0002cdcc                blst_scalar_from_lendian
                0x0002cde6                blst_lendian_from_scalar
                0x0002ce00                blst_scalar_fr_check
                0x0002ce90                blst_sk_check
                0x0002cea0                blst_fr_from_uint64
                0x0002cec8                blst_uint64_from_fr
                0x0002cee4                blst_fr_from_scalar
                0x0002cf2c                blst_scalar_from_fr
                0x0002cf84                blst_scalar_from_hexascii
                0x0002cf90                blst_fp_from_hexascii
                0x0002cfc0                blst_uniq_sizeof
                0x0002cfc6                blst_uniq_init
                0x0002cfce                blst_uniq_test
 *(SORT_BY_ALIGNMENT(.text.*))
 .text.z_impl_clock_gettime
                0x0002d170       0xa4 zephyr/lib/posix/liblib__posix.a(clock.c.obj)
                0x0002d170                z_impl_clock_gettime
 *fill*         0x0002d214        0x4 
 .text.clock_settime
                0x0002d218       0x88 zephyr/lib/posix/liblib__posix.a(clock.c.obj)
                0x0002d218                clock_settime
 .text.cmd_public_key
                0x0002d2a0       0x54 app/libapp.a(main.c.obj)
 .text.cmd_get_keys
                0x0002d2f4       0x6c app/libapp.a(main.c.obj)
 .text.cmd_keygen
                0x0002d360       0x9c app/libapp.a(main.c.obj)
 .text.cmd_signature_message
                0x0002d3fc      0x110 app/libapp.a(main.c.obj)
 .text.cmd_signature_verification
                0x0002d50c       0x6c app/libapp.a(main.c.obj)
 .text.k_timer_remaining_get.constprop.0
                0x0002d578       0x1c app/libapp.a(main.c.obj)
 .text.cmd_benchmark
                0x0002d594      0x2a4 app/libapp.a(main.c.obj)
 .text.dynamic_cmd_get
                0x0002d838       0x30 app/libapp.a(dynamic_cmd.c.obj)
 .text.cmd_dynamic_show
                0x0002d868       0x64 app/libapp.a(dynamic_cmd.c.obj)
 .text.cmd_dynamic_execute
                0x0002d8cc       0x6c app/libapp.a(dynamic_cmd.c.obj)
 .text.cmd_dynamic_remove
                0x0002d938       0x9c app/libapp.a(dynamic_cmd.c.obj)
 .text.cmd_dynamic_add
                0x0002d9d4       0xd0 app/libapp.a(dynamic_cmd.c.obj)
 .text.char_out
                0x0002daa4       0x10 zephyr/libzephyr.a(printk.c.obj)
 .text.__printk_hook_install
                0x0002dab4        0xc zephyr/libzephyr.a(printk.c.obj)
                0x0002dab4                __printk_hook_install
 .text.vprintk  0x0002dac0       0x1c zephyr/libzephyr.a(printk.c.obj)
                0x0002dac0                vprintk
 .text.vsnprintk
                0x0002dadc       0x28 zephyr/libzephyr.a(printk.c.obj)
                0x0002dadc                vsnprintk
 .text.process_event
                0x0002db04      0x1cc zephyr/libzephyr.a(onoff.c.obj)
 .text.timeutil_timegm64
                0x0002dcd0      0x104 zephyr/libzephyr.a(timeutil.c.obj)
                0x0002dcd0                timeutil_timegm64
 .text.cbvprintf
                0x0002ddd4      0x780 zephyr/libzephyr.a(cbprintf_complete.c.obj)
                0x0002ddd4                cbvprintf
 .text.sys_reboot
                0x0002e554       0x30 zephyr/libzephyr.a(reboot.c.obj)
                0x0002e554                sys_reboot
 .text.arch_busy_wait
                0x0002e584       0x24 zephyr/libzephyr.a(soc.c.obj)
                0x0002e584                arch_busy_wait
 .text.enable_logger
                0x0002e5a8       0x5c zephyr/libzephyr.a(log_core.c.obj)
 .text.log_process_thread_timer_expiry_fn
                0x0002e604        0xc zephyr/libzephyr.a(log_core.c.obj)
 .text.log_core_init
                0x0002e610       0x7c zephyr/libzephyr.a(log_core.c.obj)
                0x0002e610                log_core_init
 .text.get_msg  0x0002e68c       0x28 zephyr/libzephyr.a(log_core.c.obj)
                0x0002e68c                get_msg
 .text.z_log_dropped
                0x0002e6b4       0x18 zephyr/libzephyr.a(log_core.c.obj)
                0x0002e6b4                z_log_dropped
 .text.z_log_dropped_read_and_clear
                0x0002e6cc       0x18 zephyr/libzephyr.a(log_core.c.obj)
                0x0002e6cc                z_log_dropped_read_and_clear
 .text.dropped_notify
                0x0002e6e4       0x38 zephyr/libzephyr.a(log_core.c.obj)
                0x0002e6e4                dropped_notify
 .text.log_source_name_get
                0x0002e71c       0x1c zephyr/libzephyr.a(log_core.c.obj)
                0x0002e71c                log_source_name_get
 .text.z_impl_log_filter_set
                0x0002e738       0xa4 zephyr/libzephyr.a(log_core.c.obj)
                0x0002e738                z_impl_log_filter_set
 .text.backend_filter_set
                0x0002e7dc       0x30 zephyr/libzephyr.a(log_core.c.obj)
 .text.log_backend_enable
                0x0002e80c       0x40 zephyr/libzephyr.a(log_core.c.obj)
                0x0002e80c                log_backend_enable
 .text.log_init
                0x0002e84c       0x50 zephyr/libzephyr.a(log_core.c.obj)
                0x0002e84c                log_init
 .text.log_filter_get
                0x0002e89c       0x34 zephyr/libzephyr.a(log_core.c.obj)
                0x0002e89c                log_filter_get
 .text.z_log_strdup
                0x0002e8d0       0x64 zephyr/libzephyr.a(log_core.c.obj)
                0x0002e8d0                z_log_strdup
 .text.log_is_strdup
                0x0002e934       0x1c zephyr/libzephyr.a(log_core.c.obj)
                0x0002e934                log_is_strdup
 .text.z_impl_log_process
                0x0002e950      0x188 zephyr/libzephyr.a(log_core.c.obj)
                0x0002e950                z_impl_log_process
 .text.msg_finalize
                0x0002ead8       0xbc zephyr/libzephyr.a(log_core.c.obj)
 .text.log_process_thread_func
                0x0002eb94       0x48 zephyr/libzephyr.a(log_core.c.obj)
 .text.z_impl_log_panic
                0x0002ebdc       0x48 zephyr/libzephyr.a(log_core.c.obj)
                0x0002ebdc                z_impl_log_panic
 .text.log_free
                0x0002ec24       0x2c zephyr/libzephyr.a(log_core.c.obj)
                0x0002ec24                log_free
 .text.log_msg_pool_init
                0x0002ec50       0x14 zephyr/libzephyr.a(log_msg.c.obj)
                0x0002ec50                log_msg_pool_init
 .text.log_msg_no_space_handle
                0x0002ec64       0x30 zephyr/libzephyr.a(log_msg.c.obj)
                0x0002ec64                log_msg_no_space_handle
 .text.log_msg_chunk_alloc
                0x0002ec94       0x28 zephyr/libzephyr.a(log_msg.c.obj)
                0x0002ec94                log_msg_chunk_alloc
 .text.msg_free
                0x0002ecbc       0x7c zephyr/libzephyr.a(log_msg.c.obj)
 .text.print_formatted
                0x0002ed38       0x24 zephyr/libzephyr.a(log_output.c.obj)
 .text.prefix_print
                0x0002ed5c      0x120 zephyr/libzephyr.a(log_output.c.obj)
 .text.postfix_print
                0x0002ee7c       0x3c zephyr/libzephyr.a(log_output.c.obj)
 .text.hexdump_line_print
                0x0002eeb8       0xdc zephyr/libzephyr.a(log_output.c.obj)
 .text.log_output_msg_process
                0x0002ef94       0xf8 zephyr/libzephyr.a(log_output.c.obj)
                0x0002ef94                log_output_msg_process
 .text.log_output_dropped_process
                0x0002f08c       0x58 zephyr/libzephyr.a(log_output.c.obj)
                0x0002f08c                log_output_dropped_process
 .text.log_output_timestamp_freq_set
                0x0002f0e4       0x30 zephyr/libzephyr.a(log_output.c.obj)
                0x0002f0e4                log_output_timestamp_freq_set
 .text.severity_lvl_get
                0x0002f114       0x24 zephyr/libzephyr.a(log_cmds.c.obj)
 .text.backend_name_get
                0x0002f138       0x30 zephyr/libzephyr.a(log_cmds.c.obj)
 .text.cmd_log_backends_list
                0x0002f168       0x60 zephyr/libzephyr.a(log_cmds.c.obj)
 .text.log_status
                0x0002f1c8       0xb8 zephyr/libzephyr.a(log_cmds.c.obj)
 .text.module_name_get
                0x0002f280       0x20 zephyr/libzephyr.a(log_cmds.c.obj)
 .text.shell_backend_cmd_execute
                0x0002f2a0       0x78 zephyr/libzephyr.a(log_cmds.c.obj)
 .text.cmd_log_backend_status
                0x0002f318       0x10 zephyr/libzephyr.a(log_cmds.c.obj)
 .text.cmd_log_backend_halt
                0x0002f328        0xc zephyr/libzephyr.a(log_cmds.c.obj)
 .text.cmd_log_backend_go
                0x0002f334        0xc zephyr/libzephyr.a(log_cmds.c.obj)
 .text.cmd_log_backend_enable
                0x0002f340        0xc zephyr/libzephyr.a(log_cmds.c.obj)
 .text.cmd_log_backend_disable
                0x0002f34c        0xc zephyr/libzephyr.a(log_cmds.c.obj)
 .text.shell_state_precheck
                0x0002f358       0x20 zephyr/libzephyr.a(log_cmds.c.obj)
 .text.filters_set
                0x0002f378       0xd0 zephyr/libzephyr.a(log_cmds.c.obj)
 .text.log_enable
                0x0002f448       0x60 zephyr/libzephyr.a(log_cmds.c.obj)
 .text.cmd_kernel_version
                0x0002f4a8       0x2c zephyr/libzephyr.a(kernel_service.c.obj)
 .text.cmd_kernel_uptime
                0x0002f4d4       0x34 zephyr/libzephyr.a(kernel_service.c.obj)
 .text.cmd_kernel_threads
                0x0002f508       0x38 zephyr/libzephyr.a(kernel_service.c.obj)
 .text.cmd_kernel_stacks
                0x0002f540       0x5c zephyr/libzephyr.a(kernel_service.c.obj)
 .text.shell_tdata_dump
                0x0002f59c       0xcc zephyr/libzephyr.a(kernel_service.c.obj)
 .text.cmd_kernel_cycles
                0x0002f668       0x1c zephyr/libzephyr.a(kernel_service.c.obj)
 .text.shell_stack_dump
                0x0002f684       0x68 zephyr/libzephyr.a(kernel_service.c.obj)
 .text.get_device_name
                0x0002f6ec       0x20 zephyr/libzephyr.a(device_service.c.obj)
 .text.cmd_device_list_visitor
                0x0002f70c       0x20 zephyr/libzephyr.a(device_service.c.obj)
 .text.cmd_device_list
                0x0002f72c       0x98 zephyr/libzephyr.a(device_service.c.obj)
 .text.device_get_config_level
                0x0002f7c4       0x54 zephyr/libzephyr.a(device_service.c.obj)
 .text.cmd_device_levels
                0x0002f818       0x94 zephyr/libzephyr.a(device_service.c.obj)
 .text.date_print
                0x0002f8ac       0x30 zephyr/libzephyr.a(date_service.c.obj)
 .text.get_h_m_s
                0x0002f8dc       0xa8 zephyr/libzephyr.a(date_service.c.obj)
 .text.cmd_date_set
                0x0002f984      0x124 zephyr/libzephyr.a(date_service.c.obj)
 .text.shell_internal_help_print
                0x0002faa8       0x20 zephyr/libzephyr.a(shell.c.obj)
 .text.state_set.part.0
                0x0002fac8       0x44 zephyr/libzephyr.a(shell.c.obj)
 .text.history_handle
                0x0002fb0c       0xa0 zephyr/libzephyr.a(shell.c.obj)
 .text.execute  0x0002fbac      0x2c4 zephyr/libzephyr.a(shell.c.obj)
 .text.shell_process
                0x0002fe70      0x668 zephyr/libzephyr.a(shell.c.obj)
                0x0002fe70                shell_process
 .text.shell_init
                0x000304d8      0x104 zephyr/libzephyr.a(shell.c.obj)
                0x000304d8                shell_init
 .text.shell_start
                0x000305dc       0x50 zephyr/libzephyr.a(shell.c.obj)
                0x000305dc                shell_start
 .text.shell_thread
                0x0003062c       0xc8 zephyr/libzephyr.a(shell.c.obj)
                0x0003062c                shell_thread
 .text.cmd_help
                0x000306f4       0x4c zephyr/libzephyr.a(shell.c.obj)
 .text.z_shell_fprintf_fmt
                0x00030740       0x28 zephyr/libzephyr.a(shell_fprintf.c.obj)
                0x00030740                z_shell_fprintf_fmt
 .text.z_shell_cmd_get
                0x00030768       0x4c zephyr/libzephyr.a(shell_utils.c.obj)
                0x00030768                z_shell_cmd_get
 .text.z_clear_eos.isra.0
                0x000307b4       0x10 zephyr/libzephyr.a(shell_ops.c.obj)
 .text.z_shell_op_cursor_vert_move
                0x000307c4       0x20 zephyr/libzephyr.a(shell_ops.c.obj)
                0x000307c4                z_shell_op_cursor_vert_move
 .text.z_shell_op_cursor_horiz_move
                0x000307e4       0x20 zephyr/libzephyr.a(shell_ops.c.obj)
                0x000307e4                z_shell_op_cursor_horiz_move
 .text.z_shell_op_cond_next_line
                0x00030804       0x28 zephyr/libzephyr.a(shell_ops.c.obj)
                0x00030804                z_shell_op_cond_next_line
 .text.z_shell_op_cursor_position_synchronize
                0x0003082c       0x54 zephyr/libzephyr.a(shell_ops.c.obj)
                0x0003082c                z_shell_op_cursor_position_synchronize
 .text.z_shell_print_cmd
                0x00030880       0x10 zephyr/libzephyr.a(shell_ops.c.obj)
                0x00030880                z_shell_print_cmd
 .text.z_shell_vt100_color_set
                0x00030890       0x48 zephyr/libzephyr.a(shell_ops.c.obj)
                0x00030890                z_shell_vt100_color_set
 .text.z_shell_vt100_colors_restore
                0x000308d8       0x4c zephyr/libzephyr.a(shell_ops.c.obj)
                0x000308d8                z_shell_vt100_colors_restore
 .text.z_shell_op_word_remove
                0x00030924       0xa8 zephyr/libzephyr.a(shell_ops.c.obj)
                0x00030924                z_shell_op_word_remove
 .text.reprint_from_cursor
                0x000309cc       0x80 zephyr/libzephyr.a(shell_ops.c.obj)
 .text.z_shell_op_char_insert
                0x00030a4c       0x70 zephyr/libzephyr.a(shell_ops.c.obj)
                0x00030a4c                z_shell_op_char_insert
 .text.z_shell_print_prompt_and_cmd
                0x00030abc       0x30 zephyr/libzephyr.a(shell_ops.c.obj)
                0x00030abc                z_shell_print_prompt_and_cmd
 .text.enable_shell_uart
                0x00030aec       0x30 zephyr/libzephyr.a(shell_uart.c.obj)
 .text.uart_callback
                0x00030b1c      0x10c zephyr/libzephyr.a(shell_uart.c.obj)
 .text.init     0x00030c28       0x58 zephyr/libzephyr.a(shell_uart.c.obj)
 .text.formatted_text_print.constprop.0
                0x00030c80       0xf4 zephyr/libzephyr.a(shell_help.c.obj)
 .text.z_shell_help_subcmd_print
                0x00030d74       0xbc zephyr/libzephyr.a(shell_help.c.obj)
                0x00030d74                z_shell_help_subcmd_print
 .text.z_shell_help_cmd_print
                0x00030e30       0x48 zephyr/libzephyr.a(shell_help.c.obj)
                0x00030e30                z_shell_help_cmd_print
 .text.z_shell_help_request
                0x00030e78       0x28 zephyr/libzephyr.a(shell_help.c.obj)
                0x00030e78                z_shell_help_request
 .text.cmd_clear
                0x00030ea0       0x2c zephyr/libzephyr.a(shell_cmds.c.obj)
 .text.cmd_resize_default
                0x00030ecc       0x24 zephyr/libzephyr.a(shell_cmds.c.obj)
 .text.cmd_shell_stats_show
                0x00030ef0       0x18 zephyr/libzephyr.a(shell_cmds.c.obj)
 .text.cmd_history
                0x00030f08       0x48 zephyr/libzephyr.a(shell_cmds.c.obj)
 .text.cmd_echo
                0x00030f50       0x54 zephyr/libzephyr.a(shell_cmds.c.obj)
 .text.cmd_resize
                0x00030fa4      0x17c zephyr/libzephyr.a(shell_cmds.c.obj)
 .text.z_shell_wildcard_process
                0x00031120       0xe8 zephyr/libzephyr.a(shell_wildcard.c.obj)
                0x00031120                z_shell_wildcard_process
 .text.pm_state_notify
                0x00031208       0x4c zephyr/libzephyr.a(power.c.obj)
 .text.pm_system_resume
                0x00031254       0x2c zephyr/libzephyr.a(power.c.obj)
                0x00031254                pm_system_resume
 .text.pm_system_suspend
                0x00031280       0x78 zephyr/libzephyr.a(power.c.obj)
                0x00031280                pm_system_suspend
 .text.uart_console_init
                0x000312f8       0x2c zephyr/libzephyr.a(uart_console.c.obj)
 .text.console_out
                0x00031324       0x28 zephyr/libzephyr.a(uart_console.c.obj)
 .text.onoff_stop
                0x0003134c       0x48 zephyr/libzephyr.a(clock_control_nrf.c.obj)
 .text.onoff_start
                0x00031394       0x54 zephyr/libzephyr.a(clock_control_nrf.c.obj)
 .text.clk_init
                0x000313e8       0x68 zephyr/libzephyr.a(clock_control_nrf.c.obj)
 .text.clkstarted_handle.constprop.0
                0x00031450       0x34 zephyr/libzephyr.a(clock_control_nrf.c.obj)
 .text.clock_event_handler
                0x00031484       0x30 zephyr/libzephyr.a(clock_control_nrf.c.obj)
 .text.hfclk_start
                0x000314b4       0x30 zephyr/libzephyr.a(clock_control_nrf.c.obj)
 .text.generic_hfclk_start
                0x000314e4       0x64 zephyr/libzephyr.a(clock_control_nrf.c.obj)
 .text.hfclk_stop
                0x00031548       0x30 zephyr/libzephyr.a(clock_control_nrf.c.obj)
 .text.generic_hfclk_stop
                0x00031578       0x20 zephyr/libzephyr.a(clock_control_nrf.c.obj)
 .text.cmd_status
                0x00031598       0xfc zephyr/libzephyr.a(clock_control_nrf.c.obj)
 .text.api_blocking_start
                0x00031694       0x3c zephyr/libzephyr.a(clock_control_nrf.c.obj)
 .text.z_nrf_clock_control_lf_on
                0x000316d0      0x104 zephyr/libzephyr.a(clock_control_nrf.c.obj)
                0x000316d0                z_nrf_clock_control_lf_on
 .text.sys_clock_timeout_handler
                0x000317d4       0x18 zephyr/libzephyr.a(nrf_rtc_timer.c.obj)
 .text.set_absolute_alarm
                0x000317ec       0x98 zephyr/libzephyr.a(nrf_rtc_timer.c.obj)
 .text.rtc_nrf_isr
                0x00031884       0x50 zephyr/libzephyr.a(nrf_rtc_timer.c.obj)
                0x00031884                rtc_nrf_isr
 .text.sys_clock_driver_init
                0x000318d4       0x54 zephyr/libzephyr.a(nrf_rtc_timer.c.obj)
                0x000318d4                sys_clock_driver_init
 .text.sys_clock_set_timeout
                0x00031928       0x64 zephyr/libzephyr.a(nrf_rtc_timer.c.obj)
                0x00031928                sys_clock_set_timeout
 .text.sys_clock_elapsed
                0x0003198c       0x1c zephyr/libzephyr.a(nrf_rtc_timer.c.obj)
                0x0003198c                sys_clock_elapsed
 .text.sys_clock_cycle_get_32
                0x000319a8       0x34 zephyr/libzephyr.a(nrf_rtc_timer.c.obj)
                0x000319a8                sys_clock_cycle_get_32
 .text.before_nse
                0x000319dc       0x14 zephyr/libzephyr.a(secure_services_ns.c.obj)
                0x000319dc                before_nse
 .text.after_nse
                0x000319f0       0x14 zephyr/libzephyr.a(secure_services_ns.c.obj)
                0x000319f0                after_nse
 .text.arch_swap
                0x00031a04       0x38 zephyr/arch/arch/arm/core/aarch32/libarch__arm__core__aarch32.a(swap.c.obj)
                0x00031a04                arch_swap
 .text.arch_irq_enable
                0x00031a3c       0x20 zephyr/arch/arch/arm/core/aarch32/libarch__arm__core__aarch32.a(irq_manage.c.obj)
                0x00031a3c                arch_irq_enable
 .text.arch_irq_is_enabled
                0x00031a5c       0x1c zephyr/arch/arch/arm/core/aarch32/libarch__arm__core__aarch32.a(irq_manage.c.obj)
                0x00031a5c                arch_irq_is_enabled
 .text.z_arm_irq_priority_set
                0x00031a78       0x2c zephyr/arch/arch/arm/core/aarch32/libarch__arm__core__aarch32.a(irq_manage.c.obj)
                0x00031a78                z_arm_irq_priority_set
 .text.arch_new_thread
                0x00031aa4       0x38 zephyr/arch/arch/arm/core/aarch32/libarch__arm__core__aarch32.a(thread.c.obj)
                0x00031aa4                arch_new_thread
 .text.arch_switch_to_main_thread
                0x00031adc       0x2c zephyr/arch/arch/arm/core/aarch32/libarch__arm__core__aarch32.a(thread.c.obj)
                0x00031adc                arch_switch_to_main_thread
 .text.z_arm_fatal_error
                0x00031b08       0x88 zephyr/arch/arch/arm/core/aarch32/libarch__arm__core__aarch32.a(fatal.c.obj)
                0x00031b08                z_arm_fatal_error
 .text.z_arm_prep_c
                0x00031b90       0x44 zephyr/arch/arch/arm/core/aarch32/libarch__arm__core__aarch32.a(prep_c.c.obj)
                0x00031b90                z_arm_prep_c
 .text.z_arm_pendsv
                0x00031bd4       0x5c zephyr/arch/arch/arm/core/aarch32/libarch__arm__core__aarch32.a(swap_helper.S.obj)
                0x00031bd4                z_arm_pendsv
 .text.z_arm_svc
                0x00031c30       0x20 zephyr/arch/arch/arm/core/aarch32/libarch__arm__core__aarch32.a(swap_helper.S.obj)
                0x00031c30                z_arm_svc
 .text.z_arm_cpu_idle_init
                0x00031c50        0xc zephyr/arch/arch/arm/core/aarch32/libarch__arm__core__aarch32.a(cpu_idle.S.obj)
                0x00031c50                z_arm_cpu_idle_init
 .text.arch_cpu_idle
                0x00031c5c       0x1c zephyr/arch/arch/arm/core/aarch32/libarch__arm__core__aarch32.a(cpu_idle.S.obj)
                0x00031c5c                arch_cpu_idle
 .text.arch_cpu_atomic_idle
                0x00031c78       0x14 zephyr/arch/arch/arm/core/aarch32/libarch__arm__core__aarch32.a(cpu_idle.S.obj)
                0x00031c78                arch_cpu_atomic_idle
 .text.z_SysNmiOnReset
                0x00031c8c        0x8 zephyr/arch/arch/arm/core/aarch32/libarch__arm__core__aarch32.a(nmi_on_reset.S.obj)
                0x00031c8c                z_SysNmiOnReset
 .text._isr_wrapper
                0x00031c94       0x40 zephyr/arch/arch/arm/core/aarch32/libarch__arm__core__aarch32.a(isr_wrapper.S.obj)
                0x00031c94                _isr_wrapper
 .text._reset_section
                0x00031cd4       0x3c zephyr/arch/arch/arm/core/aarch32/cortex_m/libarch__arm__core__aarch32__cortex_m.a(reset.S.obj)
                0x00031cd4                __start
                0x00031cd4                z_arm_reset
 .text.__fault  0x00031d10       0x14 zephyr/arch/arch/arm/core/aarch32/cortex_m/libarch__arm__core__aarch32__cortex_m.a(fault_s.S.obj)
                0x00031d10                z_arm_usage_fault
                0x00031d10                z_arm_mpu_fault
                0x00031d10                z_arm_exc_spurious
                0x00031d10                z_arm_debug_monitor
                0x00031d10                z_arm_hard_fault
                0x00031d10                z_arm_bus_fault
 .text._HandlerModeExit
                0x00031d24       0x1c zephyr/arch/arch/arm/core/aarch32/cortex_m/libarch__arm__core__aarch32__cortex_m.a(exc_exit.S.obj)
                0x00031d24                z_arm_int_exit
                0x00031d24                z_arm_exc_exit
 .text.usage_fault.isra.0
                0x00031d40      0x140 zephyr/arch/arch/arm/core/aarch32/cortex_m/libarch__arm__core__aarch32__cortex_m.a(fault.c.obj)
 .text.mem_manage_fault.isra.0
                0x00031e80      0x130 zephyr/arch/arch/arm/core/aarch32/cortex_m/libarch__arm__core__aarch32__cortex_m.a(fault.c.obj)
 .text.bus_fault.isra.0
                0x00031fb0      0x148 zephyr/arch/arch/arm/core/aarch32/cortex_m/libarch__arm__core__aarch32__cortex_m.a(fault.c.obj)
 .text.z_arm_fault
                0x000320f8      0x1e8 zephyr/arch/arch/arm/core/aarch32/cortex_m/libarch__arm__core__aarch32__cortex_m.a(fault.c.obj)
                0x000320f8                z_arm_fault
 .text.z_arm_fault_init
                0x000322e0       0x18 zephyr/arch/arch/arm/core/aarch32/cortex_m/libarch__arm__core__aarch32__cortex_m.a(fault.c.obj)
                0x000322e0                z_arm_fault_init
 .text.sys_arch_reboot
                0x000322f8       0x24 zephyr/arch/arch/arm/core/aarch32/cortex_m/libarch__arm__core__aarch32__cortex_m.a(scb.c.obj)
                0x000322f8                sys_arch_reboot
 .text.z_arm_interrupt_init
                0x0003231c       0x18 zephyr/arch/arch/arm/core/aarch32/cortex_m/libarch__arm__core__aarch32__cortex_m.a(irq_init.c.obj)
                0x0003231c                z_arm_interrupt_init
 .text.z_impl_k_thread_abort
                0x00032334       0x24 zephyr/arch/arch/arm/core/aarch32/cortex_m/libarch__arm__core__aarch32__cortex_m.a(thread_abort.c.obj)
                0x00032334                z_impl_k_thread_abort
 .text.z_arm_configure_static_mpu_regions
                0x00032358       0x38 zephyr/arch/arch/arm/core/aarch32/mpu/libarch__arm__core__aarch32__mpu.a(arm_core_mpu.c.obj)
                0x00032358                z_arm_configure_static_mpu_regions
 .text.region_init
                0x00032390       0x30 zephyr/arch/arch/arm/core/aarch32/mpu/libarch__arm__core__aarch32__mpu.a(arm_mpu.c.obj)
 .text.region_allocate_and_init
                0x000323c0       0x3c zephyr/arch/arch/arm/core/aarch32/mpu/libarch__arm__core__aarch32__mpu.a(arm_mpu.c.obj)
 .text.mpu_configure_regions_and_partition.constprop.0
                0x000323fc      0x184 zephyr/arch/arch/arm/core/aarch32/mpu/libarch__arm__core__aarch32__mpu.a(arm_mpu.c.obj)
 .text.arm_core_mpu_enable
                0x00032580       0x14 zephyr/arch/arch/arm/core/aarch32/mpu/libarch__arm__core__aarch32__mpu.a(arm_mpu.c.obj)
                0x00032580                arm_core_mpu_enable
 .text.arm_core_mpu_disable
                0x00032594       0x10 zephyr/arch/arch/arm/core/aarch32/mpu/libarch__arm__core__aarch32__mpu.a(arm_mpu.c.obj)
                0x00032594                arm_core_mpu_disable
 .text.arm_core_mpu_configure_static_mpu_regions
                0x000325a4       0x14 zephyr/arch/arch/arm/core/aarch32/mpu/libarch__arm__core__aarch32__mpu.a(arm_mpu.c.obj)
                0x000325a4                arm_core_mpu_configure_static_mpu_regions
 .text.arm_core_mpu_mark_areas_for_dynamic_regions
                0x000325b8       0xac zephyr/arch/arch/arm/core/aarch32/mpu/libarch__arm__core__aarch32__mpu.a(arm_mpu.c.obj)
                0x000325b8                arm_core_mpu_mark_areas_for_dynamic_regions
 .text.z_arm_mpu_init
                0x00032664       0x4c zephyr/arch/arch/arm/core/aarch32/mpu/libarch__arm__core__aarch32__mpu.a(arm_mpu.c.obj)
                0x00032664                z_arm_mpu_init
 .text.__stdout_hook_install
                0x000326b0        0xc zephyr/lib/libc/minimal/liblib__libc__minimal.a(stdout_console.c.obj)
                0x000326b0                __stdout_hook_install
 .text.z_impl_zephyr_fputc
                0x000326bc       0x18 zephyr/lib/libc/minimal/liblib__libc__minimal.a(stdout_console.c.obj)
                0x000326bc                z_impl_zephyr_fputc
 .text.snprintf
                0x000326d4       0x30 zephyr/lib/libc/minimal/liblib__libc__minimal.a(sprintf.c.obj)
                0x000326d4                snprintf
 .text.sprintf  0x00032704       0x30 zephyr/lib/libc/minimal/liblib__libc__minimal.a(sprintf.c.obj)
                0x00032704                sprintf
 .text.printf   0x00032734       0x24 zephyr/lib/libc/minimal/liblib__libc__minimal.a(fprintf.c.obj)
                0x00032734                printf
 .text.gmtime_r
                0x00032758      0x1c4 zephyr/lib/libc/minimal/liblib__libc__minimal.a(gmtime.c.obj)
                0x00032758                gmtime_r
 .text.gpio_nrfx_init
                0x0003291c       0x30 zephyr/drivers/gpio/libdrivers__gpio.a(gpio_nrfx.c.obj)
 .text.gpio_nrfx_config
                0x0003294c       0xcc zephyr/drivers/gpio/libdrivers__gpio.a(gpio_nrfx.c.obj)
 .text.nrf_gpio_cfg_sense_set
                0x00032a18       0x30 zephyr/drivers/gpio/libdrivers__gpio.a(gpio_nrfx.c.obj)
 .text.check_level_trigger_pins
                0x00032a48       0x94 zephyr/drivers/gpio/libdrivers__gpio.a(gpio_nrfx.c.obj)
 .text.gpio_nrfx_pin_interrupt_configure
                0x00032adc      0x1a8 zephyr/drivers/gpio/libdrivers__gpio.a(gpio_nrfx.c.obj)
 .text.gpiote_event_handler
                0x00032c84       0xc0 zephyr/drivers/gpio/libdrivers__gpio.a(gpio_nrfx.c.obj)
 .text.uarte_nrfx_configure
                0x00032d44      0x184 zephyr/drivers/serial/libdrivers__serial.a(uart_nrfx_uarte.c.obj)
 .text.uarte_nrfx_poll_out
                0x00032ec8       0x94 zephyr/drivers/serial/libdrivers__serial.a(uart_nrfx_uarte.c.obj)
 .text.nrf_gpio_cfg_input.constprop.0
                0x00032f5c       0x30 zephyr/drivers/serial/libdrivers__serial.a(uart_nrfx_uarte.c.obj)
 .text.nrf_gpio_pin_set
                0x00032f8c       0x24 zephyr/drivers/serial/libdrivers__serial.a(uart_nrfx_uarte.c.obj)
 .text.nrf_gpio_cfg_output
                0x00032fb0       0x30 zephyr/drivers/serial/libdrivers__serial.a(uart_nrfx_uarte.c.obj)
 .text.uarte_0_init
                0x00032fe0      0x124 zephyr/drivers/serial/libdrivers__serial.a(uart_nrfx_uarte.c.obj)
 .text.k_sys_fatal_error_handler
                0x00033104       0x34 modules/nrf/lib/fatal_error/lib..__nrf__lib__fatal_error.a(fatal_error.c.obj)
                0x00033104                k_sys_fatal_error_handler
 .text.check_ext_api_requests
                0x00033138       0x9c modules/nrf/subsys/fw_info/lib..__nrf__subsys__fw_info.a(fw_info.c.obj)
 .text.SystemCoreClockUpdate
                0x000331d4       0x20 modules/hal_nordic/nrfx/libmodules__hal_nordic__nrfx.a(system_nrf5340_application.c.obj)
                0x000331d4                SystemCoreClockUpdate
 .text.nrfx_clock_init
                0x000331f4       0x20 modules/hal_nordic/nrfx/libmodules__hal_nordic__nrfx.a(nrfx_clock.c.obj)
                0x000331f4                nrfx_clock_init
 .text.nrfx_clock_enable
                0x00033214       0x24 modules/hal_nordic/nrfx/libmodules__hal_nordic__nrfx.a(nrfx_clock.c.obj)
                0x00033214                nrfx_clock_enable
 .text.nrfx_clock_start
                0x00033238       0xa0 modules/hal_nordic/nrfx/libmodules__hal_nordic__nrfx.a(nrfx_clock.c.obj)
                0x00033238                nrfx_clock_start
 .text.nrfx_clock_stop
                0x000332d8       0xd8 modules/hal_nordic/nrfx/libmodules__hal_nordic__nrfx.a(nrfx_clock.c.obj)
                0x000332d8                nrfx_clock_stop
 .text.nrfx_power_clock_irq_handler
                0x000333b0       0xac modules/hal_nordic/nrfx/libmodules__hal_nordic__nrfx.a(nrfx_clock.c.obj)
                0x000333b0                nrfx_power_clock_irq_handler
 .text.nrfx_dppi_channel_alloc
                0x0003345c       0x50 modules/hal_nordic/nrfx/libmodules__hal_nordic__nrfx.a(nrfx_dppi.c.obj)
                0x0003345c                nrfx_dppi_channel_alloc
 .text.nrfx_gpiote_channel_free
                0x000334ac       0x44 modules/hal_nordic/nrfx/libmodules__hal_nordic__nrfx.a(nrfx_gpiote.c.obj)
                0x000334ac                nrfx_gpiote_channel_free
 .text.nrfx_gpiote_channel_alloc
                0x000334f0       0x70 modules/hal_nordic/nrfx/libmodules__hal_nordic__nrfx.a(nrfx_gpiote.c.obj)
                0x000334f0                nrfx_gpiote_channel_alloc
 .text.z_sys_init_run_level
                0x00033560       0x40 zephyr/kernel/libkernel.a(device.c.obj)
                0x00033560                z_sys_init_run_level
 .text.z_device_get_all_static
                0x000335a0       0x1c zephyr/kernel/libkernel.a(device.c.obj)
                0x000335a0                z_device_get_all_static
 .text.z_impl_device_get_binding
                0x000335bc       0x58 zephyr/kernel/libkernel.a(device.c.obj)
                0x000335bc                z_impl_device_get_binding
 .text.device_required_foreach
                0x00033614       0x74 zephyr/kernel/libkernel.a(device.c.obj)
                0x00033614                device_required_foreach
 .text.z_impl_z_errno
                0x00033688        0xc zephyr/kernel/libkernel.a(errno.c.obj)
                0x00033688                z_impl_z_errno
 .text.z_fatal_error
                0x00033694       0xf0 zephyr/kernel/libkernel.a(fatal.c.obj)
                0x00033694                z_fatal_error
 .text.z_bss_zero
                0x00033784       0x14 zephyr/kernel/libkernel.a(init.c.obj)
                0x00033784                z_bss_zero
 .text.bg_thread_main
                0x00033798       0x34 zephyr/kernel/libkernel.a(init.c.obj)
 .text.z_cstart
                0x000337cc      0x128 zephyr/kernel/libkernel.a(init.c.obj)
                0x000337cc                z_cstart
 .text.init_mem_slab_module
                0x000338f4       0x44 zephyr/kernel/libkernel.a(mem_slab.c.obj)
 .text.k_mem_slab_alloc
                0x00033938       0x60 zephyr/kernel/libkernel.a(mem_slab.c.obj)
                0x00033938                k_mem_slab_alloc
 .text.k_thread_foreach
                0x00033998       0x34 zephyr/kernel/libkernel.a(thread.c.obj)
                0x00033998                k_thread_foreach
 .text.z_thread_monitor_exit
                0x000339cc       0x3c zephyr/kernel/libkernel.a(thread.c.obj)
                0x000339cc                z_thread_monitor_exit
 .text.z_impl_k_thread_name_set
                0x00033a08       0x20 zephyr/kernel/libkernel.a(thread.c.obj)
                0x00033a08                z_impl_k_thread_name_set
 .text.k_thread_state_str
                0x00033a28       0x74 zephyr/kernel/libkernel.a(thread.c.obj)
                0x00033a28                k_thread_state_str
 .text.z_setup_new_thread
                0x00033a9c       0xc0 zephyr/kernel/libkernel.a(thread.c.obj)
                0x00033a9c                z_setup_new_thread
 .text.z_impl_k_thread_create
                0x00033b5c       0x58 zephyr/kernel/libkernel.a(thread.c.obj)
                0x00033b5c                z_impl_k_thread_create
 .text.z_init_static_threads
                0x00033bb4       0xbc zephyr/kernel/libkernel.a(thread.c.obj)
                0x00033bb4                z_init_static_threads
 .text.sys_kernel_version_get
                0x00033c70        0x8 zephyr/kernel/libkernel.a(version.c.obj)
                0x00033c70                sys_kernel_version_get
 .text.idle     0x00033c78       0x2c zephyr/kernel/libkernel.a(idle.c.obj)
                0x00033c78                idle
 .text.z_impl_k_msgq_put
                0x00033ca4       0xb4 zephyr/kernel/libkernel.a(msg_q.c.obj)
                0x00033ca4                z_impl_k_msgq_put
 .text.z_impl_k_msgq_get
                0x00033d58       0xc0 zephyr/kernel/libkernel.a(msg_q.c.obj)
                0x00033d58                z_impl_k_msgq_get
 .text.z_impl_k_mutex_lock
                0x00033e18       0xf0 zephyr/kernel/libkernel.a(mutex.c.obj)
                0x00033e18                z_impl_k_mutex_lock
 .text.z_impl_k_mutex_unlock
                0x00033f08       0x90 zephyr/kernel/libkernel.a(mutex.c.obj)
                0x00033f08                z_impl_k_mutex_unlock
 .text.z_impl_k_sem_give
                0x00033f98       0x4c zephyr/kernel/libkernel.a(sem.c.obj)
                0x00033f98                z_impl_k_sem_give
 .text.z_impl_k_sem_take
                0x00033fe4       0x54 zephyr/kernel/libkernel.a(sem.c.obj)
                0x00033fe4                z_impl_k_sem_take
 .text.z_reset_time_slice
                0x00034038       0x2c zephyr/kernel/libkernel.a(sched.c.obj)
                0x00034038                z_reset_time_slice
 .text.k_sched_time_slice_set
                0x00034064       0x64 zephyr/kernel/libkernel.a(sched.c.obj)
                0x00034064                k_sched_time_slice_set
 .text.z_reschedule
                0x000340c8       0x24 zephyr/kernel/libkernel.a(sched.c.obj)
                0x000340c8                z_reschedule
 .text.k_sched_lock
                0x000340ec       0x28 zephyr/kernel/libkernel.a(sched.c.obj)
                0x000340ec                k_sched_lock
 .text.update_cache
                0x00034114       0x40 zephyr/kernel/libkernel.a(sched.c.obj)
 .text.unready_thread
                0x00034154       0x30 zephyr/kernel/libkernel.a(sched.c.obj)
 .text.pend     0x00034184       0x4c zephyr/kernel/libkernel.a(sched.c.obj)
 .text.z_pend_curr
                0x000341d0       0x28 zephyr/kernel/libkernel.a(sched.c.obj)
                0x000341d0                z_pend_curr
 .text.z_tick_sleep.part.0
                0x000341f8       0x74 zephyr/kernel/libkernel.a(sched.c.obj)
 .text.z_impl_k_thread_suspend
                0x0003426c       0x64 zephyr/kernel/libkernel.a(sched.c.obj)
                0x0003426c                z_impl_k_thread_suspend
 .text.k_sched_unlock
                0x000342d0       0x38 zephyr/kernel/libkernel.a(sched.c.obj)
                0x000342d0                k_sched_unlock
 .text.move_thread_to_end_of_prio_q
                0x00034308       0x7c zephyr/kernel/libkernel.a(sched.c.obj)
 .text.z_time_slice
                0x00034384       0x84 zephyr/kernel/libkernel.a(sched.c.obj)
                0x00034384                z_time_slice
 .text.ready_thread
                0x00034408       0x70 zephyr/kernel/libkernel.a(sched.c.obj)
 .text.z_sched_start
                0x00034478       0x3c zephyr/kernel/libkernel.a(sched.c.obj)
                0x00034478                z_sched_start
 .text.z_set_prio
                0x000344b4       0x98 zephyr/kernel/libkernel.a(sched.c.obj)
                0x000344b4                z_set_prio
 .text.z_sched_init
                0x0003454c       0x18 zephyr/kernel/libkernel.a(sched.c.obj)
                0x0003454c                z_sched_init
 .text.z_impl_k_yield
                0x00034564       0xa4 zephyr/kernel/libkernel.a(sched.c.obj)
                0x00034564                z_impl_k_yield
 .text.z_impl_k_sleep
                0x00034608       0x44 zephyr/kernel/libkernel.a(sched.c.obj)
                0x00034608                z_impl_k_sleep
 .text.z_impl_k_current_get
                0x0003464c        0xc zephyr/kernel/libkernel.a(sched.c.obj)
                0x0003464c                z_impl_k_current_get
 .text.z_impl_k_is_preempt_thread
                0x00034658       0x20 zephyr/kernel/libkernel.a(sched.c.obj)
                0x00034658                z_impl_k_is_preempt_thread
 .text.z_thread_abort
                0x00034678       0xac zephyr/kernel/libkernel.a(sched.c.obj)
                0x00034678                z_thread_abort
 .text.z_sched_wait
                0x00034724       0x24 zephyr/kernel/libkernel.a(sched.c.obj)
                0x00034724                z_sched_wait
 .text.z_data_copy
                0x00034748       0x34 zephyr/kernel/libkernel.a(xip.c.obj)
                0x00034748                z_data_copy
 .text.elapsed  0x0003477c       0x14 zephyr/kernel/libkernel.a(timeout.c.obj)
 .text.remove_timeout
                0x00034790       0x34 zephyr/kernel/libkernel.a(timeout.c.obj)
 .text.next_timeout
                0x000347c4       0x58 zephyr/kernel/libkernel.a(timeout.c.obj)
 .text.timeout_rem
                0x0003481c       0x4c zephyr/kernel/libkernel.a(timeout.c.obj)
 .text.z_add_timeout
                0x00034868      0x110 zephyr/kernel/libkernel.a(timeout.c.obj)
                0x00034868                z_add_timeout
 .text.sys_clock_announce
                0x00034978       0xd4 zephyr/kernel/libkernel.a(timeout.c.obj)
                0x00034978                sys_clock_announce
 .text.sys_clock_tick_get
                0x00034a4c       0x34 zephyr/kernel/libkernel.a(timeout.c.obj)
                0x00034a4c                sys_clock_tick_get
 .text.z_timer_expiration_handler
                0x00034a80       0x50 zephyr/kernel/libkernel.a(timer.c.obj)
                0x00034a80                z_timer_expiration_handler
 .text.z_impl_k_timer_start
                0x00034ad0       0xc0 zephyr/kernel/libkernel.a(timer.c.obj)
                0x00034ad0                z_impl_k_timer_start
 .text.z_impl_k_poll
                0x00034b90       0xb8 zephyr/kernel/libkernel.a(poll.c.obj)
                0x00034b90                z_impl_k_poll
 .text.z_impl_k_poll_signal_raise
                0x00034c48       0x50 zephyr/kernel/libkernel.a(poll.c.obj)
                0x00034c48                z_impl_k_poll_signal_raise
 .text.statics_init
                0x00034c98       0x24 zephyr/kernel/libkernel.a(kheap.c.obj)
 .text.k_sys_work_q_init
                0x00034cbc       0x34 zephyr/kernel/libkernel.a(system_work_q.c.obj)
 .text.work_queue_main
                0x00034cf0      0x13c zephyr/kernel/libkernel.a(work.c.obj)
 .text.submit_to_queue_locked
                0x00034e2c       0xa0 zephyr/kernel/libkernel.a(work.c.obj)
 .text.k_work_queue_start
                0x00034ecc       0x70 zephyr/kernel/libkernel.a(work.c.obj)
                0x00034ecc                k_work_queue_start
 .text.main     0x00034f3c        0x2 app/libapp.a(main.c.obj)
                0x00034f3c                main
 .text.string_cmp
                0x00034f3e        0x4 app/libapp.a(dynamic_cmd.c.obj)
 .text.swapfunc
                0x00034f42       0x16 app/libapp.a(qsort.c.obj)
 .text.med3.isra.0
                0x00034f58       0x40 app/libapp.a(qsort.c.obj)
 .text.qsort    0x00034f98      0x1e8 app/libapp.a(qsort.c.obj)
                0x00034f98                qsort
 .text.char2hex
                0x00035180       0x30 zephyr/libzephyr.a(hex.c.obj)
                0x00035180                char2hex
 .text.hex2char
                0x000351b0       0x1a zephyr/libzephyr.a(hex.c.obj)
                0x000351b0                hex2char
 .text.bin2hex  0x000351ca       0x56 zephyr/libzephyr.a(hex.c.obj)
                0x000351ca                bin2hex
 .text.hex2bin  0x00035220       0x74 zephyr/libzephyr.a(hex.c.obj)
                0x00035220                hex2bin
 .text.sys_notify_validate
                0x00035294       0x28 zephyr/libzephyr.a(notify.c.obj)
                0x00035294                sys_notify_validate
 .text.sys_notify_finalize
                0x000352bc       0x32 zephyr/libzephyr.a(notify.c.obj)
                0x000352bc                sys_notify_finalize
 .text.arch_printk_char_out
                0x000352ee        0x4 zephyr/libzephyr.a(printk.c.obj)
                0x000352ee                arch_printk_char_out
 .text.str_out  0x000352f2       0x26 zephyr/libzephyr.a(printk.c.obj)
 .text.printk   0x00035318       0x1a zephyr/libzephyr.a(printk.c.obj)
                0x00035318                printk
 .text.snprintk
                0x00035332       0x1a zephyr/libzephyr.a(printk.c.obj)
                0x00035332                snprintk
 .text.process_recheck
                0x0003534c       0x38 zephyr/libzephyr.a(onoff.c.obj)
 .text.notify_one
                0x00035384       0x2c zephyr/libzephyr.a(onoff.c.obj)
 .text.transition_complete
                0x000353b0       0x1c zephyr/libzephyr.a(onoff.c.obj)
 .text.validate_args
                0x000353cc       0x1e zephyr/libzephyr.a(onoff.c.obj)
 .text.onoff_manager_init
                0x000353ea       0x26 zephyr/libzephyr.a(onoff.c.obj)
                0x000353ea                onoff_manager_init
 .text.onoff_request
                0x00035410       0x92 zephyr/libzephyr.a(onoff.c.obj)
                0x00035410                onoff_request
 .text.z_thread_entry
                0x000354a2       0x14 zephyr/libzephyr.a(thread_entry.c.obj)
                0x000354a2                z_thread_entry
 .text.timeutil_timegm
                0x000354b6       0x18 zephyr/libzephyr.a(timeutil.c.obj)
                0x000354b6                timeutil_timegm
 .text.chunk_field
                0x000354ce       0x16 zephyr/libzephyr.a(heap.c.obj)
 .text.chunk_set
                0x000354e4       0x16 zephyr/libzephyr.a(heap.c.obj)
 .text.chunk_size
                0x000354fa        0xc zephyr/libzephyr.a(heap.c.obj)
 .text.set_chunk_used
                0x00035506       0x30 zephyr/libzephyr.a(heap.c.obj)
 .text.set_chunk_size
                0x00035536        0x8 zephyr/libzephyr.a(heap.c.obj)
 .text.bucket_idx
                0x0003553e       0x1a zephyr/libzephyr.a(heap.c.obj)
 .text.free_list_add
                0x00035558       0x8a zephyr/libzephyr.a(heap.c.obj)
 .text.sys_heap_init
                0x000355e2       0xa8 zephyr/libzephyr.a(heap.c.obj)
                0x000355e2                sys_heap_init
 .text.encode_uint
                0x0003568a       0x96 zephyr/libzephyr.a(cbprintf_complete.c.obj)
 .text.outs     0x00035720       0x2c zephyr/libzephyr.a(cbprintf_complete.c.obj)
 .text.ring_buf_get_rewind_threshold
                0x0003574c        0x6 zephyr/libzephyr.a(ring_buffer.c.obj)
                0x0003574c                ring_buf_get_rewind_threshold
 .text.ring_buf_put_claim
                0x00035752       0x38 zephyr/libzephyr.a(ring_buffer.c.obj)
                0x00035752                ring_buf_put_claim
 .text.ring_buf_put_finish
                0x0003578a       0x1a zephyr/libzephyr.a(ring_buffer.c.obj)
                0x0003578a                ring_buf_put_finish
 .text.ring_buf_put
                0x000357a4       0x3e zephyr/libzephyr.a(ring_buffer.c.obj)
                0x000357a4                ring_buf_put
 .text.ring_buf_get_claim
                0x000357e2       0x38 zephyr/libzephyr.a(ring_buffer.c.obj)
                0x000357e2                ring_buf_get_claim
 .text.ring_buf_get_finish
                0x0003581a       0x5e zephyr/libzephyr.a(ring_buffer.c.obj)
                0x0003581a                ring_buf_get_finish
 .text.ring_buf_get
                0x00035878       0x40 zephyr/libzephyr.a(ring_buffer.c.obj)
                0x00035878                ring_buf_get
 .text.foldcase
                0x000358b8       0x10 zephyr/libzephyr.a(fnmatch.c.obj)
 .text.fnmatchx
                0x000358c8      0x260 zephyr/libzephyr.a(fnmatch.c.obj)
 .text.fnmatch  0x00035b28        0x6 zephyr/libzephyr.a(fnmatch.c.obj)
                0x00035b28                fnmatch
 .text._ConfigAbsSyms
                0x00035b2e        0x2 zephyr/libzephyr.a(configs.c.obj)
                0x00035b2e                _ConfigAbsSyms
 .text.nordicsemi_nrf53_init
                0x00035b30       0x2e zephyr/libzephyr.a(soc.c.obj)
 .text.z_platform_init
                0x00035b5e        0x4 zephyr/libzephyr.a(soc.c.obj)
                0x00035b5e                z_platform_init
 .text.pm_power_state_set
                0x00035b62       0x26 zephyr/libzephyr.a(power.c.obj)
                0x00035b62                pm_power_state_set
 .text.pm_power_state_exit_post_ops
                0x00035b88       0x16 zephyr/libzephyr.a(power.c.obj)
                0x00035b88                pm_power_state_exit_post_ops
 .text.log_list_init
                0x00035b9e        0x8 zephyr/libzephyr.a(log_list.c.obj)
                0x00035b9e                log_list_init
 .text.log_list_add_tail
                0x00035ba6       0x14 zephyr/libzephyr.a(log_list.c.obj)
                0x00035ba6                log_list_add_tail
 .text.log_list_head_peek
                0x00035bba        0x4 zephyr/libzephyr.a(log_list.c.obj)
                0x00035bba                log_list_head_peek
 .text.log_list_head_get
                0x00035bbe        0xc zephyr/libzephyr.a(log_list.c.obj)
                0x00035bbe                log_list_head_get
 .text.z_log_msg_std_alloc
                0x00035bca       0x12 zephyr/libzephyr.a(log_core.c.obj)
 .text.default_get_timestamp
                0x00035bdc        0x4 zephyr/libzephyr.a(log_core.c.obj)
 .text.dummy_timestamp
                0x00035be0        0x4 zephyr/libzephyr.a(log_core.c.obj)
 .text.z_log_get_s_mask
                0x00035be4       0x40 zephyr/libzephyr.a(log_core.c.obj)
                0x00035be4                z_log_get_s_mask
 .text.log_backend_disable
                0x00035c24        0xa zephyr/libzephyr.a(log_core.c.obj)
                0x00035c24                log_backend_disable
 .text.log_0    0x00035c2e       0x1a zephyr/libzephyr.a(log_core.c.obj)
                0x00035c2e                log_0
 .text.log_1    0x00035c48       0x28 zephyr/libzephyr.a(log_core.c.obj)
                0x00035c48                log_1
 .text.log_2    0x00035c70       0x32 zephyr/libzephyr.a(log_core.c.obj)
                0x00035c70                log_2
 .text.log_3    0x00035ca2       0x38 zephyr/libzephyr.a(log_core.c.obj)
                0x00035ca2                log_3
 .text.log_msg_hexdump_data_op
                0x00035cda       0xac zephyr/libzephyr.a(log_msg.c.obj)
 .text.log_msg_get
                0x00035d86       0x12 zephyr/libzephyr.a(log_msg.c.obj)
                0x00035d86                log_msg_get
 .text.log_msg_nargs_get
                0x00035d98        0x6 zephyr/libzephyr.a(log_msg.c.obj)
                0x00035d98                log_msg_nargs_get
 .text.log_msg_arg_get
                0x00035d9e       0x3e zephyr/libzephyr.a(log_msg.c.obj)
                0x00035d9e                log_msg_arg_get
 .text.log_msg_put
                0x00035ddc       0x1e zephyr/libzephyr.a(log_msg.c.obj)
                0x00035ddc                log_msg_put
 .text.log_msg_str_get
                0x00035dfa        0x4 zephyr/libzephyr.a(log_msg.c.obj)
                0x00035dfa                log_msg_str_get
 .text.log_msg_hexdump_data_get
                0x00035dfe        0xe zephyr/libzephyr.a(log_msg.c.obj)
                0x00035dfe                log_msg_hexdump_data_get
 .text.buffer_write
                0x00035e0c       0x1a zephyr/libzephyr.a(log_output.c.obj)
 .text.std_print
                0x00035e26      0x2ba zephyr/libzephyr.a(log_output.c.obj)
 .text.log_output_flush
                0x000360e0       0x1a zephyr/libzephyr.a(log_output.c.obj)
                0x000360e0                log_output_flush
 .text.out_func
                0x000360fa       0x2e zephyr/libzephyr.a(log_output.c.obj)
 .text.log_halt
                0x00036128        0x8 zephyr/libzephyr.a(log_cmds.c.obj)
 .text.log_go   0x00036130        0xa zephyr/libzephyr.a(log_cmds.c.obj)
 .text.cmd_log_self_halt
                0x0003613a       0x18 zephyr/libzephyr.a(log_cmds.c.obj)
 .text.cmd_log_self_go
                0x00036152       0x18 zephyr/libzephyr.a(log_cmds.c.obj)
 .text.cmd_log_self_status
                0x0003616a       0x20 zephyr/libzephyr.a(log_cmds.c.obj)
 .text.cmd_log_self_enable
                0x0003618a       0x22 zephyr/libzephyr.a(log_cmds.c.obj)
 .text.log_disable
                0x000361ac       0x14 zephyr/libzephyr.a(log_cmds.c.obj)
 .text.cmd_log_self_disable
                0x000361c0       0x22 zephyr/libzephyr.a(log_cmds.c.obj)
 .text.cmd_kernel_reboot_warm
                0x000361e2        0xc zephyr/libzephyr.a(kernel_service.c.obj)
 .text.cmd_kernel_reboot_cold
                0x000361ee        0xc zephyr/libzephyr.a(kernel_service.c.obj)
 .text.cmd_date_get
                0x000361fa       0x24 zephyr/libzephyr.a(date_service.c.obj)
 .text.atomic_or
                0x0003621e       0x16 zephyr/libzephyr.a(shell.c.obj)
 .text.atomic_and
                0x00036234       0x16 zephyr/libzephyr.a(shell.c.obj)
 .text.kill_handler
                0x0003624a       0x50 zephyr/libzephyr.a(shell.c.obj)
 .text.shell_signal_handle
                0x0003629a       0x2a zephyr/libzephyr.a(shell.c.obj)
 .text.k_mutex_unlock
                0x000362c4        0x4 zephyr/libzephyr.a(shell.c.obj)
 .text.z_shell_strlen
                0x000362c8        0xc zephyr/libzephyr.a(shell.c.obj)
 .text.z_shell_raw_fprintf
                0x000362d4       0x1a zephyr/libzephyr.a(shell.c.obj)
 .text.z_flag_echo_set.isra.0
                0x000362ee       0x20 zephyr/libzephyr.a(shell.c.obj)
 .text.z_flag_obscure_set.isra.0
                0x0003630e       0x20 zephyr/libzephyr.a(shell.c.obj)
 .text.z_flag_mode_delete_set.isra.0
                0x0003632e       0x20 zephyr/libzephyr.a(shell.c.obj)
 .text.z_flag_use_colors_set.isra.0
                0x0003634e       0x20 zephyr/libzephyr.a(shell.c.obj)
 .text.z_flag_history_exit_set.isra.0
                0x0003636e       0x20 zephyr/libzephyr.a(shell.c.obj)
 .text.z_flag_insert_mode_set.isra.0
                0x0003638e       0x20 zephyr/libzephyr.a(shell.c.obj)
 .text.transport_evt_handler
                0x000363ae       0x14 zephyr/libzephyr.a(shell.c.obj)
 .text.k_mutex_lock.constprop.0
                0x000363c2        0x4 zephyr/libzephyr.a(shell.c.obj)
 .text.shell_log_process
                0x000363c6       0x48 zephyr/libzephyr.a(shell.c.obj)
 .text.shell_vfprintf
                0x0003640e       0x72 zephyr/libzephyr.a(shell.c.obj)
                0x0003640e                shell_vfprintf
 .text.shell_fprintf
                0x00036480       0x1a zephyr/libzephyr.a(shell.c.obj)
                0x00036480                shell_fprintf
 .text.shell_help
                0x0003649a       0x2a zephyr/libzephyr.a(shell.c.obj)
                0x0003649a                shell_help
 .text.z_shell_fprintf_buffer_flush
                0x000364c4       0x18 zephyr/libzephyr.a(shell_fprintf.c.obj)
                0x000364c4                z_shell_fprintf_buffer_flush
 .text.out_func
                0x000364dc       0x38 zephyr/libzephyr.a(shell_fprintf.c.obj)
 .text.isspace  0x00036514       0x14 zephyr/libzephyr.a(shell_utils.c.obj)
 .text.z_shell_strlen
                0x00036528        0xc zephyr/libzephyr.a(shell_utils.c.obj)
 .text.z_column_span_with_buffer_offsets_get
                0x00036534       0x1e zephyr/libzephyr.a(shell_utils.c.obj)
                0x00036534                z_column_span_with_buffer_offsets_get
 .text.z_row_span_with_buffer_offsets_get
                0x00036552       0x16 zephyr/libzephyr.a(shell_utils.c.obj)
                0x00036552                z_row_span_with_buffer_offsets_get
 .text.z_shell_multiline_data_calc
                0x00036568       0x2c zephyr/libzephyr.a(shell_utils.c.obj)
                0x00036568                z_shell_multiline_data_calc
 .text.z_shell_make_argv
                0x00036594      0x188 zephyr/libzephyr.a(shell_utils.c.obj)
                0x00036594                z_shell_make_argv
 .text.z_shell_pattern_remove
                0x0003671c       0x4e zephyr/libzephyr.a(shell_utils.c.obj)
                0x0003671c                z_shell_pattern_remove
 .text.z_shell_find_cmd
                0x0003676a       0x2e zephyr/libzephyr.a(shell_utils.c.obj)
                0x0003676a                z_shell_find_cmd
 .text.z_shell_get_last_command
                0x00036798       0x5c zephyr/libzephyr.a(shell_utils.c.obj)
                0x00036798                z_shell_get_last_command
 .text.z_shell_spaces_trim
                0x000367f4       0x6c zephyr/libzephyr.a(shell_utils.c.obj)
                0x000367f4                z_shell_spaces_trim
 .text.z_shell_cmd_trim
                0x00036860       0x64 zephyr/libzephyr.a(shell_utils.c.obj)
                0x00036860                z_shell_cmd_trim
 .text.z_shell_raw_fprintf
                0x000368c4       0x1a zephyr/libzephyr.a(shell_ops.c.obj)
 .text.full_line_cmd.isra.0
                0x000368de       0x28 zephyr/libzephyr.a(shell_ops.c.obj)
 .text.z_shell_cursor_in_empty_line
                0x00036906       0x28 zephyr/libzephyr.a(shell_ops.c.obj)
                0x00036906                z_shell_cursor_in_empty_line
 .text.z_shell_op_cursor_move
                0x0003692e       0x48 zephyr/libzephyr.a(shell_ops.c.obj)
                0x0003692e                z_shell_op_cursor_move
 .text.z_shell_op_cursor_word_move
                0x00036976       0x74 zephyr/libzephyr.a(shell_ops.c.obj)
                0x00036976                z_shell_op_cursor_word_move
 .text.z_shell_op_cursor_home_move
                0x000369ea        0xc zephyr/libzephyr.a(shell_ops.c.obj)
                0x000369ea                z_shell_op_cursor_home_move
 .text.z_shell_op_cursor_end_move
                0x000369f6        0xe zephyr/libzephyr.a(shell_ops.c.obj)
                0x000369f6                z_shell_op_cursor_end_move
 .text.z_shell_op_left_arrow
                0x00036a04       0x10 zephyr/libzephyr.a(shell_ops.c.obj)
                0x00036a04                z_shell_op_left_arrow
 .text.z_shell_op_right_arrow
                0x00036a14       0x12 zephyr/libzephyr.a(shell_ops.c.obj)
                0x00036a14                z_shell_op_right_arrow
 .text.z_shell_op_delete_from_cursor
                0x00036a26       0x14 zephyr/libzephyr.a(shell_ops.c.obj)
                0x00036a26                z_shell_op_delete_from_cursor
 .text.z_shell_cmd_line_erase
                0x00036a3a       0x34 zephyr/libzephyr.a(shell_ops.c.obj)
                0x00036a3a                z_shell_cmd_line_erase
 .text.z_shell_write
                0x00036a6e       0x76 zephyr/libzephyr.a(shell_ops.c.obj)
                0x00036a6e                z_shell_write
 .text.z_shell_print_stream
                0x00036ae4        0x4 zephyr/libzephyr.a(shell_ops.c.obj)
                0x00036ae4                z_shell_print_stream
 .text.z_shell_vfprintf
                0x00036ae8       0x50 zephyr/libzephyr.a(shell_ops.c.obj)
                0x00036ae8                z_shell_vfprintf
 .text.z_shell_fprintf
                0x00036b38       0x1a zephyr/libzephyr.a(shell_ops.c.obj)
                0x00036b38                z_shell_fprintf
 .text.data_insert
                0x00036b52       0x64 zephyr/libzephyr.a(shell_ops.c.obj)
 .text.z_shell_op_completion_insert
                0x00036bb6        0x4 zephyr/libzephyr.a(shell_ops.c.obj)
                0x00036bb6                z_shell_op_completion_insert
 .text.z_shell_op_char_delete
                0x00036bba       0x36 zephyr/libzephyr.a(shell_ops.c.obj)
                0x00036bba                z_shell_op_char_delete
 .text.z_shell_op_char_backspace
                0x00036bf0       0x22 zephyr/libzephyr.a(shell_ops.c.obj)
                0x00036bf0                z_shell_op_char_backspace
 .text.z_impl_uart_irq_tx_disable
                0x00036c12        0xa zephyr/libzephyr.a(shell_uart.c.obj)
 .text.read     0x00036c1c       0x12 zephyr/libzephyr.a(shell_uart.c.obj)
 .text.write    0x00036c2e       0x64 zephyr/libzephyr.a(shell_uart.c.obj)
 .text.uninit   0x00036c92       0x1c zephyr/libzephyr.a(shell_uart.c.obj)
 .text.enable   0x00036cae       0x14 zephyr/libzephyr.a(shell_uart.c.obj)
 .text.z_shell_raw_fprintf
                0x00036cc2       0x1a zephyr/libzephyr.a(shell_help.c.obj)
 .text.cmd_shell_stats_reset
                0x00036cdc        0x8 zephyr/libzephyr.a(shell_cmds.c.obj)
 .text.z_shell_raw_fprintf
                0x00036ce4       0x1a zephyr/libzephyr.a(shell_cmds.c.obj)
 .text.cmd_echo_on
                0x00036cfe       0x1a zephyr/libzephyr.a(shell_cmds.c.obj)
 .text.cmd_colors_off
                0x00036d18       0x1a zephyr/libzephyr.a(shell_cmds.c.obj)
 .text.cmd_bacskpace_mode_backspace
                0x00036d32       0x1a zephyr/libzephyr.a(shell_cmds.c.obj)
 .text.cmd_echo_off
                0x00036d4c       0x1a zephyr/libzephyr.a(shell_cmds.c.obj)
 .text.cmd_bacskpace_mode_delete
                0x00036d66       0x1a zephyr/libzephyr.a(shell_cmds.c.obj)
 .text.cmd_colors_on
                0x00036d80       0x1a zephyr/libzephyr.a(shell_cmds.c.obj)
 .text.remove_from_tail.part.0
                0x00036d9a       0x24 zephyr/libzephyr.a(shell_history.c.obj)
 .text.z_shell_history_mode_exit
                0x00036dbe        0x6 zephyr/libzephyr.a(shell_history.c.obj)
                0x00036dbe                z_shell_history_mode_exit
 .text.z_shell_history_get
                0x00036dc4       0x56 zephyr/libzephyr.a(shell_history.c.obj)
                0x00036dc4                z_shell_history_get
 .text.z_shell_history_purge
                0x00036e1a       0x18 zephyr/libzephyr.a(shell_history.c.obj)
                0x00036e1a                z_shell_history_purge
 .text.z_shell_history_put
                0x00036e32       0xd8 zephyr/libzephyr.a(shell_history.c.obj)
                0x00036e32                z_shell_history_put
 .text.z_shell_history_init
                0x00036f0a        0xc zephyr/libzephyr.a(shell_history.c.obj)
                0x00036f0a                z_shell_history_init
 .text.msg_from_fifo.isra.0
                0x00036f16       0x1a zephyr/libzephyr.a(shell_log_backend.c.obj)
 .text.dropped  0x00036f30       0x2a zephyr/libzephyr.a(shell_log_backend.c.obj)
 .text.put      0x00036f5a      0x114 zephyr/libzephyr.a(shell_log_backend.c.obj)
 .text.z_shell_log_backend_output_func
                0x0003706e       0x14 zephyr/libzephyr.a(shell_log_backend.c.obj)
                0x0003706e                z_shell_log_backend_output_func
 .text.z_shell_log_backend_enable
                0x00037082       0x1e zephyr/libzephyr.a(shell_log_backend.c.obj)
                0x00037082                z_shell_log_backend_enable
 .text.z_shell_log_backend_disable
                0x000370a0       0x20 zephyr/libzephyr.a(shell_log_backend.c.obj)
                0x000370a0                z_shell_log_backend_disable
 .text.z_shell_log_backend_process
                0x000370c0       0x78 zephyr/libzephyr.a(shell_log_backend.c.obj)
                0x000370c0                z_shell_log_backend_process
 .text.panic    0x00037138       0x52 zephyr/libzephyr.a(shell_log_backend.c.obj)
 .text.z_shell_has_wildcard
                0x0003718a       0x28 zephyr/libzephyr.a(shell_wildcard.c.obj)
                0x0003718a                z_shell_has_wildcard
 .text.z_shell_wildcard_prepare
                0x000371b2       0x48 zephyr/libzephyr.a(shell_wildcard.c.obj)
                0x000371b2                z_shell_wildcard_prepare
 .text.z_shell_wildcard_finalize
                0x000371fa       0x1a zephyr/libzephyr.a(shell_wildcard.c.obj)
                0x000371fa                z_shell_wildcard_finalize
 .text.pm_policy_next_state
                0x00037214        0xa zephyr/libzephyr.a(policy_residency.c.obj)
                0x00037214                pm_policy_next_state
 .text.get_status
                0x0003721e       0x12 zephyr/libzephyr.a(clock_control_nrf.c.obj)
 .text.set_off_state
                0x00037230       0x32 zephyr/libzephyr.a(clock_control_nrf.c.obj)
 .text.set_starting_state
                0x00037262       0x3c zephyr/libzephyr.a(clock_control_nrf.c.obj)
 .text.set_on_state
                0x0003729e       0x26 zephyr/libzephyr.a(clock_control_nrf.c.obj)
 .text.onoff_started_callback
                0x000372c4       0x12 zephyr/libzephyr.a(clock_control_nrf.c.obj)
 .text.hfclkaudio_start
                0x000372d6        0x6 zephyr/libzephyr.a(clock_control_nrf.c.obj)
 .text.hfclk192m_start
                0x000372dc        0x6 zephyr/libzephyr.a(clock_control_nrf.c.obj)
 .text.lfclk_start
                0x000372e2        0x6 zephyr/libzephyr.a(clock_control_nrf.c.obj)
 .text.hfclkaudio_stop
                0x000372e8        0x6 zephyr/libzephyr.a(clock_control_nrf.c.obj)
 .text.hfclk192m_stop
                0x000372ee        0x6 zephyr/libzephyr.a(clock_control_nrf.c.obj)
 .text.lfclk_stop
                0x000372f4        0x6 zephyr/libzephyr.a(clock_control_nrf.c.obj)
 .text.blocking_start_callback
                0x000372fa        0x6 zephyr/libzephyr.a(clock_control_nrf.c.obj)
 .text.api_stop
                0x00037300       0x28 zephyr/libzephyr.a(clock_control_nrf.c.obj)
 .text.api_start
                0x00037328       0x34 zephyr/libzephyr.a(clock_control_nrf.c.obj)
 .text.sys_clock_isr
                0x0003735c        0x2 zephyr/libzephyr.a(sys_clock_init.c.obj)
                0x0003735c                sys_clock_isr
 .text.sys_clock_idle_exit
                0x0003735e        0x2 zephyr/libzephyr.a(sys_clock_init.c.obj)
                0x0003735e                sys_clock_idle_exit
 .text.sys_clock_disable
                0x00037360        0x2 zephyr/libzephyr.a(sys_clock_init.c.obj)
                0x00037360                sys_clock_disable
 .text.spm_request_random_number
                0x00037362       0x18 zephyr/libzephyr.a(secure_services_ns.c.obj)
                0x00037362                spm_request_random_number
 .text.z_irq_spurious
                0x0003737a        0x8 zephyr/arch/arch/arm/core/aarch32/libarch__arm__core__aarch32.a(irq_manage.c.obj)
                0x0003737a                z_irq_spurious
 .text.configure_builtin_stack_guard
                0x00037382        0xa zephyr/arch/arch/arm/core/aarch32/libarch__arm__core__aarch32.a(thread.c.obj)
                0x00037382                configure_builtin_stack_guard
 .text.z_do_kernel_oops
                0x0003738c        0x8 zephyr/arch/arch/arm/core/aarch32/libarch__arm__core__aarch32.a(fatal.c.obj)
                0x0003738c                z_do_kernel_oops
 .text.z_arm_nmi
                0x00037394        0xe zephyr/arch/arch/arm/core/aarch32/libarch__arm__core__aarch32.a(nmi.c.obj)
                0x00037394                z_arm_nmi
 .text.z_arm_save_fp_context
                0x000373a2        0x2 zephyr/arch/arch/arm/core/aarch32/cortex_m/libarch__arm__core__aarch32__cortex_m.a(fpu.c.obj)
                0x000373a2                z_arm_save_fp_context
 .text.z_arm_restore_fp_context
                0x000373a4        0x2 zephyr/arch/arch/arm/core/aarch32/cortex_m/libarch__arm__core__aarch32__cortex_m.a(fpu.c.obj)
                0x000373a4                z_arm_restore_fp_context
 .text.arm_cmse_mpu_region_get
                0x000373a6       0x12 zephyr/arch/arch/arm/core/aarch32/cortex_m/cmse/libarch__arm__core__aarch32__cortex_m__cmse.a(arm_core_cmse.c.obj)
                0x000373a6                arm_cmse_mpu_region_get
 .text.mpu_configure_region
                0x000373b8       0x32 zephyr/arch/arch/arm/core/aarch32/mpu/libarch__arm__core__aarch32__mpu.a(arm_mpu.c.obj)
 .text.strtol   0x000373ea       0xec zephyr/lib/libc/minimal/liblib__libc__minimal.a(strtol.c.obj)
                0x000373ea                strtol
 .text.strstr   0x000374d6       0x40 zephyr/lib/libc/minimal/liblib__libc__minimal.a(strstr.c.obj)
                0x000374d6                strstr
 .text.strcpy   0x00037516       0x14 zephyr/lib/libc/minimal/liblib__libc__minimal.a(string.c.obj)
                0x00037516                strcpy
 .text.strncpy  0x0003752a       0x26 zephyr/lib/libc/minimal/liblib__libc__minimal.a(string.c.obj)
                0x0003752a                strncpy
 .text.strchr   0x00037550       0x1c zephyr/lib/libc/minimal/liblib__libc__minimal.a(string.c.obj)
                0x00037550                strchr
 .text.strlen   0x0003756c        0xe zephyr/lib/libc/minimal/liblib__libc__minimal.a(string.c.obj)
                0x0003756c                strlen
 .text.strnlen  0x0003757a       0x12 zephyr/lib/libc/minimal/liblib__libc__minimal.a(string.c.obj)
                0x0003757a                strnlen
 .text.strcmp   0x0003758c       0x18 zephyr/lib/libc/minimal/liblib__libc__minimal.a(string.c.obj)
                0x0003758c                strcmp
 .text.strncmp  0x000375a4       0x1e zephyr/lib/libc/minimal/liblib__libc__minimal.a(string.c.obj)
                0x000375a4                strncmp
 .text.memcmp   0x000375c2       0x20 zephyr/lib/libc/minimal/liblib__libc__minimal.a(string.c.obj)
                0x000375c2                memcmp
 .text.memmove  0x000375e2       0x2e zephyr/lib/libc/minimal/liblib__libc__minimal.a(string.c.obj)
                0x000375e2                memmove
 .text.memcpy   0x00037610       0x56 zephyr/lib/libc/minimal/liblib__libc__minimal.a(string.c.obj)
                0x00037610                memcpy
 .text.memset   0x00037666       0x46 zephyr/lib/libc/minimal/liblib__libc__minimal.a(string.c.obj)
                0x00037666                memset
 .text._stdout_hook_default
                0x000376ac        0x6 zephyr/lib/libc/minimal/liblib__libc__minimal.a(stdout_console.c.obj)
 .text.fputc    0x000376b2        0x4 zephyr/lib/libc/minimal/liblib__libc__minimal.a(stdout_console.c.obj)
                0x000376b2                fputc
 .text.sprintf_out
                0x000376b6       0x1a zephyr/lib/libc/minimal/liblib__libc__minimal.a(sprintf.c.obj)
 .text.gpio_fire_callbacks
                0x000376d0       0x30 zephyr/drivers/gpio/libdrivers__gpio.a(gpio_nrfx.c.obj)
 .text.gpio_nrfx_port_get_raw
                0x00037700        0xc zephyr/drivers/gpio/libdrivers__gpio.a(gpio_nrfx.c.obj)
 .text.gpio_nrfx_port_set_masked_raw
                0x0003770c       0x12 zephyr/drivers/gpio/libdrivers__gpio.a(gpio_nrfx.c.obj)
 .text.gpio_nrfx_port_set_bits_raw
                0x0003771e        0xa zephyr/drivers/gpio/libdrivers__gpio.a(gpio_nrfx.c.obj)
 .text.gpio_nrfx_port_clear_bits_raw
                0x00037728        0xa zephyr/drivers/gpio/libdrivers__gpio.a(gpio_nrfx.c.obj)
 .text.gpio_nrfx_port_toggle_bits
                0x00037732        0xe zephyr/drivers/gpio/libdrivers__gpio.a(gpio_nrfx.c.obj)
 .text.gpio_nrfx_manage_callback
                0x00037740       0x56 zephyr/drivers/gpio/libdrivers__gpio.a(gpio_nrfx.c.obj)
 .text.cfg_level_pins
                0x00037796       0x4c zephyr/drivers/gpio/libdrivers__gpio.a(gpio_nrfx.c.obj)
 .text.uarte_nrfx_isr_int
                0x000377e2       0xbc zephyr/drivers/serial/libdrivers__serial.a(uart_nrfx_uarte.c.obj)
 .text.uarte_nrfx_config_get
                0x0003789e       0x10 zephyr/drivers/serial/libdrivers__serial.a(uart_nrfx_uarte.c.obj)
 .text.uarte_nrfx_err_check
                0x000378ae        0xe zephyr/drivers/serial/libdrivers__serial.a(uart_nrfx_uarte.c.obj)
 .text.is_tx_ready
                0x000378bc       0x20 zephyr/drivers/serial/libdrivers__serial.a(uart_nrfx_uarte.c.obj)
 .text.uarte_nrfx_poll_in
                0x000378dc       0x26 zephyr/drivers/serial/libdrivers__serial.a(uart_nrfx_uarte.c.obj)
 .text.uarte_nrfx_fifo_read
                0x00037902       0x2c zephyr/drivers/serial/libdrivers__serial.a(uart_nrfx_uarte.c.obj)
 .text.uarte_nrfx_irq_tx_enable
                0x0003792e       0x2e zephyr/drivers/serial/libdrivers__serial.a(uart_nrfx_uarte.c.obj)
 .text.uarte_nrfx_irq_tx_disable
                0x0003795c        0xa zephyr/drivers/serial/libdrivers__serial.a(uart_nrfx_uarte.c.obj)
 .text.uarte_nrfx_irq_tx_ready_complete
                0x00037966       0x2a zephyr/drivers/serial/libdrivers__serial.a(uart_nrfx_uarte.c.obj)
 .text.uarte_nrfx_irq_rx_ready
                0x00037990       0x10 zephyr/drivers/serial/libdrivers__serial.a(uart_nrfx_uarte.c.obj)
 .text.uarte_nrfx_irq_rx_enable
                0x000379a0        0xc zephyr/drivers/serial/libdrivers__serial.a(uart_nrfx_uarte.c.obj)
 .text.uarte_nrfx_irq_rx_disable
                0x000379ac        0xc zephyr/drivers/serial/libdrivers__serial.a(uart_nrfx_uarte.c.obj)
 .text.uarte_nrfx_irq_err_enable
                0x000379b8        0xe zephyr/drivers/serial/libdrivers__serial.a(uart_nrfx_uarte.c.obj)
 .text.uarte_nrfx_irq_err_disable
                0x000379c6        0xe zephyr/drivers/serial/libdrivers__serial.a(uart_nrfx_uarte.c.obj)
 .text.uarte_nrfx_irq_update
                0x000379d4        0x4 zephyr/drivers/serial/libdrivers__serial.a(uart_nrfx_uarte.c.obj)
 .text.uarte_nrfx_irq_callback_set
                0x000379d8        0xa zephyr/drivers/serial/libdrivers__serial.a(uart_nrfx_uarte.c.obj)
 .text.tx_start
                0x000379e2       0x38 zephyr/drivers/serial/libdrivers__serial.a(uart_nrfx_uarte.c.obj)
 .text.uarte_nrfx_fifo_fill
                0x00037a1a       0x78 zephyr/drivers/serial/libdrivers__serial.a(uart_nrfx_uarte.c.obj)
 .text.uarte_nrfx_irq_is_pending
                0x00037a92       0x36 zephyr/drivers/serial/libdrivers__serial.a(uart_nrfx_uarte.c.obj)
 .text.entropy_cc3xx_rng_init
                0x00037ac8        0x4 zephyr/drivers/entropy/libdrivers__entropy.a(entropy_cc310.c.obj)
 .text.entropy_cc3xx_rng_get_entropy
                0x00037acc       0x40 zephyr/drivers/entropy/libdrivers__entropy.a(entropy_cc310.c.obj)
 .text.SystemInit
                0x00037b0c        0x4 modules/hal_nordic/nrfx/libmodules__hal_nordic__nrfx.a(system_nrf5340_application.c.obj)
                0x00037b0c                SystemInit
 .text.nrfx_isr
                0x00037b10        0x2 modules/hal_nordic/nrfx/libmodules__hal_nordic__nrfx.a(nrfx_glue.c.obj)
                0x00037b10                nrfx_isr
 .text.nrfx_busy_wait
                0x00037b12        0x4 modules/hal_nordic/nrfx/libmodules__hal_nordic__nrfx.a(nrfx_glue.c.obj)
                0x00037b12                nrfx_busy_wait
 .text.z_device_state_init
                0x00037b16        0x2 zephyr/kernel/libkernel.a(device.c.obj)
                0x00037b16                z_device_state_init
 .text.z_device_ready
                0x00037b18       0x12 zephyr/kernel/libkernel.a(device.c.obj)
                0x00037b18                z_device_ready
 .text.k_mem_slab_init
                0x00037b2a       0x36 zephyr/kernel/libkernel.a(mem_slab.c.obj)
                0x00037b2a                k_mem_slab_init
 .text.k_mem_slab_free
                0x00037b60       0x54 zephyr/kernel/libkernel.a(mem_slab.c.obj)
                0x00037b60                k_mem_slab_free
 .text.k_is_in_isr
                0x00037bb4        0xc zephyr/kernel/libkernel.a(thread.c.obj)
                0x00037bb4                k_is_in_isr
 .text.k_thread_name_get
                0x00037bc0        0x4 zephyr/kernel/libkernel.a(thread.c.obj)
                0x00037bc0                k_thread_name_get
 .text.z_impl_k_thread_start
                0x00037bc4        0x4 zephyr/kernel/libkernel.a(thread.c.obj)
                0x00037bc4                z_impl_k_thread_start
 .text.z_impl_k_thread_stack_space_get
                0x00037bc8       0x1c zephyr/kernel/libkernel.a(thread.c.obj)
                0x00037bc8                z_impl_k_thread_stack_space_get
 .text.z_pm_save_idle_exit
                0x00037be4        0xe zephyr/kernel/libkernel.a(idle.c.obj)
                0x00037be4                z_pm_save_idle_exit
 .text.z_impl_k_msgq_peek
                0x00037bf2       0x34 zephyr/kernel/libkernel.a(msg_q.c.obj)
                0x00037bf2                z_impl_k_msgq_peek
 .text.z_impl_k_mutex_init
                0x00037c26        0xe zephyr/kernel/libkernel.a(mutex.c.obj)
                0x00037c26                z_impl_k_mutex_init
 .text.sys_dlist_remove
                0x00037c34       0x10 zephyr/kernel/libkernel.a(sched.c.obj)
 .text.unpend_thread_no_timeout
                0x00037c44       0x14 zephyr/kernel/libkernel.a(sched.c.obj)
 .text.z_sched_prio_cmp
                0x00037c58       0x12 zephyr/kernel/libkernel.a(sched.c.obj)
                0x00037c58                z_sched_prio_cmp
 .text.z_unpend_thread_no_timeout
                0x00037c6a       0x20 zephyr/kernel/libkernel.a(sched.c.obj)
                0x00037c6a                z_unpend_thread_no_timeout
 .text.z_unpend_thread
                0x00037c8a       0x28 zephyr/kernel/libkernel.a(sched.c.obj)
                0x00037c8a                z_unpend_thread
 .text.z_reschedule_irqlock
                0x00037cb2       0x18 zephyr/kernel/libkernel.a(sched.c.obj)
                0x00037cb2                z_reschedule_irqlock
 .text.z_reschedule_unlocked
                0x00037cca       0x14 zephyr/kernel/libkernel.a(sched.c.obj)
 .text.z_priq_dumb_best
                0x00037cde       0x14 zephyr/kernel/libkernel.a(sched.c.obj)
                0x00037cde                z_priq_dumb_best
 .text.add_to_waitq_locked
                0x00037cf2       0x5a zephyr/kernel/libkernel.a(sched.c.obj)
 .text.z_ready_thread
                0x00037d4c       0x20 zephyr/kernel/libkernel.a(sched.c.obj)
                0x00037d4c                z_ready_thread
 .text.z_thread_timeout
                0x00037d6c       0x44 zephyr/kernel/libkernel.a(sched.c.obj)
                0x00037d6c                z_thread_timeout
 .text.z_unpend1_no_timeout
                0x00037db0       0x2a zephyr/kernel/libkernel.a(sched.c.obj)
                0x00037db0                z_unpend1_no_timeout
 .text.z_unpend_first_thread
                0x00037dda       0x30 zephyr/kernel/libkernel.a(sched.c.obj)
                0x00037dda                z_unpend_first_thread
 .text.z_sched_wake
                0x00037e0a       0x3c zephyr/kernel/libkernel.a(sched.c.obj)
                0x00037e0a                z_sched_wake
 .text.z_abort_timeout
                0x00037e46       0x2c zephyr/kernel/libkernel.a(timeout.c.obj)
                0x00037e46                z_abort_timeout
 .text.z_timeout_remaining
                0x00037e72       0x20 zephyr/kernel/libkernel.a(timeout.c.obj)
                0x00037e72                z_timeout_remaining
 .text.z_get_next_timeout_expiry
                0x00037e92       0x20 zephyr/kernel/libkernel.a(timeout.c.obj)
                0x00037e92                z_get_next_timeout_expiry
 .text.z_set_timeout_expiry
                0x00037eb2       0x34 zephyr/kernel/libkernel.a(timeout.c.obj)
                0x00037eb2                z_set_timeout_expiry
 .text.sys_clock_tick_get_32
                0x00037ee6        0x8 zephyr/kernel/libkernel.a(timeout.c.obj)
                0x00037ee6                sys_clock_tick_get_32
 .text.z_impl_k_uptime_ticks
                0x00037eee        0x4 zephyr/kernel/libkernel.a(timeout.c.obj)
                0x00037eee                z_impl_k_uptime_ticks
 .text.z_impl_k_busy_wait
                0x00037ef2        0x8 zephyr/kernel/libkernel.a(timeout.c.obj)
                0x00037ef2                z_impl_k_busy_wait
 .text.k_timer_init
                0x00037efa       0x18 zephyr/kernel/libkernel.a(timer.c.obj)
                0x00037efa                k_timer_init
 .text.z_impl_k_timer_stop
                0x00037f12       0x3a zephyr/kernel/libkernel.a(timer.c.obj)
                0x00037f12                z_impl_k_timer_stop
 .text.clear_event_registrations
                0x00037f4c       0x5a zephyr/kernel/libkernel.a(poll.c.obj)
 .text.add_event
                0x00037fa6       0x6a zephyr/kernel/libkernel.a(poll.c.obj)
 .text.register_events
                0x00038010       0xee zephyr/kernel/libkernel.a(poll.c.obj)
 .text.signal_poll_event
                0x000380fe       0xb8 zephyr/kernel/libkernel.a(poll.c.obj)
 .text.k_poll_event_init
                0x000381b6       0x1e zephyr/kernel/libkernel.a(poll.c.obj)
                0x000381b6                k_poll_event_init
 .text.z_handle_obj_poll_events
                0x000381d4       0x1c zephyr/kernel/libkernel.a(poll.c.obj)
                0x000381d4                z_handle_obj_poll_events
 .text.z_impl_k_poll_signal_init
                0x000381f0        0xa zephyr/kernel/libkernel.a(poll.c.obj)
                0x000381f0                z_impl_k_poll_signal_init
 .text.z_impl_k_poll_signal_reset
                0x000381fa        0x6 zephyr/kernel/libkernel.a(poll.c.obj)
                0x000381fa                z_impl_k_poll_signal_reset
 .text.z_impl_k_poll_signal_check
                0x00038200        0xa zephyr/kernel/libkernel.a(poll.c.obj)
                0x00038200                z_impl_k_poll_signal_check
 .text.boot_banner
                0x0003820a        0x2 zephyr/kernel/libkernel.a(banner.c.obj)
                0x0003820a                boot_banner
 .text.k_heap_init
                0x0003820c       0x10 zephyr/kernel/libkernel.a(kheap.c.obj)
                0x0003820c                k_heap_init
 .text.notify_queue_locked
                0x0003821c        0xe zephyr/kernel/libkernel.a(work.c.obj)
 .text.k_work_submit_to_queue
                0x0003822a       0x3a zephyr/kernel/libkernel.a(work.c.obj)
                0x0003822a                k_work_submit_to_queue
 .text._OffsetAbsSyms
                0x00038264        0x2 zephyr/CMakeFiles/offsets.dir/./arch/arm/core/offsets/offsets.c.obj
                0x00038264                _OffsetAbsSyms
 *(SORT_BY_ALIGNMENT(.TEXT.*))
 *(SORT_BY_ALIGNMENT(.gnu.linkonce.t.*))
 *(SORT_BY_ALIGNMENT(.glue_7t))
 .glue_7t       0x00038266        0x0 linker stubs
 *(SORT_BY_ALIGNMENT(.glue_7))
 .glue_7        0x00038266        0x0 linker stubs
 *(SORT_BY_ALIGNMENT(.vfp11_veneer))
 .vfp11_veneer  0x00038266        0x0 linker stubs
 *(SORT_BY_ALIGNMENT(.v4_bx))
 .v4_bx         0x00038266        0x0 linker stubs
                0x00038266                _image_text_end = .

.ARM.exidx      0x00038268        0x8
                0x00038268                __exidx_start = .
 *(SORT_BY_ALIGNMENT(.ARM.exidx*) SORT_BY_ALIGNMENT(gnu.linkonce.armexidx.*))
 .ARM.exidx     0x00038268        0x8 c:/ncs/v1.6.0/toolchain/opt/bin/../lib/gcc/arm-none-eabi/9.2.1/thumb/v8-m.main/nofp\libgcc.a(_udivmoddi4.o)
                0x00038270                __exidx_end = .
                0x00038270                _image_rodata_start = .

initlevel       0x00038270       0x70
                0x00038270                __init_start = .
                0x00038270                __init_PRE_KERNEL_1_start = .
 *(SORT_BY_NAME(SORT_BY_ALIGNMENT(.z_init_PRE_KERNEL_1[0-9]_*)))
 .z_init_PRE_KERNEL_10_
                0x00038270        0x8 zephyr/libzephyr.a(soc.c.obj)
 *(SORT_BY_NAME(SORT_BY_ALIGNMENT(.z_init_PRE_KERNEL_1[1-9][0-9]_*)))
 .z_init_PRE_KERNEL_130_
                0x00038278        0x8 zephyr/kernel/libkernel.a(mem_slab.c.obj)
 .z_init_PRE_KERNEL_130_
                0x00038280        0x8 zephyr/kernel/libkernel.a(kheap.c.obj)
 .z_init_PRE_KERNEL_150_
                0x00038288        0x8 zephyr/libzephyr.a(clock_control_nrf.c.obj)
 .z_init_PRE_KERNEL_150_
                0x00038290        0x8 zephyr/drivers/serial/libdrivers__serial.a(uart_nrfx_uarte.c.obj)
 .z_init_PRE_KERNEL_150_
                0x00038298        0x8 zephyr/drivers/entropy/libdrivers__entropy.a(entropy_cc310.c.obj)
                0x000382a0                __init_PRE_KERNEL_2_start = .
 *(SORT_BY_NAME(SORT_BY_ALIGNMENT(.z_init_PRE_KERNEL_2[0-9]_*)))
 .z_init_PRE_KERNEL_20_
                0x000382a0        0x8 zephyr/libzephyr.a(sys_clock_init.c.obj)
 *(SORT_BY_NAME(SORT_BY_ALIGNMENT(.z_init_PRE_KERNEL_2[1-9][0-9]_*)))
                0x000382a8                __init_POST_KERNEL_start = .
 *(SORT_BY_NAME(SORT_BY_ALIGNMENT(.z_init_POST_KERNEL[0-9]_*)))
 .z_init_POST_KERNEL0_
                0x000382a8        0x8 zephyr/libzephyr.a(log_core.c.obj)
 .z_init_POST_KERNEL0_
                0x000382b0        0x8 zephyr/libzephyr.a(shell_uart.c.obj)
 *(SORT_BY_NAME(SORT_BY_ALIGNMENT(.z_init_POST_KERNEL[1-9][0-9]_*)))
 .z_init_POST_KERNEL40_
                0x000382b8       0x10 zephyr/drivers/gpio/libdrivers__gpio.a(gpio_nrfx.c.obj)
 .z_init_POST_KERNEL40_
                0x000382c8        0x8 zephyr/kernel/libkernel.a(system_work_q.c.obj)
 .z_init_POST_KERNEL60_
                0x000382d0        0x8 zephyr/libzephyr.a(uart_console.c.obj)
 .z_init_POST_KERNEL90_
                0x000382d8        0x8 modules/nrf/subsys/fw_info/lib..__nrf__subsys__fw_info.a(fw_info.c.obj)
                0x000382e0                __init_APPLICATION_start = .
 *(SORT_BY_NAME(SORT_BY_ALIGNMENT(.z_init_APPLICATION[0-9]_*)))
 *(SORT_BY_NAME(SORT_BY_ALIGNMENT(.z_init_APPLICATION[1-9][0-9]_*)))
                0x000382e0                __init_SMP_start = .
 *(SORT_BY_NAME(SORT_BY_ALIGNMENT(.z_init_SMP[0-9]_*)))
 *(SORT_BY_NAME(SORT_BY_ALIGNMENT(.z_init_SMP[1-9][0-9]_*)))
                0x000382e0                __init_end = .

sw_isr_table    0x000382e0      0x228
                0x000382e0                . = ALIGN (0x0)
 *(SORT_BY_ALIGNMENT(.gnu.linkonce.sw_isr_table*))
 .gnu.linkonce.sw_isr_table
                0x000382e0      0x228 zephyr/CMakeFiles/zephyr_final.dir/isr_tables.c.obj
                0x000382e0                _sw_isr_table

initlevel_error
                0x00038270        0x0
 *(SORT_BY_NAME(SORT_BY_ALIGNMENT(.z_init_[_A-Z0-9]*)))
                0x00000001                ASSERT ((SIZEOF (initlevel_error) == 0x0), Undefined initialization levels used.)

app_shmem_regions
                0x00038508        0x0
                0x00038508                __app_shmem_regions_start = .
 *(SORT_BY_NAME(SORT_BY_ALIGNMENT(.app_regions.*)))
                0x00038508                __app_shmem_regions_end = .

bt_l2cap_fixed_chan_area
                0x00038508        0x0
                0x00038508                _bt_l2cap_fixed_chan_list_start = .
 *(SORT_BY_NAME(SORT_BY_ALIGNMENT(._bt_l2cap_fixed_chan.static.*)))
                0x00038508                _bt_l2cap_fixed_chan_list_end = .

bt_gatt_service_static_area
                0x00038508        0x0
                0x00038508                _bt_gatt_service_static_list_start = .
 *(SORT_BY_NAME(SORT_BY_ALIGNMENT(._bt_gatt_service_static.static.*)))
                0x00038508                _bt_gatt_service_static_list_end = .

k_p4wq_initparam_area
                0x00038508        0x0
                0x00038508                _k_p4wq_initparam_list_start = .
 *(SORT_BY_NAME(SORT_BY_ALIGNMENT(._k_p4wq_initparam.static.*)))
                0x00038508                _k_p4wq_initparam_list_end = .

log_strings_sections
                0x00038508        0x0
                0x00038508                __log_strings_start = .
 *(SORT_BY_NAME(SORT_BY_ALIGNMENT(.log_strings*)))
                0x00038508                __log_strings_end = .

log_const_sections
                0x00038508       0x60
                0x00038508                __log_const_start = .
 *(SORT_BY_NAME(SORT_BY_ALIGNMENT(.log_const_*)))
 .log_const_app
                0x00038508        0x8 app/libapp.a(main.c.obj)
                0x00038508                log_const_app
 .log_const_app_test
                0x00038510        0x8 app/libapp.a(test_module.c.obj)
                0x00038510                log_const_app_test
 .log_const_clock_control
                0x00038518        0x8 zephyr/libzephyr.a(clock_control_nrf.c.obj)
                0x00038518                log_const_clock_control
 .log_const_fatal_error
                0x00038520        0x8 modules/nrf/lib/fatal_error/lib..__nrf__lib__fatal_error.a(fatal_error.c.obj)
                0x00038520                log_const_fatal_error
 .log_const_log
                0x00038528        0x8 zephyr/libzephyr.a(log_core.c.obj)
                0x00038528                log_const_log
 .log_const_mpu
                0x00038530        0x8 zephyr/arch/arch/arm/core/aarch32/mpu/libarch__arm__core__aarch32__mpu.a(arm_core_mpu.c.obj)
                0x00038530                log_const_mpu
 .log_const_os  0x00038538        0x8 zephyr/kernel/libkernel.a(init.c.obj)
                0x00038538                log_const_os
 .log_const_power
                0x00038540        0x8 zephyr/libzephyr.a(power.c.obj)
                0x00038540                log_const_power
 .log_const_shell_shell_uart
                0x00038548        0x8 zephyr/libzephyr.a(shell_uart.c.obj)
                0x00038548                log_const_shell_shell_uart
 .log_const_shell_uart
                0x00038550        0x8 zephyr/libzephyr.a(shell_uart.c.obj)
                0x00038550                log_const_shell_uart
 .log_const_soc
                0x00038558        0x8 zephyr/libzephyr.a(soc.c.obj)
                0x00038558                log_const_soc
 .log_const_uart_nrfx_uarte
                0x00038560        0x8 zephyr/drivers/serial/libdrivers__serial.a(uart_nrfx_uarte.c.obj)
                0x00038560                log_const_uart_nrfx_uarte
                0x00038568                __log_const_end = .

log_backends_sections
                0x00038568       0x10
                0x00038568                __log_backends_start = .
 *(SORT_BY_ALIGNMENT(._log_backend.*))
 ._log_backend.static.shell_uart_backend
                0x00038568       0x10 zephyr/libzephyr.a(shell_uart.c.obj)
                0x00038578                __log_backends_end = .

shell_area      0x00038578       0x30
                0x00038578                _shell_list_start = .
 *(SORT_BY_NAME(SORT_BY_ALIGNMENT(._shell.static.*)))
 ._shell.static.shell_uart
                0x00038578       0x30 zephyr/libzephyr.a(shell_uart.c.obj)
                0x000385a8                _shell_list_end = .

shell_root_cmds_sections
                0x000385a8       0x88
                0x000385a8                __shell_root_cmds_start = .
 *(SORT_BY_NAME(SORT_BY_ALIGNMENT(.shell_root_cmd_*)))
 .shell_root_cmd_benchmark
                0x000385a8        0x8 app/libapp.a(main.c.obj)
 .shell_root_cmd_clear
                0x000385b0        0x8 zephyr/libzephyr.a(shell_cmds.c.obj)
 .shell_root_cmd_date
                0x000385b8        0x8 zephyr/libzephyr.a(date_service.c.obj)
 .shell_root_cmd_device
                0x000385c0        0x8 zephyr/libzephyr.a(device_service.c.obj)
 .shell_root_cmd_dynamic
                0x000385c8        0x8 app/libapp.a(dynamic_cmd.c.obj)
 .shell_root_cmd_getkeys
                0x000385d0        0x8 app/libapp.a(main.c.obj)
 .shell_root_cmd_help
                0x000385d8        0x8 zephyr/libzephyr.a(shell.c.obj)
 .shell_root_cmd_history
                0x000385e0        0x8 zephyr/libzephyr.a(shell_cmds.c.obj)
 .shell_root_cmd_kernel
                0x000385e8        0x8 zephyr/libzephyr.a(kernel_service.c.obj)
 .shell_root_cmd_keygen
                0x000385f0        0x8 app/libapp.a(main.c.obj)
 .shell_root_cmd_log
                0x000385f8        0x8 zephyr/libzephyr.a(log_cmds.c.obj)
 .shell_root_cmd_nrf_clock_control
                0x00038600        0x8 zephyr/libzephyr.a(clock_control_nrf.c.obj)
 .shell_root_cmd_publickey
                0x00038608        0x8 app/libapp.a(main.c.obj)
 .shell_root_cmd_resize
                0x00038610        0x8 zephyr/libzephyr.a(shell_cmds.c.obj)
 .shell_root_cmd_shell
                0x00038618        0x8 zephyr/libzephyr.a(shell_cmds.c.obj)
 .shell_root_cmd_signature
                0x00038620        0x8 app/libapp.a(main.c.obj)
 .shell_root_cmd_verify
                0x00038628        0x8 app/libapp.a(main.c.obj)
                0x00038630                __shell_root_cmds_end = .

font_entry_sections
                0x00038630        0x0
                0x00038630                __font_entry_start = .
 *(SORT_BY_NAME(SORT_BY_ALIGNMENT(._cfb_font.*)))
                0x00038630                __font_entry_end = .

tracing_backend_area
                0x00038630        0x0
                0x00038630                _tracing_backend_list_start = .
 *(SORT_BY_NAME(SORT_BY_ALIGNMENT(._tracing_backend.static.*)))
                0x00038630                _tracing_backend_list_end = .

zephyr_dbg_info
 *(SORT_BY_ALIGNMENT(.dbg_thread_info))

device_handles  0x00038630       0x32
                0x00038630                __device_handles_start = .
 *(SORT_BY_NAME(SORT_BY_ALIGNMENT(.__device_handles_pass2*)))
 .__device_handles_pass2
                0x00038630       0x32 zephyr/CMakeFiles/zephyr_final.dir/dev_handles.c.obj
                0x00038630                __devicehdl_DT_N_S_soc_S_peripheral_40000000_S_gpio_842800
                0x00038638                __devicehdl_DT_N_S_soc_S_peripheral_40000000_S_gpio_842500
                0x00038640                __devicehdl_sys_init_sys_clock_driver_init0
                0x00038646                __devicehdl_DT_N_S_soc_S_cryptocell_sw
                0x0003864e                __devicehdl_DT_N_S_soc_S_peripheral_40000000_S_uart_8000
                0x00038658                __devicehdl_DT_N_S_soc_S_peripheral_40000000_S_clock_5000
                0x00038662                __device_handles_end = .

rodata          0x00038670     0x45c0
 *(SORT_BY_ALIGNMENT(.rodata))
 .rodata        0x00038670       0x18 modules/nrf/subsys/fw_info/lib..__nrf__subsys__fw_info.a(fw_info.c.obj)
 .rodata        0x00038688     0x200c ../mylib/src/libblst.a(server.o)
                0x00038688                BLS12_381_P
                0x00038718                BLS12_381_Rx
                0x00038958                BLS12_381_RR
                0x00039378                BLS12_381_G1
                0x00039408                BLS12_381_G2
                0x00039a48                BLS12_381_r
                0x00039bc0                BLS12_381_rRR
                0x0003a4e0                BLS12_381_p0
                0x0003a4e4                BLS12_381_NEG_G2
                0x0003a604                BLS12_381_NEG_G1
 .rodata        0x0003a694       0x20 app/libapp.a(main.c.obj)
 *(SORT_BY_ALIGNMENT(.rodata.*))
 *fill*         0x0003a6b4        0xc 
 .rodata.delay_machine_code.9365
                0x0003a6c0        0x6 zephyr/libzephyr.a(soc.c.obj)
 *fill*         0x0003a6c6        0x2 
 .rodata._shell_benchmark
                0x0003a6c8       0x14 app/libapp.a(main.c.obj)
 .rodata._shell_getkeys
                0x0003a6dc       0x14 app/libapp.a(main.c.obj)
 .rodata._shell_keygen
                0x0003a6f0       0x14 app/libapp.a(main.c.obj)
 .rodata._shell_publickey
                0x0003a704       0x14 app/libapp.a(main.c.obj)
 .rodata._shell_signature
                0x0003a718       0x14 app/libapp.a(main.c.obj)
 .rodata._shell_verify
                0x0003a72c       0x14 app/libapp.a(main.c.obj)
 .rodata._shell_dynamic
                0x0003a740       0x14 app/libapp.a(dynamic_cmd.c.obj)
 .rodata.m_sub_dynamic
                0x0003a754        0x8 app/libapp.a(dynamic_cmd.c.obj)
 .rodata.m_sub_dynamic_set
                0x0003a75c        0x8 app/libapp.a(dynamic_cmd.c.obj)
 .rodata.shell_m_sub_dynamic
                0x0003a764       0x64 app/libapp.a(dynamic_cmd.c.obj)
 .rodata.colors
                0x0003a7c8       0x14 zephyr/libzephyr.a(log_output.c.obj)
 .rodata.severity
                0x0003a7dc       0x14 zephyr/libzephyr.a(log_output.c.obj)
 .rodata._shell_log
                0x0003a7f0       0x14 zephyr/libzephyr.a(log_cmds.c.obj)
 .rodata.dsub_backend_name_dynamic
                0x0003a804        0x8 zephyr/libzephyr.a(log_cmds.c.obj)
 .rodata.dsub_module_name
                0x0003a80c        0x8 zephyr/libzephyr.a(log_cmds.c.obj)
 .rodata.dsub_severity_lvl
                0x0003a814        0x8 zephyr/libzephyr.a(log_cmds.c.obj)
 .rodata.severity_lvls
                0x0003a81c       0x14 zephyr/libzephyr.a(log_cmds.c.obj)
 .rodata.severity_lvls_sorted
                0x0003a830       0x14 zephyr/libzephyr.a(log_cmds.c.obj)
 .rodata.shell_sub_log_backend
                0x0003a844       0x78 zephyr/libzephyr.a(log_cmds.c.obj)
 .rodata.shell_sub_log_stat
                0x0003a8bc       0xb4 zephyr/libzephyr.a(log_cmds.c.obj)
 .rodata.sub_log_backend
                0x0003a970        0x8 zephyr/libzephyr.a(log_cmds.c.obj)
 .rodata.sub_log_stat
                0x0003a978        0x8 zephyr/libzephyr.a(log_cmds.c.obj)
 .rodata._shell_kernel
                0x0003a980       0x14 zephyr/libzephyr.a(kernel_service.c.obj)
 .rodata.shell_sub_kernel
                0x0003a994       0x8c zephyr/libzephyr.a(kernel_service.c.obj)
 .rodata.shell_sub_kernel_reboot
                0x0003aa20       0x3c zephyr/libzephyr.a(kernel_service.c.obj)
 .rodata.sub_kernel
                0x0003aa5c        0x8 zephyr/libzephyr.a(kernel_service.c.obj)
 .rodata.sub_kernel_reboot
                0x0003aa64        0x8 zephyr/libzephyr.a(kernel_service.c.obj)
 .rodata._shell_device
                0x0003aa6c       0x14 zephyr/libzephyr.a(device_service.c.obj)
 .rodata.levels
                0x0003aa80       0x14 zephyr/libzephyr.a(device_service.c.obj)
 .rodata.shell_sub_device
                0x0003aa94       0x3c zephyr/libzephyr.a(device_service.c.obj)
 .rodata.sub_device
                0x0003aad0        0x8 zephyr/libzephyr.a(device_service.c.obj)
 .rodata._shell_date
                0x0003aad8       0x14 zephyr/libzephyr.a(date_service.c.obj)
 .rodata.shell_sub_date
                0x0003aaec       0x3c zephyr/libzephyr.a(date_service.c.obj)
 .rodata.sub_date
                0x0003ab28        0x8 zephyr/libzephyr.a(date_service.c.obj)
 .rodata._shell_help
                0x0003ab30       0x14 zephyr/libzephyr.a(shell.c.obj)
 .rodata.shell_transport_uart_shell_uart
                0x0003ab44       0x10 zephyr/libzephyr.a(shell_uart.c.obj)
 .rodata.shell_uart_fprintf
                0x0003ab54       0x14 zephyr/libzephyr.a(shell_uart.c.obj)
 .rodata.shell_uart_log_backend
                0x0003ab68       0x1c zephyr/libzephyr.a(shell_uart.c.obj)
 .rodata.shell_uart_log_output
                0x0003ab84       0x10 zephyr/libzephyr.a(shell_uart.c.obj)
 .rodata.shell_uart_transport_api
                0x0003ab94       0x18 zephyr/libzephyr.a(shell_uart.c.obj)
                0x0003ab94                shell_uart_transport_api
 .rodata._shell_clear
                0x0003abac       0x14 zephyr/libzephyr.a(shell_cmds.c.obj)
 .rodata._shell_history
                0x0003abc0       0x14 zephyr/libzephyr.a(shell_cmds.c.obj)
 .rodata._shell_resize
                0x0003abd4       0x14 zephyr/libzephyr.a(shell_cmds.c.obj)
 .rodata._shell_shell
                0x0003abe8       0x14 zephyr/libzephyr.a(shell_cmds.c.obj)
 .rodata.m_sub_backspace_mode
                0x0003abfc        0x8 zephyr/libzephyr.a(shell_cmds.c.obj)
 .rodata.m_sub_colors
                0x0003ac04        0x8 zephyr/libzephyr.a(shell_cmds.c.obj)
 .rodata.m_sub_echo
                0x0003ac0c        0x8 zephyr/libzephyr.a(shell_cmds.c.obj)
 .rodata.m_sub_resize
                0x0003ac14        0x8 zephyr/libzephyr.a(shell_cmds.c.obj)
 .rodata.m_sub_shell
                0x0003ac1c        0x8 zephyr/libzephyr.a(shell_cmds.c.obj)
 .rodata.m_sub_shell_stats
                0x0003ac24        0x8 zephyr/libzephyr.a(shell_cmds.c.obj)
 .rodata.shell_m_sub_backspace_mode
                0x0003ac2c       0x3c zephyr/libzephyr.a(shell_cmds.c.obj)
 .rodata.shell_m_sub_colors
                0x0003ac68       0x3c zephyr/libzephyr.a(shell_cmds.c.obj)
 .rodata.shell_m_sub_echo
                0x0003aca4       0x3c zephyr/libzephyr.a(shell_cmds.c.obj)
 .rodata.shell_m_sub_resize
                0x0003ace0       0x28 zephyr/libzephyr.a(shell_cmds.c.obj)
 .rodata.shell_m_sub_shell
                0x0003ad08       0x64 zephyr/libzephyr.a(shell_cmds.c.obj)
 .rodata.shell_m_sub_shell_stats
                0x0003ad6c       0x3c zephyr/libzephyr.a(shell_cmds.c.obj)
 .rodata.log_backend_shell_api
                0x0003ada8       0x1c zephyr/libzephyr.a(shell_log_backend.c.obj)
                0x0003ada8                log_backend_shell_api
 .rodata._shell_nrf_clock_control
                0x0003adc4       0x14 zephyr/libzephyr.a(clock_control_nrf.c.obj)
 .rodata.clock_control_api
                0x0003add8       0x14 zephyr/libzephyr.a(clock_control_nrf.c.obj)
 .rodata.config
                0x0003adec       0x30 zephyr/libzephyr.a(clock_control_nrf.c.obj)
 .rodata.shell_subcmds
                0x0003ae1c       0x28 zephyr/libzephyr.a(clock_control_nrf.c.obj)
 .rodata.subcmds
                0x0003ae44        0x8 zephyr/libzephyr.a(clock_control_nrf.c.obj)
 .rodata.transitions.11813
                0x0003ae4c        0xc zephyr/libzephyr.a(clock_control_nrf.c.obj)
 .rodata.static_regions
                0x0003ae58        0xc zephyr/arch/arch/arm/core/aarch32/mpu/libarch__arm__core__aarch32__mpu.a(arm_core_mpu.c.obj)
 .rodata.mpu_config
                0x0003ae64        0x8 zephyr/soc/arm/common/cortex_m/libsoc__arm__common__cortex_m.a(arm_mpu_regions.c.obj)
                0x0003ae64                mpu_config
 .rodata.mpu_regions
                0x0003ae6c       0x20 zephyr/soc/arm/common/cortex_m/libsoc__arm__common__cortex_m.a(arm_mpu_regions.c.obj)
 .rodata.gpio_nrfx_drv_api_funcs
                0x0003ae8c       0x24 zephyr/drivers/gpio/libdrivers__gpio.a(gpio_nrfx.c.obj)
 .rodata.gpio_nrfx_p0_cfg
                0x0003aeb0        0xc zephyr/drivers/gpio/libdrivers__gpio.a(gpio_nrfx.c.obj)
 .rodata.gpio_nrfx_p1_cfg
                0x0003aebc        0xc zephyr/drivers/gpio/libdrivers__gpio.a(gpio_nrfx.c.obj)
 .rodata.uart_nrfx_uarte_driver_api
                0x0003aec8       0x4c zephyr/drivers/serial/libdrivers__serial.a(uart_nrfx_uarte.c.obj)
 .rodata.uarte_0z_config
                0x0003af14        0x8 zephyr/drivers/serial/libdrivers__serial.a(uart_nrfx_uarte.c.obj)
 .rodata.entropy_cc3xx_rng_api
                0x0003af1c        0x8 zephyr/drivers/entropy/libdrivers__entropy.a(entropy_cc310.c.obj)
 .rodata.levels.9669
                0x0003af24       0x14 zephyr/kernel/libkernel.a(device.c.obj)
 .rodata._k_neg_eagain
                0x0003af38        0x4 zephyr/kernel/libkernel.a(errno.c.obj)
                0x0003af38                _k_neg_eagain
 .rodata.CSWTCH.424
                0x0003af3c       0x14 zephyr/kernel/libkernel.a(fatal.c.obj)
 .rodata.str1.4
                0x0003af50       0x12 ../mylib/src/libblst.a(server.o)
 .rodata.cmd_public_key.str1.1
                0x0003af62       0x11 app/libapp.a(main.c.obj)
                                 0x16 (size before relaxing)
 .rodata.cmd_get_keys.str1.1
                0x0003af73       0x14 app/libapp.a(main.c.obj)
 .rodata.cmd_keygen.str1.1
                0x0003af87        0x8 app/libapp.a(main.c.obj)
 .rodata.cmd_signature_message.str1.1
                0x0003af8f       0x43 app/libapp.a(main.c.obj)
                                 0x53 (size before relaxing)
 .rodata.cmd_signature_verification.str1.1
                0x0003afd2       0x10 app/libapp.a(main.c.obj)
 .rodata.cmd_benchmark.str1.1
                0x0003afe2      0x103 app/libapp.a(main.c.obj)
                                0x107 (size before relaxing)
 .rodata.str1.1
                0x0003b0e5      0x136 app/libapp.a(main.c.obj)
                                0x140 (size before relaxing)
 .rodata.str1.1
                0x0003b21b        0x9 app/libapp.a(test_module.c.obj)
 .rodata.dynamic_cmd_get.str1.1
                0x0003b224       0x1b app/libapp.a(dynamic_cmd.c.obj)
 .rodata.cmd_dynamic_show.str1.1
                0x0003b23f       0x42 app/libapp.a(dynamic_cmd.c.obj)
 .rodata.cmd_dynamic_execute.str1.1
                0x0003b281       0x2f app/libapp.a(dynamic_cmd.c.obj)
 .rodata.cmd_dynamic_remove.str1.1
                0x0003b2b0       0x38 app/libapp.a(dynamic_cmd.c.obj)
 .rodata.cmd_dynamic_add.str1.1
                0x0003b2e8       0x97 app/libapp.a(dynamic_cmd.c.obj)
                                 0x9a (size before relaxing)
 .rodata.str1.1
                0x0003b37f      0x18d app/libapp.a(dynamic_cmd.c.obj)
 .rodata.cbvprintf.str1.1
                0x0003b50c        0x6 zephyr/libzephyr.a(cbprintf_complete.c.obj)
 .rodata.sys_reboot.str1.1
                0x0003b512       0x29 zephyr/libzephyr.a(reboot.c.obj)
 .rodata.str1.1
                0x0003b53b        0x4 zephyr/libzephyr.a(soc.c.obj)
 .rodata.enable_logger.str1.1
                0x0003b53f        0x4 zephyr/libzephyr.a(log_core.c.obj)
                                  0x8 (size before relaxing)
 .rodata.z_log_strdup.str1.1
                0x0003b53f       0x1a zephyr/libzephyr.a(log_core.c.obj)
 .rodata.z_impl_log_process.str1.1
                0x0003b559       0x3f zephyr/libzephyr.a(log_core.c.obj)
 .rodata.str1.1
                0x0003b598        0x4 zephyr/libzephyr.a(log_core.c.obj)
 .rodata.prefix_print.str1.1
                0x0003b59c       0x39 zephyr/libzephyr.a(log_output.c.obj)
                                 0x3c (size before relaxing)
 .rodata.postfix_print.str1.1
                0x0003b5d5       0x39 zephyr/libzephyr.a(log_output.c.obj)
                                  0x5 (size before relaxing)
 .rodata.hexdump_line_print.str1.1
                0x0003b5d5        0xc zephyr/libzephyr.a(log_output.c.obj)
                                 0x11 (size before relaxing)
 .rodata.log_output_msg_process.str1.1
                0x0003b5e1        0x2 zephyr/libzephyr.a(log_output.c.obj)
 .rodata.log_output_dropped_process.str1.1
                0x0003b5e3        0x2 zephyr/libzephyr.a(log_output.c.obj)
                                  0x3 (size before relaxing)
 .rodata.str1.1
                0x0003b5e3       0x20 zephyr/libzephyr.a(log_output.c.obj)
 .rodata.postfix.10544
                0x0003b603       0x18 zephyr/libzephyr.a(log_output.c.obj)
 .rodata.prefix.10543
                0x0003b61b        0x5 zephyr/libzephyr.a(log_output.c.obj)
 .rodata.cmd_log_backends_list.str1.1
                0x0003b620       0x32 zephyr/libzephyr.a(log_cmds.c.obj)
 .rodata.log_status.str1.1
                0x0003b652       0x8d zephyr/libzephyr.a(log_cmds.c.obj)
 .rodata.shell_backend_cmd_execute.str1.1
                0x0003b6df       0x15 zephyr/libzephyr.a(log_cmds.c.obj)
 .rodata.shell_state_precheck.str1.1
                0x0003b6f4       0x24 zephyr/libzephyr.a(log_cmds.c.obj)
 .rodata.filters_set.str1.1
                0x0003b718       0x45 zephyr/libzephyr.a(log_cmds.c.obj)
 .rodata.log_enable.str1.1
                0x0003b75d       0x16 zephyr/libzephyr.a(log_cmds.c.obj)
 .rodata.str1.1
                0x0003b773      0x191 zephyr/libzephyr.a(log_cmds.c.obj)
                                0x1b5 (size before relaxing)
 .rodata.cmd_kernel_version.str1.1
                0x0003b904       0x19 zephyr/libzephyr.a(kernel_service.c.obj)
 .rodata.cmd_kernel_uptime.str1.1
                0x0003b91d        0xf zephyr/libzephyr.a(kernel_service.c.obj)
 .rodata.cmd_kernel_threads.str1.1
                0x0003b92c       0x29 zephyr/libzephyr.a(kernel_service.c.obj)
 .rodata.cmd_kernel_stacks.str1.1
                0x0003b955       0x46 zephyr/libzephyr.a(kernel_service.c.obj)
 .rodata.shell_tdata_dump.str1.1
                0x0003b99b       0xb4 zephyr/libzephyr.a(kernel_service.c.obj)
                                 0xb8 (size before relaxing)
 .rodata.cmd_kernel_cycles.str1.1
                0x0003ba4f       0x16 zephyr/libzephyr.a(kernel_service.c.obj)
 .rodata.shell_stack_dump.str1.1
                0x0003ba65       0x3a zephyr/libzephyr.a(kernel_service.c.obj)
 .rodata.str1.1
                0x0003ba9f       0xcc zephyr/libzephyr.a(kernel_service.c.obj)
 .rodata.get_device_name.str1.1
                0x0003bb6b        0x5 zephyr/libzephyr.a(device_service.c.obj)
 .rodata.cmd_device_list_visitor.str1.1
                0x0003bb70       0x10 zephyr/libzephyr.a(device_service.c.obj)
 .rodata.cmd_device_list.str1.1
                0x0003bb80       0x25 zephyr/libzephyr.a(device_service.c.obj)
 .rodata.device_get_config_level.str1.1
                0x0003bba5        0x6 zephyr/libzephyr.a(device_service.c.obj)
 .rodata.cmd_device_levels.str1.1
                0x0003bbab       0x42 zephyr/libzephyr.a(device_service.c.obj)
 .rodata.str1.1
                0x0003bbed       0x56 zephyr/libzephyr.a(device_service.c.obj)
                                 0x5d (size before relaxing)
 .rodata.date_print.str1.1
                0x0003bc43       0x21 zephyr/libzephyr.a(date_service.c.obj)
 .rodata.get_h_m_s.str1.1
                0x0003bc64       0x2e zephyr/libzephyr.a(date_service.c.obj)
 .rodata.cmd_date_set.str1.1
                0x0003bc92       0x5c zephyr/libzephyr.a(date_service.c.obj)
 .rodata.str1.1
                0x0003bcee       0x2e zephyr/libzephyr.a(date_service.c.obj)
                                 0x32 (size before relaxing)
 .rodata.shell_internal_help_print.str1.1
                0x0003bd1c        0xe zephyr/libzephyr.a(shell.c.obj)
 .rodata.state_set.part.0.str1.1
                0x0003bd2a       0x44 zephyr/libzephyr.a(shell.c.obj)
                                 0x47 (size before relaxing)
 .rodata.execute.str1.1
                0x0003bd6e       0xb4 zephyr/libzephyr.a(shell.c.obj)
                                 0xc0 (size before relaxing)
 .rodata.shell_process.str1.1
                0x0003be22        0x6 zephyr/libzephyr.a(shell.c.obj)
                                  0x9 (size before relaxing)
 .rodata.shell_start.str1.1
                0x0003be28        0x3 zephyr/libzephyr.a(shell.c.obj)
 .rodata.shell_thread.str1.1
                0x0003be28       0x17 zephyr/libzephyr.a(shell.c.obj)
 .rodata.cmd_help.str1.1
                0x0003be3f      0x1a1 zephyr/libzephyr.a(shell.c.obj)
 .rodata.str1.1
                0x0003bfe0       0x19 zephyr/libzephyr.a(shell.c.obj)
                                 0x1e (size before relaxing)
 .rodata.cmd.10672
                0x0003bff9        0x4 zephyr/libzephyr.a(shell.c.obj)
 .rodata.cmd.11120
                0x0003bffd        0x4 zephyr/libzephyr.a(shell.c.obj)
 .rodata.cmd.11121
                0x0003c001        0x5 zephyr/libzephyr.a(shell.c.obj)
 .rodata.z_clear_eos.isra.0.str1.1
                0x0003c006        0x3 zephyr/libzephyr.a(shell_ops.c.obj)
 .rodata.z_shell_op_cursor_vert_move.str1.1
                0x0003c006        0x7 zephyr/libzephyr.a(shell_ops.c.obj)
 .rodata.z_shell_op_cond_next_line.str1.1
                0x0003c00d        0x2 zephyr/libzephyr.a(shell_ops.c.obj)
 .rodata.reprint_from_cursor.str1.1
                0x0003c00d        0x2 zephyr/libzephyr.a(shell_ops.c.obj)
 .rodata.z_shell_op_char_insert.str1.1
                0x0003c00d        0x3 zephyr/libzephyr.a(shell_ops.c.obj)
 .rodata.cmd.10610
                0x0003c00d        0x4 zephyr/libzephyr.a(shell_ops.c.obj)
 .rodata.cmd.10614
                0x0003c011        0x3 zephyr/libzephyr.a(shell_ops.c.obj)
 .rodata.cmd.10618
                0x0003c014        0x3 zephyr/libzephyr.a(shell_ops.c.obj)
 .rodata.cmd.10965
                0x0003c017        0x4 zephyr/libzephyr.a(shell_ops.c.obj)
 .rodata.enable_shell_uart.str1.1
                0x0003c01b        0x7 zephyr/libzephyr.a(shell_uart.c.obj)
 .rodata.uart_callback.str1.1
                0x0003c022       0x15 zephyr/libzephyr.a(shell_uart.c.obj)
 .rodata.str1.1
                0x0003c037       0x2d zephyr/libzephyr.a(shell_uart.c.obj)
                                 0x38 (size before relaxing)
 .rodata.formatted_text_print.constprop.0.str1.1
                0x0003c064        0x2 zephyr/libzephyr.a(shell_help.c.obj)
 .rodata.z_shell_help_subcmd_print.str1.1
                0x0003c064        0xa zephyr/libzephyr.a(shell_help.c.obj)
 .rodata.z_shell_help_cmd_print.str1.1
                0x0003c06e        0xa zephyr/libzephyr.a(shell_help.c.obj)
                                  0x5 (size before relaxing)
 .rodata.z_shell_help_request.str1.1
                0x0003c06e        0xa zephyr/libzephyr.a(shell_help.c.obj)
 .rodata.cmd_sep.10873
                0x0003c078        0x4 zephyr/libzephyr.a(shell_help.c.obj)
 .rodata.tabulator.10843
                0x0003c07c        0x3 zephyr/libzephyr.a(shell_help.c.obj)
 .rodata.cmd_clear.str1.1
                0x0003c07f        0x3 zephyr/libzephyr.a(shell_cmds.c.obj)
 .rodata.cmd_shell_stats_show.str1.1
                0x0003c07f        0xf zephyr/libzephyr.a(shell_cmds.c.obj)
 .rodata.cmd_history.str1.1
                0x0003c08e        0xa zephyr/libzephyr.a(shell_cmds.c.obj)
 .rodata.cmd_echo.str1.1
                0x0003c08e       0x33 zephyr/libzephyr.a(shell_cmds.c.obj)
                                 0x36 (size before relaxing)
 .rodata.cmd_resize.str1.1
                0x0003c0c1       0x3a zephyr/libzephyr.a(shell_cmds.c.obj)
 .rodata.str1.1
                0x0003c0fb      0x3bf zephyr/libzephyr.a(shell_cmds.c.obj)
                                0x3c4 (size before relaxing)
 .rodata.cmd.10592
                0x0003c4ba        0x3 zephyr/libzephyr.a(shell_cmds.c.obj)
 .rodata.cmd.10596
                0x0003c4bd        0x3 zephyr/libzephyr.a(shell_cmds.c.obj)
 .rodata.cmd.10817
                0x0003c4c0        0x4 zephyr/libzephyr.a(shell_cmds.c.obj)
 .rodata.cmd.10818
                0x0003c4c4        0x5 zephyr/libzephyr.a(shell_cmds.c.obj)
 .rodata.cmd.10878
                0x0003c4c9        0x6 zephyr/libzephyr.a(shell_cmds.c.obj)
 .rodata.cmd_get_terminal_size.10792
                0x0003c4cf        0x5 zephyr/libzephyr.a(shell_cmds.c.obj)
 .rodata.z_shell_wildcard_process.str1.1
                0x0003c4d4       0x52 zephyr/libzephyr.a(shell_wildcard.c.obj)
 .rodata.str1.1
                0x0003c526        0x6 zephyr/libzephyr.a(power.c.obj)
 .rodata.uart_console_init.str1.1
                0x0003c52c        0x7 zephyr/libzephyr.a(uart_console.c.obj)
 .rodata.cmd_status.str1.1
                0x0003c52c       0x78 zephyr/libzephyr.a(clock_control_nrf.c.obj)
                                 0x79 (size before relaxing)
 .rodata.str1.1
                0x0003c5a4       0x58 zephyr/libzephyr.a(clock_control_nrf.c.obj)
                                 0x6d (size before relaxing)
 .rodata.str1.1
                0x0003c5fc        0xa zephyr/libzephyr.a(sys_clock_init.c.obj)
 .rodata.z_arm_fatal_error.str1.1
                0x0003c606       0x9b zephyr/arch/arch/arm/core/aarch32/libarch__arm__core__aarch32.a(fatal.c.obj)
 .rodata.usage_fault.isra.0.str1.1
                0x0003c6a1       0xf7 zephyr/arch/arch/arm/core/aarch32/cortex_m/libarch__arm__core__aarch32__cortex_m.a(fault.c.obj)
 .rodata.mem_manage_fault.isra.0.str1.1
                0x0003c798       0xd8 zephyr/arch/arch/arm/core/aarch32/cortex_m/libarch__arm__core__aarch32__cortex_m.a(fault.c.obj)
 .rodata.bus_fault.isra.0.str1.1
                0x0003c870       0x88 zephyr/arch/arch/arm/core/aarch32/cortex_m/libarch__arm__core__aarch32__cortex_m.a(fault.c.obj)
 .rodata.z_arm_fault.str1.1
                0x0003c8f8       0xdf zephyr/arch/arch/arm/core/aarch32/cortex_m/libarch__arm__core__aarch32__cortex_m.a(fault.c.obj)
 .rodata.str1.1
                0x0003c9d7        0x4 zephyr/arch/arch/arm/core/aarch32/mpu/libarch__arm__core__aarch32__mpu.a(arm_core_mpu.c.obj)
 .rodata.region_allocate_and_init.str1.1
                0x0003c9db       0x26 zephyr/arch/arch/arm/core/aarch32/mpu/libarch__arm__core__aarch32__mpu.a(arm_mpu.c.obj)
 .rodata.mpu_configure_regions_and_partition.constprop.0.str1.1
                0x0003ca01       0x46 zephyr/arch/arch/arm/core/aarch32/mpu/libarch__arm__core__aarch32__mpu.a(arm_mpu.c.obj)
 .rodata.str1.1
                0x0003ca47        0xf zephyr/soc/arm/common/cortex_m/libsoc__arm__common__cortex_m.a(arm_mpu_regions.c.obj)
 .rodata.str1.1
                0x0003ca56        0xe zephyr/drivers/gpio/libdrivers__gpio.a(gpio_nrfx.c.obj)
 .rodata.uarte_0_init.str1.1
                0x0003ca64       0x1f zephyr/drivers/serial/libdrivers__serial.a(uart_nrfx_uarte.c.obj)
 .rodata.str1.1
                0x0003ca83       0x10 zephyr/drivers/serial/libdrivers__serial.a(uart_nrfx_uarte.c.obj)
                                 0x17 (size before relaxing)
 .rodata.str1.1
                0x0003ca93        0xe zephyr/drivers/entropy/libdrivers__entropy.a(entropy_cc310.c.obj)
 .rodata.k_sys_fatal_error_handler.str1.1
                0x0003caa1       0x11 modules/nrf/lib/fatal_error/lib..__nrf__lib__fatal_error.a(fatal_error.c.obj)
 .rodata.str1.1
                0x0003cab2        0xc modules/nrf/lib/fatal_error/lib..__nrf__lib__fatal_error.a(fatal_error.c.obj)
 .rodata.check_ext_api_requests.str1.1
                0x0003cabe       0x5c modules/nrf/subsys/fw_info/lib..__nrf__subsys__fw_info.a(fw_info.c.obj)
 .rodata.z_fatal_error.str1.1
                0x0003cb1a       0x77 zephyr/kernel/libkernel.a(fatal.c.obj)
 .rodata.str1.1
                0x0003cb91       0x4a zephyr/kernel/libkernel.a(fatal.c.obj)
 .rodata.z_cstart.str1.1
                0x0003cbdb        0xf zephyr/kernel/libkernel.a(init.c.obj)
 .rodata.str1.1
                0x0003cbea        0x3 zephyr/kernel/libkernel.a(init.c.obj)
 .rodata.k_thread_state_str.str1.1
                0x0003cbed       0x36 zephyr/kernel/libkernel.a(thread.c.obj)
                                 0x3f (size before relaxing)
 .rodata.k_sys_work_q_init.str1.1
                0x0003cc23        0x9 zephyr/kernel/libkernel.a(system_work_q.c.obj)
 *(SORT_BY_ALIGNMENT(.gnu.linkonce.r.*))
                0x0003cc2c                . = ALIGN (0x4)
                0x0003cc2c                _fw_info_images_start = .
 *(SORT_BY_ALIGNMENT(.fw_info_images))
 .fw_info_images
                0x0003cc2c        0x4 modules/nrf/subsys/fw_info/lib..__nrf__subsys__fw_info.a(fw_info.c.obj)
                0x0003cc2c                self_image
                0x00000001                _fw_info_images_size = ABSOLUTE (((. - _fw_info_images_start) / 0x4))
                0x0003cc30                _ext_apis_start = .
 *(SORT_BY_ALIGNMENT(.ext_apis))
                0x00000000                _ext_apis_size = ABSOLUTE ((. - _ext_apis_start))
                0x0003cc30                _ext_apis_req_start = .
 *(SORT_BY_ALIGNMENT(.ext_apis_req))
                0x00000000                _ext_apis_req_size = ABSOLUTE ((. - _ext_apis_req_start))
                0x0003cc30                . = ALIGN (0x4)
                0x0003cc30                _image_rodata_end = .
                0x0003cc40                . = ALIGN (_region_min_align)
                0x0003cc40                _image_rom_end = .
                0x20008000                . = 0x20008000
                0x20008000                . = ALIGN (_region_min_align)
                0x20008000                _image_ram_start = .

.ramfunc        0x20008000        0x0 load address 0x0003cc30
                0x20008000                . = ALIGN (_region_min_align)
                0x20008000                _ramfunc_ram_start = .
 *(SORT_BY_ALIGNMENT(.ramfunc))
 *(SORT_BY_ALIGNMENT(.ramfunc.*))
                0x20008000                . = ALIGN (_region_min_align)
                0x20008000                _ramfunc_ram_end = .
                0x00000000                _ramfunc_ram_size = (_ramfunc_ram_end - _ramfunc_ram_start)
                0x0003cc30                _ramfunc_rom_start = LOADADDR (.ramfunc)

datas           0x20008000       0xc4 load address 0x0003cc30
                0x20008000                __data_ram_start = .
 *(SORT_BY_ALIGNMENT(.data))
 *(SORT_BY_ALIGNMENT(.data.*))
 .data._char_out
                0x20008000        0x4 zephyr/libzephyr.a(printk.c.obj)
                0x20008000                _char_out
 .data.timestamp_func
                0x20008004        0x4 zephyr/libzephyr.a(log_core.c.obj)
 .data.shell_transport_uart
                0x20008008        0x8 zephyr/libzephyr.a(shell_uart.c.obj)
                0x20008008                shell_transport_uart
 .data.shell_transport_uart_rx_ringbuf
                0x20008010       0x1c zephyr/libzephyr.a(shell_uart.c.obj)
                0x20008010                shell_transport_uart_rx_ringbuf
 .data.shell_transport_uart_tx_ringbuf
                0x2000802c       0x1c zephyr/libzephyr.a(shell_uart.c.obj)
                0x2000802c                shell_transport_uart_tx_ringbuf
 .data.shell_uart_fprintf_shell_fprintf_ctx
                0x20008048        0x8 zephyr/libzephyr.a(shell_uart.c.obj)
 .data.shell_uart_history
                0x20008050       0x10 zephyr/libzephyr.a(shell_uart.c.obj)
 .data.shell_uart_history_ring_buf
                0x20008060       0x1c zephyr/libzephyr.a(shell_uart.c.obj)
 .data.post_ops_done
                0x2000807c        0x4 zephyr/libzephyr.a(power.c.obj)
 .data._stdout_hook
                0x20008080        0x4 zephyr/lib/libc/minimal/liblib__libc__minimal.a(stdout_console.c.obj)
 .data.uarte0_int_driven
                0x20008084       0x14 zephyr/drivers/serial/libdrivers__serial.a(uart_nrfx_uarte.c.obj)
 .data.uarte_0_data
                0x20008098       0x18 zephyr/drivers/serial/libdrivers__serial.a(uart_nrfx_uarte.c.obj)
 .data.SystemCoreClock
                0x200080b0        0x4 modules/hal_nordic/nrfx/libmodules__hal_nordic__nrfx.a(system_nrf5340_application.c.obj)
                0x200080b0                SystemCoreClock
 .data.timeout_list
                0x200080b4        0x8 zephyr/kernel/libkernel.a(timeout.c.obj)
 .data.wait_q.9901
                0x200080bc        0x8 zephyr/kernel/libkernel.a(poll.c.obj)
 *(SORT_BY_ALIGNMENT(.kernel.*))
                0x0003cc30                __data_rom_start = LOADADDR (datas)

devices         0x200080c4       0x90 load address 0x0003ccf4
                0x200080c4                __device_start = .
                0x200080c4                __device_PRE_KERNEL_1_start = .
 *(SORT_BY_NAME(SORT_BY_ALIGNMENT(.z_device_PRE_KERNEL_1[0-9]_*)))
 *(SORT_BY_NAME(SORT_BY_ALIGNMENT(.z_device_PRE_KERNEL_1[1-9][0-9]_*)))
 .z_device_PRE_KERNEL_150_
                0x200080c4       0x18 zephyr/libzephyr.a(clock_control_nrf.c.obj)
                0x200080c4                __device_dts_ord_36
 .z_device_PRE_KERNEL_150_
                0x200080dc       0x18 zephyr/drivers/serial/libdrivers__serial.a(uart_nrfx_uarte.c.obj)
                0x200080dc                __device_dts_ord_70
 .z_device_PRE_KERNEL_150_
                0x200080f4       0x18 zephyr/drivers/entropy/libdrivers__entropy.a(entropy_cc310.c.obj)
                0x200080f4                __device_dts_ord_30
                0x2000810c                __device_PRE_KERNEL_2_start = .
 *(SORT_BY_NAME(SORT_BY_ALIGNMENT(.z_device_PRE_KERNEL_2[0-9]_*)))
 .z_device_PRE_KERNEL_20_
                0x2000810c       0x18 zephyr/libzephyr.a(sys_clock_init.c.obj)
 *(SORT_BY_NAME(SORT_BY_ALIGNMENT(.z_device_PRE_KERNEL_2[1-9][0-9]_*)))
                0x20008124                __device_POST_KERNEL_start = .
 *(SORT_BY_NAME(SORT_BY_ALIGNMENT(.z_device_POST_KERNEL[0-9]_*)))
 *(SORT_BY_NAME(SORT_BY_ALIGNMENT(.z_device_POST_KERNEL[1-9][0-9]_*)))
 .z_device_POST_KERNEL40_
                0x20008124       0x30 zephyr/drivers/gpio/libdrivers__gpio.a(gpio_nrfx.c.obj)
                0x20008124                __device_dts_ord_8
                0x2000813c                __device_dts_ord_63
                0x20008154                __device_APPLICATION_start = .
 *(SORT_BY_NAME(SORT_BY_ALIGNMENT(.z_device_APPLICATION[0-9]_*)))
 *(SORT_BY_NAME(SORT_BY_ALIGNMENT(.z_device_APPLICATION[1-9][0-9]_*)))
                0x20008154                __device_SMP_start = .
 *(SORT_BY_NAME(SORT_BY_ALIGNMENT(.z_device_SMP[0-9]_*)))
 *(SORT_BY_NAME(SORT_BY_ALIGNMENT(.z_device_SMP[1-9][0-9]_*)))
                0x20008154                __device_end = .

initshell       0x20008154        0x0 load address 0x0003cd84
                0x20008154                __shell_module_start = .
 *(SORT_BY_ALIGNMENT(.shell_module_*))
                0x20008154                __shell_module_end = .
                0x20008154                __shell_cmd_start = .
 *(SORT_BY_ALIGNMENT(.shell_cmd_*))
                0x20008154                __shell_cmd_end = .

log_dynamic_sections
                0x20008154       0x30 load address 0x0003cd84
                0x20008154                __log_dynamic_start = .
 *(SORT_BY_NAME(SORT_BY_ALIGNMENT(.log_dynamic_*)))
 .log_dynamic_app
                0x20008154        0x4 app/libapp.a(main.c.obj)
                0x20008154                log_dynamic_app
 .log_dynamic_app_test
                0x20008158        0x4 app/libapp.a(test_module.c.obj)
                0x20008158                log_dynamic_app_test
 .log_dynamic_clock_control
                0x2000815c        0x4 zephyr/libzephyr.a(clock_control_nrf.c.obj)
                0x2000815c                log_dynamic_clock_control
 .log_dynamic_fatal_error
                0x20008160        0x4 modules/nrf/lib/fatal_error/lib..__nrf__lib__fatal_error.a(fatal_error.c.obj)
                0x20008160                log_dynamic_fatal_error
 .log_dynamic_log
                0x20008164        0x4 zephyr/libzephyr.a(log_core.c.obj)
                0x20008164                log_dynamic_log
 .log_dynamic_mpu
                0x20008168        0x4 zephyr/arch/arch/arm/core/aarch32/mpu/libarch__arm__core__aarch32__mpu.a(arm_core_mpu.c.obj)
                0x20008168                log_dynamic_mpu
 .log_dynamic_os
                0x2000816c        0x4 zephyr/kernel/libkernel.a(init.c.obj)
                0x2000816c                log_dynamic_os
 .log_dynamic_power
                0x20008170        0x4 zephyr/libzephyr.a(power.c.obj)
                0x20008170                log_dynamic_power
 .log_dynamic_shell_shell_uart
                0x20008174        0x4 zephyr/libzephyr.a(shell_uart.c.obj)
                0x20008174                log_dynamic_shell_shell_uart
 .log_dynamic_shell_uart
                0x20008178        0x4 zephyr/libzephyr.a(shell_uart.c.obj)
                0x20008178                log_dynamic_shell_uart
 .log_dynamic_soc
                0x2000817c        0x4 zephyr/libzephyr.a(soc.c.obj)
                0x2000817c                log_dynamic_soc
 .log_dynamic_uart_nrfx_uarte
                0x20008180        0x4 zephyr/drivers/serial/libdrivers__serial.a(uart_nrfx_uarte.c.obj)
                0x20008180                log_dynamic_uart_nrfx_uarte
                0x20008184                __log_dynamic_end = .

_static_thread_data_area
                0x20008184        0x0 load address 0x0003cdb4
                0x20008184                __static_thread_data_list_start = .
 *(SORT_BY_NAME(SORT_BY_ALIGNMENT(.__static_thread_data.static.*)))
                0x20008184                __static_thread_data_list_end = .

k_timer_area    0x20008188       0x38 load address 0x0003cdb8
                0x20008188                _k_timer_list_start = .
 *(SORT_BY_NAME(SORT_BY_ALIGNMENT(._k_timer.static.*)))
 ._k_timer.static.my_timer
                0x20008188       0x38 app/libapp.a(main.c.obj)
                0x20008188                my_timer
                0x200081c0                _k_timer_list_end = .

k_mem_slab_area
                0x200081c0        0x0 load address 0x0003cdf0
                0x200081c0                _k_mem_slab_list_start = .
 *(SORT_BY_NAME(SORT_BY_ALIGNMENT(._k_mem_slab.static.*)))
                0x200081c0                _k_mem_slab_list_end = .

k_mem_pool_area
                0x200081c0        0x0 load address 0x0003cdf0
                0x200081c0                _k_mem_pool_list_start = .
 *(SORT_BY_NAME(SORT_BY_ALIGNMENT(._k_mem_pool.static.*)))
                0x200081c0                _k_mem_pool_list_end = .

k_heap_area     0x200081c0        0x0 load address 0x0003cdf0
                0x200081c0                _k_heap_list_start = .
 *(SORT_BY_NAME(SORT_BY_ALIGNMENT(._k_heap.static.*)))
                0x200081c0                _k_heap_list_end = .

k_mutex_area    0x200081c0        0x0 load address 0x0003cdf0
                0x200081c0                _k_mutex_list_start = .
 *(SORT_BY_NAME(SORT_BY_ALIGNMENT(._k_mutex.static.*)))
                0x200081c0                _k_mutex_list_end = .

k_stack_area    0x200081c0        0x0 load address 0x0003cdf0
                0x200081c0                _k_stack_list_start = .
 *(SORT_BY_NAME(SORT_BY_ALIGNMENT(._k_stack.static.*)))
                0x200081c0                _k_stack_list_end = .

k_msgq_area     0x200081c0       0x30 load address 0x0003cdf0
                0x200081c0                _k_msgq_list_start = .
 *(SORT_BY_NAME(SORT_BY_ALIGNMENT(._k_msgq.static.*)))
 ._k_msgq.static.shell_uart_msgq
                0x200081c0       0x30 zephyr/libzephyr.a(shell_uart.c.obj)
                0x200081c0                shell_uart_msgq
                0x200081f0                _k_msgq_list_end = .

k_mbox_area     0x200081f0        0x0 load address 0x0003ce20
                0x200081f0                _k_mbox_list_start = .
 *(SORT_BY_NAME(SORT_BY_ALIGNMENT(._k_mbox.static.*)))
                0x200081f0                _k_mbox_list_end = .

k_pipe_area     0x200081f0        0x0 load address 0x0003ce20
                0x200081f0                _k_pipe_list_start = .
 *(SORT_BY_NAME(SORT_BY_ALIGNMENT(._k_pipe.static.*)))
                0x200081f0                _k_pipe_list_end = .

k_sem_area      0x200081f0       0x18 load address 0x0003ce20
                0x200081f0                _k_sem_list_start = .
 *(SORT_BY_NAME(SORT_BY_ALIGNMENT(._k_sem.static.*)))
 ._k_sem.static.log_process_thread_sem
                0x200081f0       0x18 zephyr/libzephyr.a(log_core.c.obj)
                0x200081f0                log_process_thread_sem
                0x20008208                _k_sem_list_end = .

k_queue_area    0x20008208        0x0 load address 0x0003ce38
                0x20008208                _k_queue_list_start = .
 *(SORT_BY_NAME(SORT_BY_ALIGNMENT(._k_queue.static.*)))
                0x20008208                _k_queue_list_end = .

k_condvar_area  0x20008208        0x0 load address 0x0003ce38
                0x20008208                _k_condvar_list_start = .
 *(SORT_BY_NAME(SORT_BY_ALIGNMENT(._k_condvar.static.*)))
                0x20008208                _k_condvar_list_end = .

_net_buf_pool_area
                0x20008208        0x0 load address 0x0003ce38
                0x20008208                _net_buf_pool_list = .
 *(SORT_BY_NAME(SORT_BY_ALIGNMENT(._net_buf_pool.static.*)))
                0x20008208                __data_ram_end = .

bss             0x20008208     0x1394
                0x20008208                . = ALIGN (0x4)
                0x20008208                __bss_start = .
                0x20008208                __kernel_ram_start = .
 *(SORT_BY_ALIGNMENT(.bss))
 *(SORT_BY_ALIGNMENT(.bss.*))
 .bss.hash      0x20008208      0x120 app/libapp.a(main.c.obj)
                0x20008208                hash
 .bss.pk2       0x20008328       0x60 app/libapp.a(main.c.obj)
                0x20008328                pk2
 .bss.sig2      0x20008388       0xc0 app/libapp.a(main.c.obj)
                0x20008388                sig2
 .bss.log_process_thread_timer
                0x20008448       0x38 zephyr/libzephyr.a(log_core.c.obj)
 .bss.logging_thread
                0x20008480       0xb8 zephyr/libzephyr.a(log_core.c.obj)
                0x20008480                logging_thread
 .bss.shell_uart_thread
                0x20008538       0xb8 zephyr/libzephyr.a(shell_uart.c.obj)
 .bss.hf_start_tstamp
                0x200085f0        0x8 zephyr/libzephyr.a(clock_control_nrf.c.obj)
 .bss.hf_stop_tstamp
                0x200085f8        0x8 zephyr/libzephyr.a(clock_control_nrf.c.obj)
 .bss.rt_clock_base
                0x20008600       0x10 zephyr/lib/posix/liblib__posix.a(clock.c.obj)
 .bss.z_idle_threads
                0x20008610       0xb8 zephyr/kernel/libkernel.a(init.c.obj)
                0x20008610                z_idle_threads
 .bss.z_main_thread
                0x200086c8       0xb8 zephyr/kernel/libkernel.a(init.c.obj)
                0x200086c8                z_main_thread
 .bss.curr_tick
                0x20008780        0x8 zephyr/kernel/libkernel.a(timeout.c.obj)
 .bss.k_sys_work_q
                0x20008788       0xd8 zephyr/kernel/libkernel.a(system_work_q.c.obj)
                0x20008788                k_sys_work_q
 .bss.keys_counter
                0x20008860        0x4 app/libapp.a(main.c.obj)
                0x20008860                keys_counter
 .bss.buffered_cnt
                0x20008864        0x4 zephyr/libzephyr.a(log_core.c.obj)
 .bss.dropped_cnt
                0x20008868        0x4 zephyr/libzephyr.a(log_core.c.obj)
 .bss.initialized
                0x2000886c        0x4 zephyr/libzephyr.a(log_core.c.obj)
 .bss.list      0x20008870        0x8 zephyr/libzephyr.a(log_core.c.obj)
 .bss.log_strdup_pool
                0x20008878       0x1c zephyr/libzephyr.a(log_core.c.obj)
                0x20008878                log_strdup_pool
 .bss.proc_tid  0x20008894        0x4 zephyr/libzephyr.a(log_core.c.obj)
 .bss.log_msg_pool
                0x20008898       0x1c zephyr/libzephyr.a(log_msg.c.obj)
                0x20008898                log_msg_pool
 .bss.freq      0x200088b4        0x4 zephyr/libzephyr.a(log_output.c.obj)
 .bss.timestamp_div
                0x200088b8        0x4 zephyr/libzephyr.a(log_output.c.obj)
 .bss.backend_cb_shell_uart_backend
                0x200088bc        0x8 zephyr/libzephyr.a(shell_uart.c.obj)
 .bss.shell_transport_uart_ctrl_blk
                0x200088c4       0x14 zephyr/libzephyr.a(shell_uart.c.obj)
 .bss.shell_uart_control_block
                0x200088d8        0x8 zephyr/libzephyr.a(shell_uart.c.obj)
 .bss.shell_uart_ctx
                0x200088e0      0x308 zephyr/libzephyr.a(shell_uart.c.obj)
 .bss.shell_uart_log_output_control_block
                0x20008be8        0xc zephyr/libzephyr.a(shell_uart.c.obj)
 .bss.shell_uart_stats
                0x20008bf4        0x4 zephyr/libzephyr.a(shell_uart.c.obj)
 .bss.pm_notifiers
                0x20008bf8        0x8 zephyr/libzephyr.a(power.c.obj)
 .bss.z_power_state
                0x20008c00        0xc zephyr/libzephyr.a(power.c.obj)
 .bss.uart_console_dev
                0x20008c0c        0x4 zephyr/libzephyr.a(uart_console.c.obj)
 .bss.__devstate_dts_ord_36
                0x20008c10        0x4 zephyr/libzephyr.a(clock_control_nrf.c.obj)
 .bss.cli.11788
                0x20008c14       0x10 zephyr/libzephyr.a(clock_control_nrf.c.obj)
 .bss.data      0x20008c24       0xa0 zephyr/libzephyr.a(clock_control_nrf.c.obj)
 .bss.hfclk_users
                0x20008cc4        0x4 zephyr/libzephyr.a(clock_control_nrf.c.obj)
 .bss.on.11787  0x20008cc8        0x4 zephyr/libzephyr.a(clock_control_nrf.c.obj)
 .bss.__devstate_sys_init_sys_clock_driver_init0
                0x20008ccc        0x4 zephyr/libzephyr.a(sys_clock_init.c.obj)
 .bss.cc_data   0x20008cd0        0x8 zephyr/libzephyr.a(nrf_rtc_timer.c.obj)
 .bss.int_mask  0x20008cd8        0x4 zephyr/libzephyr.a(nrf_rtc_timer.c.obj)
 .bss.last_count
                0x20008cdc        0x4 zephyr/libzephyr.a(nrf_rtc_timer.c.obj)
 .bss.context_buffer
                0x20008ce0       0x88 zephyr/libzephyr.a(secure_services_ns.c.obj)
 .bss.dyn_reg_info
                0x20008d68       0x14 zephyr/arch/arch/arm/core/aarch32/mpu/libarch__arm__core__aarch32__mpu.a(arm_mpu.c.obj)
 .bss.__devstate_dts_ord_63
                0x20008d7c        0x4 zephyr/drivers/gpio/libdrivers__gpio.a(gpio_nrfx.c.obj)
 .bss.__devstate_dts_ord_8
                0x20008d80        0x4 zephyr/drivers/gpio/libdrivers__gpio.a(gpio_nrfx.c.obj)
 .bss.gpio_nrfx_p0_data
                0x20008d84       0x1c zephyr/drivers/gpio/libdrivers__gpio.a(gpio_nrfx.c.obj)
 .bss.gpio_nrfx_p1_data
                0x20008da0       0x1c zephyr/drivers/gpio/libdrivers__gpio.a(gpio_nrfx.c.obj)
 .bss.__devstate_dts_ord_70
                0x20008dbc        0x4 zephyr/drivers/serial/libdrivers__serial.a(uart_nrfx_uarte.c.obj)
 .bss.__devstate_dts_ord_30
                0x20008dc0        0x4 zephyr/drivers/entropy/libdrivers__entropy.a(entropy_cc310.c.obj)
 .bss.m_clock_cb
                0x20008dc4        0x8 modules/hal_nordic/nrfx/libmodules__hal_nordic__nrfx.a(nrfx_clock.c.obj)
 .bss.m_allocated_channels
                0x20008dcc        0x4 modules/hal_nordic/nrfx/libmodules__hal_nordic__nrfx.a(nrfx_dppi.c.obj)
 .bss.m_cb      0x20008dd0       0x60 modules/hal_nordic/nrfx/libmodules__hal_nordic__nrfx.a(nrfx_gpiote.c.obj)
 .bss._kernel   0x20008e30       0x34 zephyr/kernel/libkernel.a(init.c.obj)
                0x20008e30                _kernel
 .bss.pending_current
                0x20008e64        0x4 zephyr/kernel/libkernel.a(sched.c.obj)
 .bss.slice_max_prio
                0x20008e68        0x4 zephyr/kernel/libkernel.a(sched.c.obj)
 .bss.slice_time
                0x20008e6c        0x4 zephyr/kernel/libkernel.a(sched.c.obj)
 .bss.announce_remaining
                0x20008e70        0x4 zephyr/kernel/libkernel.a(timeout.c.obj)
 .bss.pending_cancels
                0x20008e74        0x8 zephyr/kernel/libkernel.a(work.c.obj)
 .bss.msg_bin   0x20008e7c       0x20 app/libapp.a(main.c.obj)
                0x20008e7c                msg_bin
 .bss.public_keys_hex_store
                0x20008e9c      0x3c0 app/libapp.a(main.c.obj)
                0x20008e9c                public_keys_hex_store
 .bss.sk        0x2000925c       0x20 app/libapp.a(main.c.obj)
                0x2000925c                sk
 .bss.dynamic_cmd_buffer
                0x2000927c      0x294 app/libapp.a(dynamic_cmd.c.obj)
 .bss.dynamic_cmd_cnt
                0x20009510        0x1 app/libapp.a(dynamic_cmd.c.obj)
 .bss.backend_attached
                0x20009511        0x1 zephyr/libzephyr.a(log_core.c.obj)
 .bss.panic_mode
                0x20009512        0x1 zephyr/libzephyr.a(log_core.c.obj)
 .bss._ring_buffer_data_shell_transport_uart_rx_ringbuf
                0x20009513       0x40 zephyr/libzephyr.a(shell_uart.c.obj)
 .bss._ring_buffer_data_shell_transport_uart_tx_ringbuf
                0x20009553        0x8 zephyr/libzephyr.a(shell_uart.c.obj)
 .bss.shell_uart_out_buffer
                0x2000955b       0x1e zephyr/libzephyr.a(shell_uart.c.obj)
 .bss.static_regions_num
                0x20009579        0x1 zephyr/arch/arch/arm/core/aarch32/mpu/libarch__arm__core__aarch32__mpu.a(arm_mpu.c.obj)
 .bss.gpio_initialized.10785
                0x2000957a        0x1 zephyr/drivers/gpio/libdrivers__gpio.a(gpio_nrfx.c.obj)
 .bss.uarte0_tx_buffer
                0x2000957b       0x20 zephyr/drivers/serial/libdrivers__serial.a(uart_nrfx_uarte.c.obj)
 .bss.z_sys_post_kernel
                0x2000959b        0x1 zephyr/kernel/libkernel.a(init.c.obj)
                0x2000959b                z_sys_post_kernel
 .bss.lock      0x2000959c        0x0 zephyr/kernel/libkernel.a(mutex.c.obj)
 .bss.lock      0x2000959c        0x0 zephyr/kernel/libkernel.a(sem.c.obj)
 .bss.sched_spinlock
                0x2000959c        0x0 zephyr/kernel/libkernel.a(sched.c.obj)
                0x2000959c                sched_spinlock
 .bss.lock      0x2000959c        0x0 zephyr/kernel/libkernel.a(poll.c.obj)
 .bss.lock      0x2000959c        0x0 zephyr/kernel/libkernel.a(work.c.obj)
 *(SORT_BY_ALIGNMENT(COMMON))
 *(SORT_BY_ALIGNMENT(.kernel_bss.*))
                0x2000959c                __bss_end = ALIGN (0x4)

noinit          0x200095a0     0xdb30
 *(SORT_BY_ALIGNMENT(.noinit))
 *(SORT_BY_ALIGNMENT(.noinit.*))
 .noinit."WEST_TOPDIR/zephyr/subsys/logging/log_core.c".1
                0x200095a0      0x300 zephyr/libzephyr.a(log_core.c.obj)
                0x200095a0                logging_stack
 .noinit."WEST_TOPDIR/zephyr/subsys/shell/shell_uart.c".2
                0x200098a0     0xc000 zephyr/libzephyr.a(shell_uart.c.obj)
 .noinit."WEST_TOPDIR/zephyr/kernel/init.c".2
                0x200158a0      0x400 zephyr/kernel/libkernel.a(init.c.obj)
                0x200158a0                z_main_stack
 .noinit."WEST_TOPDIR/zephyr/kernel/init.c".3
                0x20015ca0      0x140 zephyr/kernel/libkernel.a(init.c.obj)
 .noinit."WEST_TOPDIR/zephyr/kernel/init.c".4
                0x20015de0      0x800 zephyr/kernel/libkernel.a(init.c.obj)
                0x20015de0                z_interrupt_stacks
 .noinit."WEST_TOPDIR/zephyr/kernel/system_work_q.c".0
                0x200165e0      0x400 zephyr/kernel/libkernel.a(system_work_q.c.obj)
 .noinit."WEST_TOPDIR/zephyr/subsys/logging/log_core.c".0
                0x200169e0       0xa0 zephyr/libzephyr.a(log_core.c.obj)
 .noinit."WEST_TOPDIR/zephyr/subsys/logging/log_msg.c".0
                0x20016a80      0x400 zephyr/libzephyr.a(log_msg.c.obj)
 .noinit."WEST_TOPDIR/zephyr/subsys/shell/shell_uart.c".0
                0x20016e80       0x50 zephyr/libzephyr.a(shell_uart.c.obj)
 .noinit."WEST_TOPDIR/zephyr/subsys/shell/shell_uart.c".1
                0x20016ed0      0x200 zephyr/libzephyr.a(shell_uart.c.obj)
 *(SORT_BY_ALIGNMENT(.kernel_noinit.*))
                0x200170d0                _image_ram_end = .
                0x200170d0                _end = .
                0x20080000                __kernel_ram_end = 0x20080000
                0x00077df8                __kernel_ram_size = (__kernel_ram_end - __kernel_ram_start)

.stab
 *(SORT_BY_ALIGNMENT(.stab))

.stabstr
 *(SORT_BY_ALIGNMENT(.stabstr))

.stab.excl
 *(SORT_BY_ALIGNMENT(.stab.excl))

.stab.exclstr
 *(SORT_BY_ALIGNMENT(.stab.exclstr))

.stab.index
 *(SORT_BY_ALIGNMENT(.stab.index))

.stab.indexstr
 *(SORT_BY_ALIGNMENT(.stab.indexstr))

.gnu.build.attributes
 *(SORT_BY_ALIGNMENT(.gnu.build.attributes) SORT_BY_ALIGNMENT(.gnu.build.attributes.*))

.comment        0x00000000       0xc6
 *(SORT_BY_ALIGNMENT(.comment))
 .comment       0x00000000       0x79 zephyr/CMakeFiles/zephyr_final.dir/isr_tables.c.obj
                                 0x7a (size before relaxing)
 .comment       0x00000079       0x7a zephyr/CMakeFiles/zephyr_final.dir/dev_handles.c.obj
 .comment       0x00000079       0x7a app/libapp.a(main.c.obj)
 .comment       0x00000079       0x7a app/libapp.a(test_module.c.obj)
 .comment       0x00000079       0x7a app/libapp.a(dynamic_cmd.c.obj)
 .comment       0x00000079       0x7a app/libapp.a(qsort.c.obj)
 .comment       0x00000079       0x7a zephyr/libzephyr.a(hex.c.obj)
 .comment       0x00000079       0x7a zephyr/libzephyr.a(notify.c.obj)
 .comment       0x00000079       0x7a zephyr/libzephyr.a(printk.c.obj)
 .comment       0x00000079       0x7a zephyr/libzephyr.a(onoff.c.obj)
 .comment       0x00000079       0x7a zephyr/libzephyr.a(thread_entry.c.obj)
 .comment       0x00000079       0x7a zephyr/libzephyr.a(timeutil.c.obj)
 .comment       0x00000079       0x7a zephyr/libzephyr.a(heap.c.obj)
 .comment       0x00000079       0x7a zephyr/libzephyr.a(cbprintf_complete.c.obj)
 .comment       0x00000079       0x7a zephyr/libzephyr.a(ring_buffer.c.obj)
 .comment       0x00000079       0x7a zephyr/libzephyr.a(reboot.c.obj)
 .comment       0x00000079       0x7a zephyr/libzephyr.a(fnmatch.c.obj)
 .comment       0x00000079       0x7a zephyr/libzephyr.a(configs.c.obj)
 .comment       0x00000079       0x7a zephyr/libzephyr.a(soc.c.obj)
 .comment       0x00000079       0x7a zephyr/libzephyr.a(power.c.obj)
 .comment       0x00000079       0x7a zephyr/libzephyr.a(log_list.c.obj)
 .comment       0x00000079       0x7a zephyr/libzephyr.a(log_core.c.obj)
 .comment       0x00000079       0x7a zephyr/libzephyr.a(log_msg.c.obj)
 .comment       0x00000079       0x7a zephyr/libzephyr.a(log_output.c.obj)
 .comment       0x00000079       0x7a zephyr/libzephyr.a(log_cmds.c.obj)
 .comment       0x00000079       0x7a zephyr/libzephyr.a(kernel_service.c.obj)
 .comment       0x00000079       0x7a zephyr/libzephyr.a(device_service.c.obj)
 .comment       0x00000079       0x7a zephyr/libzephyr.a(date_service.c.obj)
 .comment       0x00000079       0x7a zephyr/libzephyr.a(shell.c.obj)
 .comment       0x00000079       0x7a zephyr/libzephyr.a(shell_fprintf.c.obj)
 .comment       0x00000079       0x7a zephyr/libzephyr.a(shell_utils.c.obj)
 .comment       0x00000079       0x7a zephyr/libzephyr.a(shell_ops.c.obj)
 .comment       0x00000079       0x7a zephyr/libzephyr.a(shell_uart.c.obj)
 .comment       0x00000079       0x7a zephyr/libzephyr.a(shell_help.c.obj)
 .comment       0x00000079       0x7a zephyr/libzephyr.a(shell_cmds.c.obj)
 .comment       0x00000079       0x7a zephyr/libzephyr.a(shell_history.c.obj)
 .comment       0x00000079       0x7a zephyr/libzephyr.a(shell_log_backend.c.obj)
 .comment       0x00000079       0x7a zephyr/libzephyr.a(shell_wildcard.c.obj)
 .comment       0x00000079       0x7a zephyr/libzephyr.a(power.c.obj)
 .comment       0x00000079       0x7a zephyr/libzephyr.a(policy_residency.c.obj)
 .comment       0x00000079       0x7a zephyr/libzephyr.a(uart_console.c.obj)
 .comment       0x00000079       0x7a zephyr/libzephyr.a(clock_control_nrf.c.obj)
 .comment       0x00000079       0x7a zephyr/libzephyr.a(sys_clock_init.c.obj)
 .comment       0x00000079       0x7a zephyr/libzephyr.a(nrf_rtc_timer.c.obj)
 .comment       0x00000079       0x7a zephyr/libzephyr.a(secure_services_ns.c.obj)
 .comment       0x00000079       0x7a zephyr/arch/arch/arm/core/aarch32/libarch__arm__core__aarch32.a(swap.c.obj)
 .comment       0x00000079       0x7a zephyr/arch/arch/arm/core/aarch32/libarch__arm__core__aarch32.a(irq_manage.c.obj)
 .comment       0x00000079       0x7a zephyr/arch/arch/arm/core/aarch32/libarch__arm__core__aarch32.a(thread.c.obj)
 .comment       0x00000079       0x7a zephyr/arch/arch/arm/core/aarch32/libarch__arm__core__aarch32.a(fatal.c.obj)
 .comment       0x00000079       0x7a zephyr/arch/arch/arm/core/aarch32/libarch__arm__core__aarch32.a(nmi.c.obj)
 .comment       0x00000079       0x7a zephyr/arch/arch/arm/core/aarch32/libarch__arm__core__aarch32.a(prep_c.c.obj)
 .comment       0x00000079       0x7a zephyr/arch/arch/arm/core/aarch32/cortex_m/libarch__arm__core__aarch32__cortex_m.a(fault.c.obj)
 .comment       0x00000079       0x7a zephyr/arch/arch/arm/core/aarch32/cortex_m/libarch__arm__core__aarch32__cortex_m.a(fpu.c.obj)
 .comment       0x00000079       0x7a zephyr/arch/arch/arm/core/aarch32/cortex_m/libarch__arm__core__aarch32__cortex_m.a(scb.c.obj)
 .comment       0x00000079       0x7a zephyr/arch/arch/arm/core/aarch32/cortex_m/libarch__arm__core__aarch32__cortex_m.a(irq_init.c.obj)
 .comment       0x00000079       0x7a zephyr/arch/arch/arm/core/aarch32/cortex_m/libarch__arm__core__aarch32__cortex_m.a(thread_abort.c.obj)
 .comment       0x00000079       0x7a zephyr/arch/arch/arm/core/aarch32/cortex_m/cmse/libarch__arm__core__aarch32__cortex_m__cmse.a(arm_core_cmse.c.obj)
 .comment       0x00000079       0x7a zephyr/arch/arch/arm/core/aarch32/mpu/libarch__arm__core__aarch32__mpu.a(arm_core_mpu.c.obj)
 .comment       0x00000079       0x7a zephyr/arch/arch/arm/core/aarch32/mpu/libarch__arm__core__aarch32__mpu.a(arm_mpu.c.obj)
 .comment       0x00000079       0x7a zephyr/lib/libc/minimal/liblib__libc__minimal.a(strtol.c.obj)
 .comment       0x00000079       0x7a zephyr/lib/libc/minimal/liblib__libc__minimal.a(strstr.c.obj)
 .comment       0x00000079       0x7a zephyr/lib/libc/minimal/liblib__libc__minimal.a(string.c.obj)
 .comment       0x00000079       0x7a zephyr/lib/libc/minimal/liblib__libc__minimal.a(stdout_console.c.obj)
 .comment       0x00000079       0x7a zephyr/lib/libc/minimal/liblib__libc__minimal.a(sprintf.c.obj)
 .comment       0x00000079       0x7a zephyr/lib/libc/minimal/liblib__libc__minimal.a(fprintf.c.obj)
 .comment       0x00000079       0x7a zephyr/lib/libc/minimal/liblib__libc__minimal.a(gmtime.c.obj)
 .comment       0x00000079       0x7a zephyr/lib/posix/liblib__posix.a(clock.c.obj)
 .comment       0x00000079       0x7a zephyr/soc/arm/common/cortex_m/libsoc__arm__common__cortex_m.a(arm_mpu_regions.c.obj)
 .comment       0x00000079       0x7a zephyr/drivers/gpio/libdrivers__gpio.a(gpio_nrfx.c.obj)
 .comment       0x00000079       0x7a zephyr/drivers/serial/libdrivers__serial.a(uart_nrfx_uarte.c.obj)
 .comment       0x00000079       0x7a zephyr/drivers/entropy/libdrivers__entropy.a(entropy_cc310.c.obj)
 .comment       0x00000079       0x7a modules/nrf/lib/fatal_error/lib..__nrf__lib__fatal_error.a(fatal_error.c.obj)
 .comment       0x00000079       0x7a modules/nrf/subsys/fw_info/lib..__nrf__subsys__fw_info.a(fw_info.c.obj)
 .comment       0x00000079       0x7a modules/hal_nordic/nrfx/libmodules__hal_nordic__nrfx.a(system_nrf5340_application.c.obj)
 .comment       0x00000079       0x7a modules/hal_nordic/nrfx/libmodules__hal_nordic__nrfx.a(nrfx_glue.c.obj)
 .comment       0x00000079       0x7a modules/hal_nordic/nrfx/libmodules__hal_nordic__nrfx.a(nrfx_clock.c.obj)
 .comment       0x00000079       0x7a modules/hal_nordic/nrfx/libmodules__hal_nordic__nrfx.a(nrfx_dppi.c.obj)
 .comment       0x00000079       0x7a modules/hal_nordic/nrfx/libmodules__hal_nordic__nrfx.a(nrfx_gpiote.c.obj)
 .comment       0x00000079       0x7a zephyr/kernel/libkernel.a(device.c.obj)
 .comment       0x00000079       0x7a zephyr/kernel/libkernel.a(errno.c.obj)
 .comment       0x00000079       0x7a zephyr/kernel/libkernel.a(fatal.c.obj)
 .comment       0x00000079       0x7a zephyr/kernel/libkernel.a(init.c.obj)
 .comment       0x00000079       0x7a zephyr/kernel/libkernel.a(mem_slab.c.obj)
 .comment       0x00000079       0x7a zephyr/kernel/libkernel.a(thread.c.obj)
 .comment       0x00000079       0x7a zephyr/kernel/libkernel.a(version.c.obj)
 .comment       0x00000079       0x7a zephyr/kernel/libkernel.a(idle.c.obj)
 .comment       0x00000079       0x7a zephyr/kernel/libkernel.a(msg_q.c.obj)
 .comment       0x00000079       0x7a zephyr/kernel/libkernel.a(mutex.c.obj)
 .comment       0x00000079       0x7a zephyr/kernel/libkernel.a(sem.c.obj)
 .comment       0x00000079       0x7a zephyr/kernel/libkernel.a(sched.c.obj)
 .comment       0x00000079       0x7a zephyr/kernel/libkernel.a(xip.c.obj)
 .comment       0x00000079       0x7a zephyr/kernel/libkernel.a(timeout.c.obj)
 .comment       0x00000079       0x7a zephyr/kernel/libkernel.a(timer.c.obj)
 .comment       0x00000079       0x7a zephyr/kernel/libkernel.a(poll.c.obj)
 .comment       0x00000079       0x7a zephyr/kernel/libkernel.a(banner.c.obj)
 .comment       0x00000079       0x7a zephyr/kernel/libkernel.a(kheap.c.obj)
 .comment       0x00000079       0x7a zephyr/kernel/libkernel.a(system_work_q.c.obj)
 .comment       0x00000079       0x7a zephyr/kernel/libkernel.a(work.c.obj)
 .comment       0x00000079       0x7a zephyr/CMakeFiles/offsets.dir/./arch/arm/core/offsets/offsets.c.obj
 .comment       0x00000079       0x4d ../mylib/src/libblst.a(server.o)
                                 0x4e (size before relaxing)

.debug
 *(SORT_BY_ALIGNMENT(.debug))

.line
 *(SORT_BY_ALIGNMENT(.line))

.debug_srcinfo
 *(SORT_BY_ALIGNMENT(.debug_srcinfo))

.debug_sfnames
 *(SORT_BY_ALIGNMENT(.debug_sfnames))

.debug_aranges  0x00000000     0x23d8
 *(SORT_BY_ALIGNMENT(.debug_aranges))
 .debug_aranges
                0x00000000       0x28 zephyr/arch/arch/arm/core/aarch32/libarch__arm__core__aarch32.a(swap_helper.S.obj)
 .debug_aranges
                0x00000028       0x30 zephyr/arch/arch/arm/core/aarch32/libarch__arm__core__aarch32.a(cpu_idle.S.obj)
 .debug_aranges
                0x00000058       0x20 zephyr/arch/arch/arm/core/aarch32/libarch__arm__core__aarch32.a(nmi_on_reset.S.obj)
 .debug_aranges
                0x00000078       0x20 zephyr/arch/arch/arm/core/aarch32/libarch__arm__core__aarch32.a(isr_wrapper.S.obj)
 .debug_aranges
                0x00000098       0x20 zephyr/arch/arch/arm/core/aarch32/cortex_m/libarch__arm__core__aarch32__cortex_m.a(reset.S.obj)
 .debug_aranges
                0x000000b8       0x20 zephyr/arch/arch/arm/core/aarch32/cortex_m/libarch__arm__core__aarch32__cortex_m.a(fault_s.S.obj)
 .debug_aranges
                0x000000d8       0x20 zephyr/arch/arch/arm/core/aarch32/cortex_m/libarch__arm__core__aarch32__cortex_m.a(exc_exit.S.obj)
 .debug_aranges
                0x000000f8       0x18 zephyr/CMakeFiles/zephyr_final.dir/isr_tables.c.obj
 .debug_aranges
                0x00000110       0x18 zephyr/CMakeFiles/zephyr_final.dir/dev_handles.c.obj
 .debug_aranges
                0x00000128       0x58 app/libapp.a(main.c.obj)
 .debug_aranges
                0x00000180       0x20 app/libapp.a(test_module.c.obj)
 .debug_aranges
                0x000001a0       0x48 app/libapp.a(dynamic_cmd.c.obj)
 .debug_aranges
                0x000001e8       0x30 app/libapp.a(qsort.c.obj)
 .debug_aranges
                0x00000218       0x38 zephyr/libzephyr.a(hex.c.obj)
 .debug_aranges
                0x00000250       0x28 zephyr/libzephyr.a(notify.c.obj)
 .debug_aranges
                0x00000278       0x68 zephyr/libzephyr.a(printk.c.obj)
 .debug_aranges
                0x000002e0       0x88 zephyr/libzephyr.a(onoff.c.obj)
 .debug_aranges
                0x00000368       0x20 zephyr/libzephyr.a(thread_entry.c.obj)
 .debug_aranges
                0x00000388       0x58 zephyr/libzephyr.a(timeutil.c.obj)
 .debug_aranges
                0x000003e0       0xa8 zephyr/libzephyr.a(heap.c.obj)
 .debug_aranges
                0x00000488       0x30 zephyr/libzephyr.a(cbprintf_complete.c.obj)
 .debug_aranges
                0x000004b8       0x60 zephyr/libzephyr.a(ring_buffer.c.obj)
 .debug_aranges
                0x00000518       0x20 zephyr/libzephyr.a(reboot.c.obj)
 .debug_aranges
                0x00000538       0x30 zephyr/libzephyr.a(fnmatch.c.obj)
 .debug_aranges
                0x00000568       0x20 zephyr/libzephyr.a(configs.c.obj)
 .debug_aranges
                0x00000588       0x30 zephyr/libzephyr.a(soc.c.obj)
 .debug_aranges
                0x000005b8       0x28 zephyr/libzephyr.a(power.c.obj)
 .debug_aranges
                0x000005e0       0x38 zephyr/libzephyr.a(log_list.c.obj)
 .debug_aranges
                0x00000618      0x1d8 zephyr/libzephyr.a(log_core.c.obj)
 .debug_aranges
                0x000007f0       0x88 zephyr/libzephyr.a(log_msg.c.obj)
 .debug_aranges
                0x00000878       0x98 zephyr/libzephyr.a(log_output.c.obj)
 .debug_aranges
                0x00000910       0xc8 zephyr/libzephyr.a(log_cmds.c.obj)
 .debug_aranges
                0x000009d8       0x60 zephyr/libzephyr.a(kernel_service.c.obj)
 .debug_aranges
                0x00000a38       0x40 zephyr/libzephyr.a(device_service.c.obj)
 .debug_aranges
                0x00000a78       0x38 zephyr/libzephyr.a(date_service.c.obj)
 .debug_aranges
                0x00000ab0      0x150 zephyr/libzephyr.a(shell.c.obj)
 .debug_aranges
                0x00000c00       0x30 zephyr/libzephyr.a(shell_fprintf.c.obj)
 .debug_aranges
                0x00000c30       0x88 zephyr/libzephyr.a(shell_utils.c.obj)
 .debug_aranges
                0x00000cb8      0x110 zephyr/libzephyr.a(shell_ops.c.obj)
 .debug_aranges
                0x00000dc8       0x68 zephyr/libzephyr.a(shell_uart.c.obj)
 .debug_aranges
                0x00000e30       0x40 zephyr/libzephyr.a(shell_help.c.obj)
 .debug_aranges
                0x00000e70       0x88 zephyr/libzephyr.a(shell_cmds.c.obj)
 .debug_aranges
                0x00000ef8       0x48 zephyr/libzephyr.a(shell_history.c.obj)
 .debug_aranges
                0x00000f40       0x58 zephyr/libzephyr.a(shell_log_backend.c.obj)
 .debug_aranges
                0x00000f98       0x38 zephyr/libzephyr.a(shell_wildcard.c.obj)
 .debug_aranges
                0x00000fd0       0x60 zephyr/libzephyr.a(power.c.obj)
 .debug_aranges
                0x00001030       0x20 zephyr/libzephyr.a(policy_residency.c.obj)
 .debug_aranges
                0x00001050       0x28 zephyr/libzephyr.a(uart_console.c.obj)
 .debug_aranges
                0x00001078      0x100 zephyr/libzephyr.a(clock_control_nrf.c.obj)
 .debug_aranges
                0x00001178       0x40 zephyr/libzephyr.a(sys_clock_init.c.obj)
 .debug_aranges
                0x000011b8       0x98 zephyr/libzephyr.a(nrf_rtc_timer.c.obj)
 .debug_aranges
                0x00001250       0x40 zephyr/libzephyr.a(secure_services_ns.c.obj)
 .debug_aranges
                0x00001290       0x20 zephyr/arch/arch/arm/core/aarch32/libarch__arm__core__aarch32.a(swap.c.obj)
 .debug_aranges
                0x000012b0       0x48 zephyr/arch/arch/arm/core/aarch32/libarch__arm__core__aarch32.a(irq_manage.c.obj)
 .debug_aranges
                0x000012f8       0x30 zephyr/arch/arch/arm/core/aarch32/libarch__arm__core__aarch32.a(thread.c.obj)
 .debug_aranges
                0x00001328       0x30 zephyr/arch/arch/arm/core/aarch32/libarch__arm__core__aarch32.a(fatal.c.obj)
 .debug_aranges
                0x00001358       0x20 zephyr/arch/arch/arm/core/aarch32/libarch__arm__core__aarch32.a(nmi.c.obj)
 .debug_aranges
                0x00001378       0x20 zephyr/arch/arch/arm/core/aarch32/libarch__arm__core__aarch32.a(prep_c.c.obj)
 .debug_aranges
                0x00001398       0x40 zephyr/arch/arch/arm/core/aarch32/cortex_m/libarch__arm__core__aarch32__cortex_m.a(fault.c.obj)
 .debug_aranges
                0x000013d8       0x20 zephyr/arch/arch/arm/core/aarch32/cortex_m/libarch__arm__core__aarch32__cortex_m.a(fpu.c.obj)
 .debug_aranges
                0x000013f8       0x28 zephyr/arch/arch/arm/core/aarch32/cortex_m/libarch__arm__core__aarch32__cortex_m.a(scb.c.obj)
 .debug_aranges
                0x00001420       0x20 zephyr/arch/arch/arm/core/aarch32/cortex_m/libarch__arm__core__aarch32__cortex_m.a(irq_init.c.obj)
 .debug_aranges
                0x00001440       0x20 zephyr/arch/arch/arm/core/aarch32/cortex_m/libarch__arm__core__aarch32__cortex_m.a(thread_abort.c.obj)
 .debug_aranges
                0x00001460       0x40 zephyr/arch/arch/arm/core/aarch32/cortex_m/cmse/libarch__arm__core__aarch32__cortex_m__cmse.a(arm_core_cmse.c.obj)
 .debug_aranges
                0x000014a0       0x28 zephyr/arch/arch/arm/core/aarch32/mpu/libarch__arm__core__aarch32__mpu.a(arm_core_mpu.c.obj)
 .debug_aranges
                0x000014c8       0x68 zephyr/arch/arch/arm/core/aarch32/mpu/libarch__arm__core__aarch32__mpu.a(arm_mpu.c.obj)
 .debug_aranges
                0x00001530       0x20 zephyr/lib/libc/minimal/liblib__libc__minimal.a(strtol.c.obj)
 .debug_aranges
                0x00001550       0x20 zephyr/lib/libc/minimal/liblib__libc__minimal.a(strstr.c.obj)
 .debug_aranges
                0x00001570       0x98 zephyr/lib/libc/minimal/liblib__libc__minimal.a(string.c.obj)
 .debug_aranges
                0x00001608       0x58 zephyr/lib/libc/minimal/liblib__libc__minimal.a(stdout_console.c.obj)
 .debug_aranges
                0x00001660       0x40 zephyr/lib/libc/minimal/liblib__libc__minimal.a(sprintf.c.obj)
 .debug_aranges
                0x000016a0       0x38 zephyr/lib/libc/minimal/liblib__libc__minimal.a(fprintf.c.obj)
 .debug_aranges
                0x000016d8       0x28 zephyr/lib/libc/minimal/liblib__libc__minimal.a(gmtime.c.obj)
 .debug_aranges
                0x00001700       0x30 zephyr/lib/posix/liblib__posix.a(clock.c.obj)
 .debug_aranges
                0x00001730       0x18 zephyr/soc/arm/common/cortex_m/libsoc__arm__common__cortex_m.a(arm_mpu_regions.c.obj)
 .debug_aranges
                0x00001748       0x88 zephyr/drivers/gpio/libdrivers__gpio.a(gpio_nrfx.c.obj)
 .debug_aranges
                0x000017d0       0xe0 zephyr/drivers/serial/libdrivers__serial.a(uart_nrfx_uarte.c.obj)
 .debug_aranges
                0x000018b0       0x28 zephyr/drivers/entropy/libdrivers__entropy.a(entropy_cc310.c.obj)
 .debug_aranges
                0x000018d8       0x20 modules/nrf/lib/fatal_error/lib..__nrf__lib__fatal_error.a(fatal_error.c.obj)
 .debug_aranges
                0x000018f8       0x30 modules/nrf/subsys/fw_info/lib..__nrf__subsys__fw_info.a(fw_info.c.obj)
 .debug_aranges
                0x00001928       0x28 modules/hal_nordic/nrfx/libmodules__hal_nordic__nrfx.a(system_nrf5340_application.c.obj)
 .debug_aranges
                0x00001950       0x30 modules/hal_nordic/nrfx/libmodules__hal_nordic__nrfx.a(nrfx_glue.c.obj)
 .debug_aranges
                0x00001980       0x70 modules/hal_nordic/nrfx/libmodules__hal_nordic__nrfx.a(nrfx_clock.c.obj)
 .debug_aranges
                0x000019f0       0x78 modules/hal_nordic/nrfx/libmodules__hal_nordic__nrfx.a(nrfx_dppi.c.obj)
 .debug_aranges
                0x00001a68      0x150 modules/hal_nordic/nrfx/libmodules__hal_nordic__nrfx.a(nrfx_gpiote.c.obj)
 .debug_aranges
                0x00001bb8       0x50 zephyr/kernel/libkernel.a(device.c.obj)
 .debug_aranges
                0x00001c08       0x20 zephyr/kernel/libkernel.a(errno.c.obj)
 .debug_aranges
                0x00001c28       0x58 zephyr/kernel/libkernel.a(fatal.c.obj)
 .debug_aranges
                0x00001c80       0x40 zephyr/kernel/libkernel.a(init.c.obj)
 .debug_aranges
                0x00001cc0       0x38 zephyr/kernel/libkernel.a(mem_slab.c.obj)
 .debug_aranges
                0x00001cf8       0xb8 zephyr/kernel/libkernel.a(thread.c.obj)
 .debug_aranges
                0x00001db0       0x20 zephyr/kernel/libkernel.a(version.c.obj)
 .debug_aranges
                0x00001dd0       0x28 zephyr/kernel/libkernel.a(idle.c.obj)
 .debug_aranges
                0x00001df8       0x58 zephyr/kernel/libkernel.a(msg_q.c.obj)
 .debug_aranges
                0x00001e50       0x30 zephyr/kernel/libkernel.a(mutex.c.obj)
 .debug_aranges
                0x00001e80       0x38 zephyr/kernel/libkernel.a(sem.c.obj)
 .debug_aranges
                0x00001eb8      0x1e8 zephyr/kernel/libkernel.a(sched.c.obj)
 .debug_aranges
                0x000020a0       0x20 zephyr/kernel/libkernel.a(xip.c.obj)
 .debug_aranges
                0x000020c0       0x98 zephyr/kernel/libkernel.a(timeout.c.obj)
 .debug_aranges
                0x00002158       0x48 zephyr/kernel/libkernel.a(timer.c.obj)
 .debug_aranges
                0x000021a0       0xa0 zephyr/kernel/libkernel.a(poll.c.obj)
 .debug_aranges
                0x00002240       0x20 zephyr/kernel/libkernel.a(banner.c.obj)
 .debug_aranges
                0x00002260       0x40 zephyr/kernel/libkernel.a(kheap.c.obj)
 .debug_aranges
                0x000022a0       0x20 zephyr/kernel/libkernel.a(system_work_q.c.obj)
 .debug_aranges
                0x000022c0       0xf8 zephyr/kernel/libkernel.a(work.c.obj)
 .debug_aranges
                0x000023b8       0x20 zephyr/CMakeFiles/offsets.dir/./arch/arm/core/offsets/offsets.c.obj

.debug_pubnames
 *(SORT_BY_ALIGNMENT(.debug_pubnames))

.debug_info     0x00000000    0xd1b87
 *(SORT_BY_ALIGNMENT(.debug_info) SORT_BY_ALIGNMENT(.gnu.linkonce.wi.*))
 .debug_info    0x00000000      0x22a zephyr/CMakeFiles/zephyr_final.dir/isr_tables.c.obj
 .debug_info    0x0000022a      0xed3 zephyr/CMakeFiles/zephyr_final.dir/dev_handles.c.obj
 .debug_info    0x000010fd     0x3a1f app/libapp.a(main.c.obj)
 .debug_info    0x00004b1c     0x10f3 app/libapp.a(test_module.c.obj)
 .debug_info    0x00005c0f     0x2981 app/libapp.a(dynamic_cmd.c.obj)
 .debug_info    0x00008590      0x667 app/libapp.a(qsort.c.obj)
 .debug_info    0x00008bf7      0x2d6 zephyr/libzephyr.a(hex.c.obj)
 .debug_info    0x00008ecd      0xb44 zephyr/libzephyr.a(notify.c.obj)
 .debug_info    0x00009a11      0xdaa zephyr/libzephyr.a(printk.c.obj)
 .debug_info    0x0000a7bb     0x295e zephyr/libzephyr.a(onoff.c.obj)
 .debug_info    0x0000d119      0x9cc zephyr/libzephyr.a(thread_entry.c.obj)
 .debug_info    0x0000dae5      0x754 zephyr/libzephyr.a(timeutil.c.obj)
 .debug_info    0x0000e239     0x2e10 zephyr/libzephyr.a(heap.c.obj)
 .debug_info    0x00011049     0x101c zephyr/libzephyr.a(cbprintf_complete.c.obj)
 .debug_info    0x00012065     0x1399 zephyr/libzephyr.a(ring_buffer.c.obj)
 .debug_info    0x000133fe      0x9b3 zephyr/libzephyr.a(reboot.c.obj)
 .debug_info    0x00013db1      0x482 zephyr/libzephyr.a(fnmatch.c.obj)
 .debug_info    0x00014233       0x38 zephyr/libzephyr.a(configs.c.obj)
 .debug_info    0x0001426b      0xf71 zephyr/libzephyr.a(soc.c.obj)
 .debug_info    0x000151dc     0x1ea2 zephyr/libzephyr.a(power.c.obj)
 .debug_info    0x0001707e      0x4d3 zephyr/libzephyr.a(log_list.c.obj)
 .debug_info    0x00017551     0x5bab zephyr/libzephyr.a(log_core.c.obj)
 .debug_info    0x0001d0fc     0x2071 zephyr/libzephyr.a(log_msg.c.obj)
 .debug_info    0x0001f16d     0x3250 zephyr/libzephyr.a(log_output.c.obj)
 .debug_info    0x000223bd     0x38b8 zephyr/libzephyr.a(log_cmds.c.obj)
 .debug_info    0x00025c75     0x3289 zephyr/libzephyr.a(kernel_service.c.obj)
 .debug_info    0x00028efe     0x2f5a zephyr/libzephyr.a(device_service.c.obj)
 .debug_info    0x0002be58     0x28dd zephyr/libzephyr.a(date_service.c.obj)
 .debug_info    0x0002e735     0x6f99 zephyr/libzephyr.a(shell.c.obj)
 .debug_info    0x000356ce     0x22af zephyr/libzephyr.a(shell_fprintf.c.obj)
 .debug_info    0x0003797d     0x3478 zephyr/libzephyr.a(shell_utils.c.obj)
 .debug_info    0x0003adf5     0x3b24 zephyr/libzephyr.a(shell_ops.c.obj)
 .debug_info    0x0003e919     0x4640 zephyr/libzephyr.a(shell_uart.c.obj)
 .debug_info    0x00042f59     0x2a07 zephyr/libzephyr.a(shell_help.c.obj)
 .debug_info    0x00045960     0x3431 zephyr/libzephyr.a(shell_cmds.c.obj)
 .debug_info    0x00048d91     0x1308 zephyr/libzephyr.a(shell_history.c.obj)
 .debug_info    0x0004a099     0x329b zephyr/libzephyr.a(shell_log_backend.c.obj)
 .debug_info    0x0004d334     0x26c0 zephyr/libzephyr.a(shell_wildcard.c.obj)
 .debug_info    0x0004f9f4     0x1f39 zephyr/libzephyr.a(power.c.obj)
 .debug_info    0x0005192d     0x1ef9 zephyr/libzephyr.a(policy_residency.c.obj)
 .debug_info    0x00053826     0x1398 zephyr/libzephyr.a(uart_console.c.obj)
 .debug_info    0x00054bbe     0x64fa zephyr/libzephyr.a(clock_control_nrf.c.obj)
 .debug_info    0x0005b0b8     0x1011 zephyr/libzephyr.a(sys_clock_init.c.obj)
 .debug_info    0x0005c0c9     0x2b47 zephyr/libzephyr.a(nrf_rtc_timer.c.obj)
 .debug_info    0x0005ec10      0xbed zephyr/libzephyr.a(secure_services_ns.c.obj)
 .debug_info    0x0005f7fd      0xca2 zephyr/arch/arch/arm/core/aarch32/libarch__arm__core__aarch32.a(swap.c.obj)
 .debug_info    0x0006049f     0x1102 zephyr/arch/arch/arm/core/aarch32/libarch__arm__core__aarch32.a(irq_manage.c.obj)
 .debug_info    0x000615a1      0xbe2 zephyr/arch/arch/arm/core/aarch32/libarch__arm__core__aarch32.a(thread.c.obj)
 .debug_info    0x00062183     0x2f85 zephyr/arch/arch/arm/core/aarch32/libarch__arm__core__aarch32.a(fatal.c.obj)
 .debug_info    0x00065108      0x8ec zephyr/arch/arch/arm/core/aarch32/libarch__arm__core__aarch32.a(nmi.c.obj)
 .debug_info    0x000659f4      0xf21 zephyr/arch/arch/arm/core/aarch32/libarch__arm__core__aarch32.a(prep_c.c.obj)
 .debug_info    0x00066915       0x22 zephyr/arch/arch/arm/core/aarch32/libarch__arm__core__aarch32.a(swap_helper.S.obj)
 .debug_info    0x00066937       0x22 zephyr/arch/arch/arm/core/aarch32/libarch__arm__core__aarch32.a(cpu_idle.S.obj)
 .debug_info    0x00066959       0x26 zephyr/arch/arch/arm/core/aarch32/libarch__arm__core__aarch32.a(nmi_on_reset.S.obj)
 .debug_info    0x0006697f       0x26 zephyr/arch/arch/arm/core/aarch32/libarch__arm__core__aarch32.a(isr_wrapper.S.obj)
 .debug_info    0x000669a5       0x26 zephyr/arch/arch/arm/core/aarch32/cortex_m/libarch__arm__core__aarch32__cortex_m.a(reset.S.obj)
 .debug_info    0x000669cb       0x26 zephyr/arch/arch/arm/core/aarch32/cortex_m/libarch__arm__core__aarch32__cortex_m.a(fault_s.S.obj)
 .debug_info    0x000669f1       0x26 zephyr/arch/arch/arm/core/aarch32/cortex_m/libarch__arm__core__aarch32__cortex_m.a(exc_exit.S.obj)
 .debug_info    0x00066a17     0xa863 zephyr/arch/arch/arm/core/aarch32/cortex_m/libarch__arm__core__aarch32__cortex_m.a(fault.c.obj)
 .debug_info    0x0007127a      0x958 zephyr/arch/arch/arm/core/aarch32/cortex_m/libarch__arm__core__aarch32__cortex_m.a(fpu.c.obj)
 .debug_info    0x00071bd2      0xfb9 zephyr/arch/arch/arm/core/aarch32/cortex_m/libarch__arm__core__aarch32__cortex_m.a(scb.c.obj)
 .debug_info    0x00072b8b      0x812 zephyr/arch/arch/arm/core/aarch32/cortex_m/libarch__arm__core__aarch32__cortex_m.a(irq_init.c.obj)
 .debug_info    0x0007339d      0xce8 zephyr/arch/arch/arm/core/aarch32/cortex_m/libarch__arm__core__aarch32__cortex_m.a(thread_abort.c.obj)
 .debug_info    0x00074085      0xe10 zephyr/arch/arch/arm/core/aarch32/cortex_m/cmse/libarch__arm__core__aarch32__cortex_m__cmse.a(arm_core_cmse.c.obj)
 .debug_info    0x00074e95     0x1268 zephyr/arch/arch/arm/core/aarch32/mpu/libarch__arm__core__aarch32__mpu.a(arm_core_mpu.c.obj)
 .debug_info    0x000760fd     0x5d11 zephyr/arch/arch/arm/core/aarch32/mpu/libarch__arm__core__aarch32__mpu.a(arm_mpu.c.obj)
 .debug_info    0x0007be0e      0x2ba zephyr/lib/libc/minimal/liblib__libc__minimal.a(strtol.c.obj)
 .debug_info    0x0007c0c8      0x11a zephyr/lib/libc/minimal/liblib__libc__minimal.a(strstr.c.obj)
 .debug_info    0x0007c1e2      0x7bb zephyr/lib/libc/minimal/liblib__libc__minimal.a(string.c.obj)
 .debug_info    0x0007c99d      0x692 zephyr/lib/libc/minimal/liblib__libc__minimal.a(stdout_console.c.obj)
 .debug_info    0x0007d02f      0x41c zephyr/lib/libc/minimal/liblib__libc__minimal.a(sprintf.c.obj)
 .debug_info    0x0007d44b      0x2a1 zephyr/lib/libc/minimal/liblib__libc__minimal.a(fprintf.c.obj)
 .debug_info    0x0007d6ec      0x351 zephyr/lib/libc/minimal/liblib__libc__minimal.a(gmtime.c.obj)
 .debug_info    0x0007da3d      0xece zephyr/lib/posix/liblib__posix.a(clock.c.obj)
 .debug_info    0x0007e90b      0x217 zephyr/soc/arm/common/cortex_m/libsoc__arm__common__cortex_m.a(arm_mpu_regions.c.obj)
 .debug_info    0x0007eb22     0x3777 zephyr/drivers/gpio/libdrivers__gpio.a(gpio_nrfx.c.obj)
 .debug_info    0x00082299     0x53d9 zephyr/drivers/serial/libdrivers__serial.a(uart_nrfx_uarte.c.obj)
 .debug_info    0x00087672     0x102e zephyr/drivers/entropy/libdrivers__entropy.a(entropy_cc310.c.obj)
 .debug_info    0x000886a0     0x1d4f modules/nrf/lib/fatal_error/lib..__nrf__lib__fatal_error.a(fatal_error.c.obj)
 .debug_info    0x0008a3ef     0x11e7 modules/nrf/subsys/fw_info/lib..__nrf__subsys__fw_info.a(fw_info.c.obj)
 .debug_info    0x0008b5d6      0x5eb modules/hal_nordic/nrfx/libmodules__hal_nordic__nrfx.a(system_nrf5340_application.c.obj)
 .debug_info    0x0008bbc1      0xa51 modules/hal_nordic/nrfx/libmodules__hal_nordic__nrfx.a(nrfx_glue.c.obj)
 .debug_info    0x0008c612     0x5dce modules/hal_nordic/nrfx/libmodules__hal_nordic__nrfx.a(nrfx_clock.c.obj)
 .debug_info    0x000923e0     0x7a54 modules/hal_nordic/nrfx/libmodules__hal_nordic__nrfx.a(nrfx_dppi.c.obj)
 .debug_info    0x00099e34     0xb29a modules/hal_nordic/nrfx/libmodules__hal_nordic__nrfx.a(nrfx_gpiote.c.obj)
 .debug_info    0x000a50ce     0x12fa zephyr/kernel/libkernel.a(device.c.obj)
 .debug_info    0x000a63c8      0x954 zephyr/kernel/libkernel.a(errno.c.obj)
 .debug_info    0x000a6d1c     0x352d zephyr/kernel/libkernel.a(fatal.c.obj)
 .debug_info    0x000aa249     0x2b2b zephyr/kernel/libkernel.a(init.c.obj)
 .debug_info    0x000acd74     0x1116 zephyr/kernel/libkernel.a(mem_slab.c.obj)
 .debug_info    0x000ade8a     0x3386 zephyr/kernel/libkernel.a(thread.c.obj)
 .debug_info    0x000b1210       0x95 zephyr/kernel/libkernel.a(version.c.obj)
 .debug_info    0x000b12a5     0x10d0 zephyr/kernel/libkernel.a(idle.c.obj)
 .debug_info    0x000b2375     0x15d2 zephyr/kernel/libkernel.a(msg_q.c.obj)
 .debug_info    0x000b3947     0x74f7 zephyr/kernel/libkernel.a(mutex.c.obj)
 .debug_info    0x000bae3e     0x106d zephyr/kernel/libkernel.a(sem.c.obj)
 .debug_info    0x000bbeab     0x6c35 zephyr/kernel/libkernel.a(sched.c.obj)
 .debug_info    0x000c2ae0      0xa6f zephyr/kernel/libkernel.a(xip.c.obj)
 .debug_info    0x000c354f     0x22c4 zephyr/kernel/libkernel.a(timeout.c.obj)
 .debug_info    0x000c5813     0x12ff zephyr/kernel/libkernel.a(timer.c.obj)
 .debug_info    0x000c6b12     0x2d12 zephyr/kernel/libkernel.a(poll.c.obj)
 .debug_info    0x000c9824      0xdf1 zephyr/kernel/libkernel.a(banner.c.obj)
 .debug_info    0x000ca615     0x1085 zephyr/kernel/libkernel.a(kheap.c.obj)
 .debug_info    0x000cb69a      0xa79 zephyr/kernel/libkernel.a(system_work_q.c.obj)
 .debug_info    0x000cc113     0x4c6f zephyr/kernel/libkernel.a(work.c.obj)
 .debug_info    0x000d0d82      0xe05 zephyr/CMakeFiles/offsets.dir/./arch/arm/core/offsets/offsets.c.obj

.debug_abbrev   0x00000000    0x17262
 *(SORT_BY_ALIGNMENT(.debug_abbrev))
 .debug_abbrev  0x00000000      0x119 zephyr/CMakeFiles/zephyr_final.dir/isr_tables.c.obj
 .debug_abbrev  0x00000119      0x1c2 zephyr/CMakeFiles/zephyr_final.dir/dev_handles.c.obj
 .debug_abbrev  0x000002db      0x5fa app/libapp.a(main.c.obj)
 .debug_abbrev  0x000008d5      0x26f app/libapp.a(test_module.c.obj)
 .debug_abbrev  0x00000b44      0x47a app/libapp.a(dynamic_cmd.c.obj)
 .debug_abbrev  0x00000fbe      0x1b6 app/libapp.a(qsort.c.obj)
 .debug_abbrev  0x00001174      0x15c zephyr/libzephyr.a(hex.c.obj)
 .debug_abbrev  0x000012d0      0x2d0 zephyr/libzephyr.a(notify.c.obj)
 .debug_abbrev  0x000015a0      0x340 zephyr/libzephyr.a(printk.c.obj)
 .debug_abbrev  0x000018e0      0x571 zephyr/libzephyr.a(onoff.c.obj)
 .debug_abbrev  0x00001e51      0x24f zephyr/libzephyr.a(thread_entry.c.obj)
 .debug_abbrev  0x000020a0      0x208 zephyr/libzephyr.a(timeutil.c.obj)
 .debug_abbrev  0x000022a8      0x4b5 zephyr/libzephyr.a(heap.c.obj)
 .debug_abbrev  0x0000275d      0x40e zephyr/libzephyr.a(cbprintf_complete.c.obj)
 .debug_abbrev  0x00002b6b      0x40f zephyr/libzephyr.a(ring_buffer.c.obj)
 .debug_abbrev  0x00002f7a      0x24d zephyr/libzephyr.a(reboot.c.obj)
 .debug_abbrev  0x000031c7      0x1ee zephyr/libzephyr.a(fnmatch.c.obj)
 .debug_abbrev  0x000033b5       0x2e zephyr/libzephyr.a(configs.c.obj)
 .debug_abbrev  0x000033e3      0x389 zephyr/libzephyr.a(soc.c.obj)
 .debug_abbrev  0x0000376c      0x328 zephyr/libzephyr.a(power.c.obj)
 .debug_abbrev  0x00003a94      0x189 zephyr/libzephyr.a(log_list.c.obj)
 .debug_abbrev  0x00003c1d      0x8c1 zephyr/libzephyr.a(log_core.c.obj)
 .debug_abbrev  0x000044de      0x5bc zephyr/libzephyr.a(log_msg.c.obj)
 .debug_abbrev  0x00004a9a      0x5f5 zephyr/libzephyr.a(log_output.c.obj)
 .debug_abbrev  0x0000508f      0x679 zephyr/libzephyr.a(log_cmds.c.obj)
 .debug_abbrev  0x00005708      0x4f4 zephyr/libzephyr.a(kernel_service.c.obj)
 .debug_abbrev  0x00005bfc      0x45d zephyr/libzephyr.a(device_service.c.obj)
 .debug_abbrev  0x00006059      0x457 zephyr/libzephyr.a(date_service.c.obj)
 .debug_abbrev  0x000064b0      0x7a8 zephyr/libzephyr.a(shell.c.obj)
 .debug_abbrev  0x00006c58      0x396 zephyr/libzephyr.a(shell_fprintf.c.obj)
 .debug_abbrev  0x00006fee      0x696 zephyr/libzephyr.a(shell_utils.c.obj)
 .debug_abbrev  0x00007684      0x6f9 zephyr/libzephyr.a(shell_ops.c.obj)
 .debug_abbrev  0x00007d7d      0x72f zephyr/libzephyr.a(shell_uart.c.obj)
 .debug_abbrev  0x000084ac      0x515 zephyr/libzephyr.a(shell_help.c.obj)
 .debug_abbrev  0x000089c1      0x5ec zephyr/libzephyr.a(shell_cmds.c.obj)
 .debug_abbrev  0x00008fad      0x3f4 zephyr/libzephyr.a(shell_history.c.obj)
 .debug_abbrev  0x000093a1      0x648 zephyr/libzephyr.a(shell_log_backend.c.obj)
 .debug_abbrev  0x000099e9      0x47e zephyr/libzephyr.a(shell_wildcard.c.obj)
 .debug_abbrev  0x00009e67      0x59e zephyr/libzephyr.a(power.c.obj)
 .debug_abbrev  0x0000a405      0x2bc zephyr/libzephyr.a(policy_residency.c.obj)
 .debug_abbrev  0x0000a6c1      0x396 zephyr/libzephyr.a(uart_console.c.obj)
 .debug_abbrev  0x0000aa57      0x85f zephyr/libzephyr.a(clock_control_nrf.c.obj)
 .debug_abbrev  0x0000b2b6      0x28d zephyr/libzephyr.a(sys_clock_init.c.obj)
 .debug_abbrev  0x0000b543      0x5dd zephyr/libzephyr.a(nrf_rtc_timer.c.obj)
 .debug_abbrev  0x0000bb20      0x24e zephyr/libzephyr.a(secure_services_ns.c.obj)
 .debug_abbrev  0x0000bd6e      0x23d zephyr/arch/arch/arm/core/aarch32/libarch__arm__core__aarch32.a(swap.c.obj)
 .debug_abbrev  0x0000bfab      0x345 zephyr/arch/arch/arm/core/aarch32/libarch__arm__core__aarch32.a(irq_manage.c.obj)
 .debug_abbrev  0x0000c2f0      0x2a6 zephyr/arch/arch/arm/core/aarch32/libarch__arm__core__aarch32.a(thread.c.obj)
 .debug_abbrev  0x0000c596      0x3be zephyr/arch/arch/arm/core/aarch32/libarch__arm__core__aarch32.a(fatal.c.obj)
 .debug_abbrev  0x0000c954      0x1b2 zephyr/arch/arch/arm/core/aarch32/libarch__arm__core__aarch32.a(nmi.c.obj)
 .debug_abbrev  0x0000cb06      0x2db zephyr/arch/arch/arm/core/aarch32/libarch__arm__core__aarch32.a(prep_c.c.obj)
 .debug_abbrev  0x0000cde1       0x12 zephyr/arch/arch/arm/core/aarch32/libarch__arm__core__aarch32.a(swap_helper.S.obj)
 .debug_abbrev  0x0000cdf3       0x12 zephyr/arch/arch/arm/core/aarch32/libarch__arm__core__aarch32.a(cpu_idle.S.obj)
 .debug_abbrev  0x0000ce05       0x14 zephyr/arch/arch/arm/core/aarch32/libarch__arm__core__aarch32.a(nmi_on_reset.S.obj)
 .debug_abbrev  0x0000ce19       0x14 zephyr/arch/arch/arm/core/aarch32/libarch__arm__core__aarch32.a(isr_wrapper.S.obj)
 .debug_abbrev  0x0000ce2d       0x14 zephyr/arch/arch/arm/core/aarch32/cortex_m/libarch__arm__core__aarch32__cortex_m.a(reset.S.obj)
 .debug_abbrev  0x0000ce41       0x14 zephyr/arch/arch/arm/core/aarch32/cortex_m/libarch__arm__core__aarch32__cortex_m.a(fault_s.S.obj)
 .debug_abbrev  0x0000ce55       0x14 zephyr/arch/arch/arm/core/aarch32/cortex_m/libarch__arm__core__aarch32__cortex_m.a(exc_exit.S.obj)
 .debug_abbrev  0x0000ce69      0x4b7 zephyr/arch/arch/arm/core/aarch32/cortex_m/libarch__arm__core__aarch32__cortex_m.a(fault.c.obj)
 .debug_abbrev  0x0000d320      0x1ba zephyr/arch/arch/arm/core/aarch32/cortex_m/libarch__arm__core__aarch32__cortex_m.a(fpu.c.obj)
 .debug_abbrev  0x0000d4da      0x2bf zephyr/arch/arch/arm/core/aarch32/cortex_m/libarch__arm__core__aarch32__cortex_m.a(scb.c.obj)
 .debug_abbrev  0x0000d799      0x1ec zephyr/arch/arch/arm/core/aarch32/cortex_m/libarch__arm__core__aarch32__cortex_m.a(irq_init.c.obj)
 .debug_abbrev  0x0000d985      0x289 zephyr/arch/arch/arm/core/aarch32/cortex_m/libarch__arm__core__aarch32__cortex_m.a(thread_abort.c.obj)
 .debug_abbrev  0x0000dc0e      0x27f zephyr/arch/arch/arm/core/aarch32/cortex_m/cmse/libarch__arm__core__aarch32__cortex_m__cmse.a(arm_core_cmse.c.obj)
 .debug_abbrev  0x0000de8d      0x291 zephyr/arch/arch/arm/core/aarch32/mpu/libarch__arm__core__aarch32__mpu.a(arm_core_mpu.c.obj)
 .debug_abbrev  0x0000e11e      0x5e8 zephyr/arch/arch/arm/core/aarch32/mpu/libarch__arm__core__aarch32__mpu.a(arm_mpu.c.obj)
 .debug_abbrev  0x0000e706      0x123 zephyr/lib/libc/minimal/liblib__libc__minimal.a(strtol.c.obj)
 .debug_abbrev  0x0000e829       0xda zephyr/lib/libc/minimal/liblib__libc__minimal.a(strstr.c.obj)
 .debug_abbrev  0x0000e903      0x191 zephyr/lib/libc/minimal/liblib__libc__minimal.a(string.c.obj)
 .debug_abbrev  0x0000ea94      0x255 zephyr/lib/libc/minimal/liblib__libc__minimal.a(stdout_console.c.obj)
 .debug_abbrev  0x0000ece9      0x1b2 zephyr/lib/libc/minimal/liblib__libc__minimal.a(sprintf.c.obj)
 .debug_abbrev  0x0000ee9b      0x127 zephyr/lib/libc/minimal/liblib__libc__minimal.a(fprintf.c.obj)
 .debug_abbrev  0x0000efc2      0x197 zephyr/lib/libc/minimal/liblib__libc__minimal.a(gmtime.c.obj)
 .debug_abbrev  0x0000f159      0x3c3 zephyr/lib/posix/liblib__posix.a(clock.c.obj)
 .debug_abbrev  0x0000f51c      0x108 zephyr/soc/arm/common/cortex_m/libsoc__arm__common__cortex_m.a(arm_mpu_regions.c.obj)
 .debug_abbrev  0x0000f624      0x5e3 zephyr/drivers/gpio/libdrivers__gpio.a(gpio_nrfx.c.obj)
 .debug_abbrev  0x0000fc07      0x652 zephyr/drivers/serial/libdrivers__serial.a(uart_nrfx_uarte.c.obj)
 .debug_abbrev  0x00010259      0x281 zephyr/drivers/entropy/libdrivers__entropy.a(entropy_cc310.c.obj)
 .debug_abbrev  0x000104da      0x3a1 modules/nrf/lib/fatal_error/lib..__nrf__lib__fatal_error.a(fatal_error.c.obj)
 .debug_abbrev  0x0001087b      0x3ff modules/nrf/subsys/fw_info/lib..__nrf__subsys__fw_info.a(fw_info.c.obj)
 .debug_abbrev  0x00010c7a      0x121 modules/hal_nordic/nrfx/libmodules__hal_nordic__nrfx.a(system_nrf5340_application.c.obj)
 .debug_abbrev  0x00010d9b      0x25b modules/hal_nordic/nrfx/libmodules__hal_nordic__nrfx.a(nrfx_glue.c.obj)
 .debug_abbrev  0x00010ff6      0x567 modules/hal_nordic/nrfx/libmodules__hal_nordic__nrfx.a(nrfx_clock.c.obj)
 .debug_abbrev  0x0001155d      0x465 modules/hal_nordic/nrfx/libmodules__hal_nordic__nrfx.a(nrfx_dppi.c.obj)
 .debug_abbrev  0x000119c2      0x680 modules/hal_nordic/nrfx/libmodules__hal_nordic__nrfx.a(nrfx_gpiote.c.obj)
 .debug_abbrev  0x00012042      0x3e5 zephyr/kernel/libkernel.a(device.c.obj)
 .debug_abbrev  0x00012427      0x1b7 zephyr/kernel/libkernel.a(errno.c.obj)
 .debug_abbrev  0x000125de      0x50a zephyr/kernel/libkernel.a(fatal.c.obj)
 .debug_abbrev  0x00012ae8      0x62c zephyr/kernel/libkernel.a(init.c.obj)
 .debug_abbrev  0x00013114      0x3bf zephyr/kernel/libkernel.a(mem_slab.c.obj)
 .debug_abbrev  0x000134d3      0x643 zephyr/kernel/libkernel.a(thread.c.obj)
 .debug_abbrev  0x00013b16       0x55 zephyr/kernel/libkernel.a(version.c.obj)
 .debug_abbrev  0x00013b6b      0x2f1 zephyr/kernel/libkernel.a(idle.c.obj)
 .debug_abbrev  0x00013e5c      0x469 zephyr/kernel/libkernel.a(msg_q.c.obj)
 .debug_abbrev  0x000142c5      0x477 zephyr/kernel/libkernel.a(mutex.c.obj)
 .debug_abbrev  0x0001473c      0x398 zephyr/kernel/libkernel.a(sem.c.obj)
 .debug_abbrev  0x00014ad4      0x6a7 zephyr/kernel/libkernel.a(sched.c.obj)
 .debug_abbrev  0x0001517b      0x1b2 zephyr/kernel/libkernel.a(xip.c.obj)
 .debug_abbrev  0x0001532d      0x524 zephyr/kernel/libkernel.a(timeout.c.obj)
 .debug_abbrev  0x00015851      0x416 zephyr/kernel/libkernel.a(timer.c.obj)
 .debug_abbrev  0x00015c67      0x650 zephyr/kernel/libkernel.a(poll.c.obj)
 .debug_abbrev  0x000162b7      0x1db zephyr/kernel/libkernel.a(banner.c.obj)
 .debug_abbrev  0x00016492      0x3a7 zephyr/kernel/libkernel.a(kheap.c.obj)
 .debug_abbrev  0x00016839      0x22a zephyr/kernel/libkernel.a(system_work_q.c.obj)
 .debug_abbrev  0x00016a63      0x634 zephyr/kernel/libkernel.a(work.c.obj)
 .debug_abbrev  0x00017097      0x1cb zephyr/CMakeFiles/offsets.dir/./arch/arm/core/offsets/offsets.c.obj

.debug_line     0x00000000    0x36f67
 *(SORT_BY_ALIGNMENT(.debug_line) SORT_BY_ALIGNMENT(.debug_line.*) SORT_BY_ALIGNMENT(.debug_line_end))
 .debug_line    0x00000000      0x1b0 zephyr/CMakeFiles/zephyr_final.dir/isr_tables.c.obj
 .debug_line    0x000001b0      0x32f zephyr/CMakeFiles/zephyr_final.dir/dev_handles.c.obj
 .debug_line    0x000004df      0xb6e app/libapp.a(main.c.obj)
 .debug_line    0x0000104d      0x3ce app/libapp.a(test_module.c.obj)
 .debug_line    0x0000141b      0x772 app/libapp.a(dynamic_cmd.c.obj)
 .debug_line    0x00001b8d      0x394 app/libapp.a(qsort.c.obj)
 .debug_line    0x00001f21      0x281 zephyr/libzephyr.a(hex.c.obj)
 .debug_line    0x000021a2      0x45a zephyr/libzephyr.a(notify.c.obj)
 .debug_line    0x000025fc      0x561 zephyr/libzephyr.a(printk.c.obj)
 .debug_line    0x00002b5d     0x130a zephyr/libzephyr.a(onoff.c.obj)
 .debug_line    0x00003e67      0x37f zephyr/libzephyr.a(thread_entry.c.obj)
 .debug_line    0x000041e6      0x54f zephyr/libzephyr.a(timeutil.c.obj)
 .debug_line    0x00004735     0x119c zephyr/libzephyr.a(heap.c.obj)
 .debug_line    0x000058d1      0xb77 zephyr/libzephyr.a(cbprintf_complete.c.obj)
 .debug_line    0x00006448      0x9ff zephyr/libzephyr.a(ring_buffer.c.obj)
 .debug_line    0x00006e47      0x385 zephyr/libzephyr.a(reboot.c.obj)
 .debug_line    0x000071cc      0x410 zephyr/libzephyr.a(fnmatch.c.obj)
 .debug_line    0x000075dc      0x209 zephyr/libzephyr.a(configs.c.obj)
 .debug_line    0x000077e5      0x4f7 zephyr/libzephyr.a(soc.c.obj)
 .debug_line    0x00007cdc      0x4c7 zephyr/libzephyr.a(power.c.obj)
 .debug_line    0x000081a3      0x19c zephyr/libzephyr.a(log_list.c.obj)
 .debug_line    0x0000833f     0x1fc9 zephyr/libzephyr.a(log_core.c.obj)
 .debug_line    0x0000a308      0xbbf zephyr/libzephyr.a(log_msg.c.obj)
 .debug_line    0x0000aec7      0xe72 zephyr/libzephyr.a(log_output.c.obj)
 .debug_line    0x0000bd39      0xce5 zephyr/libzephyr.a(log_cmds.c.obj)
 .debug_line    0x0000ca1e      0x8c5 zephyr/libzephyr.a(kernel_service.c.obj)
 .debug_line    0x0000d2e3      0x78b zephyr/libzephyr.a(device_service.c.obj)
 .debug_line    0x0000da6e      0x884 zephyr/libzephyr.a(date_service.c.obj)
 .debug_line    0x0000e2f2     0x2163 zephyr/libzephyr.a(shell.c.obj)
 .debug_line    0x00010455      0x55e zephyr/libzephyr.a(shell_fprintf.c.obj)
 .debug_line    0x000109b3      0xd65 zephyr/libzephyr.a(shell_utils.c.obj)
 .debug_line    0x00011718      0xfea zephyr/libzephyr.a(shell_ops.c.obj)
 .debug_line    0x00012702      0xbfd zephyr/libzephyr.a(shell_uart.c.obj)
 .debug_line    0x000132ff      0x867 zephyr/libzephyr.a(shell_help.c.obj)
 .debug_line    0x00013b66      0xaaa zephyr/libzephyr.a(shell_cmds.c.obj)
 .debug_line    0x00014610      0x7c1 zephyr/libzephyr.a(shell_history.c.obj)
 .debug_line    0x00014dd1      0xa92 zephyr/libzephyr.a(shell_log_backend.c.obj)
 .debug_line    0x00015863      0x76f zephyr/libzephyr.a(shell_wildcard.c.obj)
 .debug_line    0x00015fd2      0x953 zephyr/libzephyr.a(power.c.obj)
 .debug_line    0x00016925      0x403 zephyr/libzephyr.a(policy_residency.c.obj)
 .debug_line    0x00016d28      0x49b zephyr/libzephyr.a(uart_console.c.obj)
 .debug_line    0x000171c3     0x15ea zephyr/libzephyr.a(clock_control_nrf.c.obj)
 .debug_line    0x000187ad      0x3f6 zephyr/libzephyr.a(sys_clock_init.c.obj)
 .debug_line    0x00018ba3     0x1020 zephyr/libzephyr.a(nrf_rtc_timer.c.obj)
 .debug_line    0x00019bc3      0x40e zephyr/libzephyr.a(secure_services_ns.c.obj)
 .debug_line    0x00019fd1      0x406 zephyr/arch/arch/arm/core/aarch32/libarch__arm__core__aarch32.a(swap.c.obj)
 .debug_line    0x0001a3d7      0x501 zephyr/arch/arch/arm/core/aarch32/libarch__arm__core__aarch32.a(irq_manage.c.obj)
 .debug_line    0x0001a8d8      0x476 zephyr/arch/arch/arm/core/aarch32/libarch__arm__core__aarch32.a(thread.c.obj)
 .debug_line    0x0001ad4e      0x51d zephyr/arch/arch/arm/core/aarch32/libarch__arm__core__aarch32.a(fatal.c.obj)
 .debug_line    0x0001b26b      0x341 zephyr/arch/arch/arm/core/aarch32/libarch__arm__core__aarch32.a(nmi.c.obj)
 .debug_line    0x0001b5ac      0x491 zephyr/arch/arch/arm/core/aarch32/libarch__arm__core__aarch32.a(prep_c.c.obj)
 .debug_line    0x0001ba3d       0xba zephyr/arch/arch/arm/core/aarch32/libarch__arm__core__aarch32.a(swap_helper.S.obj)
 .debug_line    0x0001baf7       0x9b zephyr/arch/arch/arm/core/aarch32/libarch__arm__core__aarch32.a(cpu_idle.S.obj)
 .debug_line    0x0001bb92       0x6a zephyr/arch/arch/arm/core/aarch32/libarch__arm__core__aarch32.a(nmi_on_reset.S.obj)
 .debug_line    0x0001bbfc       0x93 zephyr/arch/arch/arm/core/aarch32/libarch__arm__core__aarch32.a(isr_wrapper.S.obj)
 .debug_line    0x0001bc8f       0x83 zephyr/arch/arch/arm/core/aarch32/cortex_m/libarch__arm__core__aarch32__cortex_m.a(reset.S.obj)
 .debug_line    0x0001bd12       0x77 zephyr/arch/arch/arm/core/aarch32/cortex_m/libarch__arm__core__aarch32__cortex_m.a(fault_s.S.obj)
 .debug_line    0x0001bd89       0x7d zephyr/arch/arch/arm/core/aarch32/cortex_m/libarch__arm__core__aarch32__cortex_m.a(exc_exit.S.obj)
 .debug_line    0x0001be06     0x1334 zephyr/arch/arch/arm/core/aarch32/cortex_m/libarch__arm__core__aarch32__cortex_m.a(fault.c.obj)
 .debug_line    0x0001d13a      0x370 zephyr/arch/arch/arm/core/aarch32/cortex_m/libarch__arm__core__aarch32__cortex_m.a(fpu.c.obj)
 .debug_line    0x0001d4aa      0x472 zephyr/arch/arch/arm/core/aarch32/cortex_m/libarch__arm__core__aarch32__cortex_m.a(scb.c.obj)
 .debug_line    0x0001d91c      0x28b zephyr/arch/arch/arm/core/aarch32/cortex_m/libarch__arm__core__aarch32__cortex_m.a(irq_init.c.obj)
 .debug_line    0x0001dba7      0x431 zephyr/arch/arch/arm/core/aarch32/cortex_m/libarch__arm__core__aarch32__cortex_m.a(thread_abort.c.obj)
 .debug_line    0x0001dfd8      0x4ac zephyr/arch/arch/arm/core/aarch32/cortex_m/cmse/libarch__arm__core__aarch32__cortex_m__cmse.a(arm_core_cmse.c.obj)
 .debug_line    0x0001e484      0x4d5 zephyr/arch/arch/arm/core/aarch32/mpu/libarch__arm__core__aarch32__mpu.a(arm_core_mpu.c.obj)
 .debug_line    0x0001e959      0xd6f zephyr/arch/arch/arm/core/aarch32/mpu/libarch__arm__core__aarch32__mpu.a(arm_mpu.c.obj)
 .debug_line    0x0001f6c8      0x2f9 zephyr/lib/libc/minimal/liblib__libc__minimal.a(strtol.c.obj)
 .debug_line    0x0001f9c1      0x14e zephyr/lib/libc/minimal/liblib__libc__minimal.a(strstr.c.obj)
 .debug_line    0x0001fb0f      0x601 zephyr/lib/libc/minimal/liblib__libc__minimal.a(string.c.obj)
 .debug_line    0x00020110      0x2db zephyr/lib/libc/minimal/liblib__libc__minimal.a(stdout_console.c.obj)
 .debug_line    0x000203eb      0x294 zephyr/lib/libc/minimal/liblib__libc__minimal.a(sprintf.c.obj)
 .debug_line    0x0002067f      0x1bf zephyr/lib/libc/minimal/liblib__libc__minimal.a(fprintf.c.obj)
 .debug_line    0x0002083e      0x2f8 zephyr/lib/libc/minimal/liblib__libc__minimal.a(gmtime.c.obj)
 .debug_line    0x00020b36      0x645 zephyr/lib/posix/liblib__posix.a(clock.c.obj)
 .debug_line    0x0002117b      0x1db zephyr/soc/arm/common/cortex_m/libsoc__arm__common__cortex_m.a(arm_mpu_regions.c.obj)
 .debug_line    0x00021356     0x12c9 zephyr/drivers/gpio/libdrivers__gpio.a(gpio_nrfx.c.obj)
 .debug_line    0x0002261f     0x1973 zephyr/drivers/serial/libdrivers__serial.a(uart_nrfx_uarte.c.obj)
 .debug_line    0x00023f92      0x45d zephyr/drivers/entropy/libdrivers__entropy.a(entropy_cc310.c.obj)
 .debug_line    0x000243ef      0x4f9 modules/nrf/lib/fatal_error/lib..__nrf__lib__fatal_error.a(fatal_error.c.obj)
 .debug_line    0x000248e8      0x6de modules/nrf/subsys/fw_info/lib..__nrf__subsys__fw_info.a(fw_info.c.obj)
 .debug_line    0x00024fc6      0x15b modules/hal_nordic/nrfx/libmodules__hal_nordic__nrfx.a(system_nrf5340_application.c.obj)
 .debug_line    0x00025121      0x430 modules/hal_nordic/nrfx/libmodules__hal_nordic__nrfx.a(nrfx_glue.c.obj)
 .debug_line    0x00025551      0xdfb modules/hal_nordic/nrfx/libmodules__hal_nordic__nrfx.a(nrfx_clock.c.obj)
 .debug_line    0x0002634c      0xa88 modules/hal_nordic/nrfx/libmodules__hal_nordic__nrfx.a(nrfx_dppi.c.obj)
 .debug_line    0x00026dd4     0x1f64 modules/hal_nordic/nrfx/libmodules__hal_nordic__nrfx.a(nrfx_gpiote.c.obj)
 .debug_line    0x00028d38      0x5ee zephyr/kernel/libkernel.a(device.c.obj)
 .debug_line    0x00029326      0x359 zephyr/kernel/libkernel.a(errno.c.obj)
 .debug_line    0x0002967f      0x9fc zephyr/kernel/libkernel.a(fatal.c.obj)
 .debug_line    0x0002a07b      0xac7 zephyr/kernel/libkernel.a(init.c.obj)
 .debug_line    0x0002ab42      0x784 zephyr/kernel/libkernel.a(mem_slab.c.obj)
 .debug_line    0x0002b2c6      0xe97 zephyr/kernel/libkernel.a(thread.c.obj)
 .debug_line    0x0002c15d       0x98 zephyr/kernel/libkernel.a(version.c.obj)
 .debug_line    0x0002c1f5      0x53d zephyr/kernel/libkernel.a(idle.c.obj)
 .debug_line    0x0002c732      0xa60 zephyr/kernel/libkernel.a(msg_q.c.obj)
 .debug_line    0x0002d192      0x90a zephyr/kernel/libkernel.a(mutex.c.obj)
 .debug_line    0x0002da9c      0x6ff zephyr/kernel/libkernel.a(sem.c.obj)
 .debug_line    0x0002e19b     0x2f43 zephyr/kernel/libkernel.a(sched.c.obj)
 .debug_line    0x000310de      0x371 zephyr/kernel/libkernel.a(xip.c.obj)
 .debug_line    0x0003144f      0xf49 zephyr/kernel/libkernel.a(timeout.c.obj)
 .debug_line    0x00032398      0x82c zephyr/kernel/libkernel.a(timer.c.obj)
 .debug_line    0x00032bc4     0x1363 zephyr/kernel/libkernel.a(poll.c.obj)
 .debug_line    0x00033f27      0x388 zephyr/kernel/libkernel.a(banner.c.obj)
 .debug_line    0x000342af      0x62c zephyr/kernel/libkernel.a(kheap.c.obj)
 .debug_line    0x000348db      0x35b zephyr/kernel/libkernel.a(system_work_q.c.obj)
 .debug_line    0x00034c36     0x1eeb zephyr/kernel/libkernel.a(work.c.obj)
 .debug_line    0x00036b21      0x446 zephyr/CMakeFiles/offsets.dir/./arch/arm/core/offsets/offsets.c.obj

.debug_frame    0x00000000     0x5bb4
 *(SORT_BY_ALIGNMENT(.debug_frame))
 .debug_frame   0x00000000      0x114 app/libapp.a(main.c.obj)
 .debug_frame   0x00000114       0x30 app/libapp.a(test_module.c.obj)
 .debug_frame   0x00000144       0xcc app/libapp.a(dynamic_cmd.c.obj)
 .debug_frame   0x00000210       0x78 app/libapp.a(qsort.c.obj)
 .debug_frame   0x00000288       0x74 zephyr/libzephyr.a(hex.c.obj)
 .debug_frame   0x000002fc       0x38 zephyr/libzephyr.a(notify.c.obj)
 .debug_frame   0x00000334      0x118 zephyr/libzephyr.a(printk.c.obj)
 .debug_frame   0x0000044c      0x184 zephyr/libzephyr.a(onoff.c.obj)
 .debug_frame   0x000005d0       0x28 zephyr/libzephyr.a(thread_entry.c.obj)
 .debug_frame   0x000005f8      0x124 zephyr/libzephyr.a(timeutil.c.obj)
 .debug_frame   0x0000071c      0x26c zephyr/libzephyr.a(heap.c.obj)
 .debug_frame   0x00000988       0x8c zephyr/libzephyr.a(cbprintf_complete.c.obj)
 .debug_frame   0x00000a14      0x110 zephyr/libzephyr.a(ring_buffer.c.obj)
 .debug_frame   0x00000b24       0x28 zephyr/libzephyr.a(reboot.c.obj)
 .debug_frame   0x00000b4c       0x60 zephyr/libzephyr.a(fnmatch.c.obj)
 .debug_frame   0x00000bac       0x20 zephyr/libzephyr.a(configs.c.obj)
 .debug_frame   0x00000bcc       0x40 zephyr/libzephyr.a(soc.c.obj)
 .debug_frame   0x00000c0c       0x40 zephyr/libzephyr.a(power.c.obj)
 .debug_frame   0x00000c4c       0x50 zephyr/libzephyr.a(log_list.c.obj)
 .debug_frame   0x00000c9c      0x5d0 zephyr/libzephyr.a(log_core.c.obj)
 .debug_frame   0x0000126c      0x174 zephyr/libzephyr.a(log_msg.c.obj)
 .debug_frame   0x000013e0      0x274 zephyr/libzephyr.a(log_output.c.obj)
 .debug_frame   0x00001654      0x270 zephyr/libzephyr.a(log_cmds.c.obj)
 .debug_frame   0x000018c4      0x11c zephyr/libzephyr.a(kernel_service.c.obj)
 .debug_frame   0x000019e0       0xb0 zephyr/libzephyr.a(device_service.c.obj)
 .debug_frame   0x00001a90       0x98 zephyr/libzephyr.a(date_service.c.obj)
 .debug_frame   0x00001b28      0x478 zephyr/libzephyr.a(shell.c.obj)
 .debug_frame   0x00001fa0       0x64 zephyr/libzephyr.a(shell_fprintf.c.obj)
 .debug_frame   0x00002004      0x1c0 zephyr/libzephyr.a(shell_utils.c.obj)
 .debug_frame   0x000021c4      0x384 zephyr/libzephyr.a(shell_ops.c.obj)
 .debug_frame   0x00002548      0x10c zephyr/libzephyr.a(shell_uart.c.obj)
 .debug_frame   0x00002654       0xe4 zephyr/libzephyr.a(shell_help.c.obj)
 .debug_frame   0x00002738      0x160 zephyr/libzephyr.a(shell_cmds.c.obj)
 .debug_frame   0x00002898       0xb0 zephyr/libzephyr.a(shell_history.c.obj)
 .debug_frame   0x00002948       0xf0 zephyr/libzephyr.a(shell_log_backend.c.obj)
 .debug_frame   0x00002a38       0x88 zephyr/libzephyr.a(shell_wildcard.c.obj)
 .debug_frame   0x00002ac0      0x104 zephyr/libzephyr.a(power.c.obj)
 .debug_frame   0x00002bc4       0x20 zephyr/libzephyr.a(policy_residency.c.obj)
 .debug_frame   0x00002be4       0x44 zephyr/libzephyr.a(uart_console.c.obj)
 .debug_frame   0x00002c28      0x2d8 zephyr/libzephyr.a(clock_control_nrf.c.obj)
 .debug_frame   0x00002f00       0x70 zephyr/libzephyr.a(sys_clock_init.c.obj)
 .debug_frame   0x00002f70      0x188 zephyr/libzephyr.a(nrf_rtc_timer.c.obj)
 .debug_frame   0x000030f8       0x78 zephyr/libzephyr.a(secure_services_ns.c.obj)
 .debug_frame   0x00003170       0x20 zephyr/arch/arch/arm/core/aarch32/libarch__arm__core__aarch32.a(swap.c.obj)
 .debug_frame   0x00003190       0x78 zephyr/arch/arch/arm/core/aarch32/libarch__arm__core__aarch32.a(irq_manage.c.obj)
 .debug_frame   0x00003208       0x40 zephyr/arch/arch/arm/core/aarch32/libarch__arm__core__aarch32.a(thread.c.obj)
 .debug_frame   0x00003248       0x60 zephyr/arch/arch/arm/core/aarch32/libarch__arm__core__aarch32.a(fatal.c.obj)
 .debug_frame   0x000032a8       0x2c zephyr/arch/arch/arm/core/aarch32/libarch__arm__core__aarch32.a(nmi.c.obj)
 .debug_frame   0x000032d4       0x28 zephyr/arch/arch/arm/core/aarch32/libarch__arm__core__aarch32.a(prep_c.c.obj)
 .debug_frame   0x000032fc       0xa0 zephyr/arch/arch/arm/core/aarch32/cortex_m/libarch__arm__core__aarch32__cortex_m.a(fault.c.obj)
 .debug_frame   0x0000339c       0x30 zephyr/arch/arch/arm/core/aarch32/cortex_m/libarch__arm__core__aarch32__cortex_m.a(fpu.c.obj)
 .debug_frame   0x000033cc       0x30 zephyr/arch/arch/arm/core/aarch32/cortex_m/libarch__arm__core__aarch32__cortex_m.a(scb.c.obj)
 .debug_frame   0x000033fc       0x20 zephyr/arch/arch/arm/core/aarch32/cortex_m/libarch__arm__core__aarch32__cortex_m.a(irq_init.c.obj)
 .debug_frame   0x0000341c       0x20 zephyr/arch/arch/arm/core/aarch32/cortex_m/libarch__arm__core__aarch32__cortex_m.a(thread_abort.c.obj)
 .debug_frame   0x0000343c       0x70 zephyr/arch/arch/arm/core/aarch32/cortex_m/cmse/libarch__arm__core__aarch32__cortex_m__cmse.a(arm_core_cmse.c.obj)
 .debug_frame   0x000034ac       0x3c zephyr/arch/arch/arm/core/aarch32/mpu/libarch__arm__core__aarch32__mpu.a(arm_core_mpu.c.obj)
 .debug_frame   0x000034e8      0x138 zephyr/arch/arch/arm/core/aarch32/mpu/libarch__arm__core__aarch32__mpu.a(arm_mpu.c.obj)
 .debug_frame   0x00003620       0x34 zephyr/lib/libc/minimal/liblib__libc__minimal.a(strtol.c.obj)
 .debug_frame   0x00003654       0x30 zephyr/lib/libc/minimal/liblib__libc__minimal.a(strstr.c.obj)
 .debug_frame   0x00003684      0x188 zephyr/lib/libc/minimal/liblib__libc__minimal.a(string.c.obj)
 .debug_frame   0x0000380c       0xb8 zephyr/lib/libc/minimal/liblib__libc__minimal.a(stdout_console.c.obj)
 .debug_frame   0x000038c4       0xa4 zephyr/lib/libc/minimal/liblib__libc__minimal.a(sprintf.c.obj)
 .debug_frame   0x00003968       0x8c zephyr/lib/libc/minimal/liblib__libc__minimal.a(fprintf.c.obj)
 .debug_frame   0x000039f4       0x4c zephyr/lib/libc/minimal/liblib__libc__minimal.a(gmtime.c.obj)
 .debug_frame   0x00003a40       0x6c zephyr/lib/posix/liblib__posix.a(clock.c.obj)
 .debug_frame   0x00003aac      0x178 zephyr/drivers/gpio/libdrivers__gpio.a(gpio_nrfx.c.obj)
 .debug_frame   0x00003c24      0x208 zephyr/drivers/serial/libdrivers__serial.a(uart_nrfx_uarte.c.obj)
 .debug_frame   0x00003e2c       0x44 zephyr/drivers/entropy/libdrivers__entropy.a(entropy_cc310.c.obj)
 .debug_frame   0x00003e70       0x28 modules/nrf/lib/fatal_error/lib..__nrf__lib__fatal_error.a(fatal_error.c.obj)
 .debug_frame   0x00003e98       0x7c modules/nrf/subsys/fw_info/lib..__nrf__subsys__fw_info.a(fw_info.c.obj)
 .debug_frame   0x00003f14       0x30 modules/hal_nordic/nrfx/libmodules__hal_nordic__nrfx.a(system_nrf5340_application.c.obj)
 .debug_frame   0x00003f44       0x40 modules/hal_nordic/nrfx/libmodules__hal_nordic__nrfx.a(nrfx_glue.c.obj)
 .debug_frame   0x00003f84      0x10c modules/hal_nordic/nrfx/libmodules__hal_nordic__nrfx.a(nrfx_clock.c.obj)
 .debug_frame   0x00004090      0x124 modules/hal_nordic/nrfx/libmodules__hal_nordic__nrfx.a(nrfx_dppi.c.obj)
 .debug_frame   0x000041b4      0x384 modules/hal_nordic/nrfx/libmodules__hal_nordic__nrfx.a(nrfx_gpiote.c.obj)
 .debug_frame   0x00004538       0xc0 zephyr/kernel/libkernel.a(device.c.obj)
 .debug_frame   0x000045f8       0x20 zephyr/kernel/libkernel.a(errno.c.obj)
 .debug_frame   0x00004618       0xd0 zephyr/kernel/libkernel.a(fatal.c.obj)
 .debug_frame   0x000046e8       0x90 zephyr/kernel/libkernel.a(init.c.obj)
 .debug_frame   0x00004778       0x94 zephyr/kernel/libkernel.a(mem_slab.c.obj)
 .debug_frame   0x0000480c      0x1f4 zephyr/kernel/libkernel.a(thread.c.obj)
 .debug_frame   0x00004a00       0x20 zephyr/kernel/libkernel.a(version.c.obj)
 .debug_frame   0x00004a20       0x44 zephyr/kernel/libkernel.a(idle.c.obj)
 .debug_frame   0x00004a64      0x100 zephyr/kernel/libkernel.a(msg_q.c.obj)
 .debug_frame   0x00004b64       0x64 zephyr/kernel/libkernel.a(mutex.c.obj)
 .debug_frame   0x00004bc8       0x8c zephyr/kernel/libkernel.a(sem.c.obj)
 .debug_frame   0x00004c54      0x5f8 zephyr/kernel/libkernel.a(sched.c.obj)
 .debug_frame   0x0000524c       0x2c zephyr/kernel/libkernel.a(xip.c.obj)
 .debug_frame   0x00005278      0x1c0 zephyr/kernel/libkernel.a(timeout.c.obj)
 .debug_frame   0x00005438       0xd0 zephyr/kernel/libkernel.a(timer.c.obj)
 .debug_frame   0x00005508      0x1d8 zephyr/kernel/libkernel.a(poll.c.obj)
 .debug_frame   0x000056e0       0x20 zephyr/kernel/libkernel.a(banner.c.obj)
 .debug_frame   0x00005700       0xb8 zephyr/kernel/libkernel.a(kheap.c.obj)
 .debug_frame   0x000057b8       0x2c zephyr/kernel/libkernel.a(system_work_q.c.obj)
 .debug_frame   0x000057e4      0x30c zephyr/kernel/libkernel.a(work.c.obj)
 .debug_frame   0x00005af0       0x20 zephyr/CMakeFiles/offsets.dir/./arch/arm/core/offsets/offsets.c.obj
 .debug_frame   0x00005b10       0x44 c:/ncs/v1.6.0/toolchain/opt/bin/../lib/gcc/arm-none-eabi/9.2.1/thumb/v8-m.main/nofp\libgcc.a(_aeabi_ldivmod.o)
 .debug_frame   0x00005b54       0x2c c:/ncs/v1.6.0/toolchain/opt/bin/../lib/gcc/arm-none-eabi/9.2.1/thumb/v8-m.main/nofp\libgcc.a(_aeabi_uldivmod.o)
 .debug_frame   0x00005b80       0x34 c:/ncs/v1.6.0/toolchain/opt/bin/../lib/gcc/arm-none-eabi/9.2.1/thumb/v8-m.main/nofp\libgcc.a(_udivmoddi4.o)

.debug_str      0x00000000     0xfc49
 *(SORT_BY_ALIGNMENT(.debug_str))
 .debug_str     0x00000000      0x2de zephyr/CMakeFiles/zephyr_final.dir/isr_tables.c.obj
                                0x360 (size before relaxing)
 .debug_str     0x000002de      0xbda zephyr/CMakeFiles/zephyr_final.dir/dev_handles.c.obj
                               0x10a3 (size before relaxing)
 .debug_str     0x00000eb8     0x1110 app/libapp.a(main.c.obj)
                               0x1b45 (size before relaxing)
 .debug_str     0x00001fc8      0x170 app/libapp.a(test_module.c.obj)
                                0x56d (size before relaxing)
 .debug_str     0x00002138      0x178 app/libapp.a(dynamic_cmd.c.obj)
                               0x17ba (size before relaxing)
 .debug_str     0x000022b0       0x42 app/libapp.a(qsort.c.obj)
                                0x1ff (size before relaxing)
 .debug_str     0x000022f2       0x42 zephyr/libzephyr.a(hex.c.obj)
                                0x294 (size before relaxing)
 .debug_str     0x00002334       0xa5 zephyr/libzephyr.a(notify.c.obj)
                                0x7aa (size before relaxing)
 .debug_str     0x000023d9       0xad zephyr/libzephyr.a(printk.c.obj)
                                0x981 (size before relaxing)
 .debug_str     0x00002486      0x3ef zephyr/libzephyr.a(onoff.c.obj)
                                0xb85 (size before relaxing)
 .debug_str     0x00002875       0x65 zephyr/libzephyr.a(thread_entry.c.obj)
                                0x733 (size before relaxing)
 .debug_str     0x000028da      0x212 zephyr/libzephyr.a(timeutil.c.obj)
                                0x49e (size before relaxing)
 .debug_str     0x00002aec      0x369 zephyr/libzephyr.a(heap.c.obj)
                                0xa85 (size before relaxing)
 .debug_str     0x00002e55      0x32f zephyr/libzephyr.a(cbprintf_complete.c.obj)
                                0x62c (size before relaxing)
 .debug_str     0x00003184      0x180 zephyr/libzephyr.a(ring_buffer.c.obj)
                                0x96a (size before relaxing)
 .debug_str     0x00003304       0x6b zephyr/libzephyr.a(reboot.c.obj)
                                0x72e (size before relaxing)
 .debug_str     0x0000336f       0x89 zephyr/libzephyr.a(fnmatch.c.obj)
                                0x25f (size before relaxing)
 .debug_str     0x000033f8       0x2f zephyr/libzephyr.a(configs.c.obj)
                                0x1cd (size before relaxing)
 .debug_str     0x00003427      0x245 zephyr/libzephyr.a(soc.c.obj)
                                0xb3a (size before relaxing)
 .debug_str     0x0000366c      0x166 zephyr/libzephyr.a(power.c.obj)
                                0xbd2 (size before relaxing)
 .debug_str     0x000037d2       0x7f zephyr/libzephyr.a(log_list.c.obj)
                                0x44a (size before relaxing)
 .debug_str     0x00003851      0xbfd zephyr/libzephyr.a(log_core.c.obj)
                               0x1db1 (size before relaxing)
 .debug_str     0x0000444e      0x16c zephyr/libzephyr.a(log_msg.c.obj)
                                0xf9f (size before relaxing)
 .debug_str     0x000045ba      0x315 zephyr/libzephyr.a(log_output.c.obj)
                               0x10bd (size before relaxing)
 .debug_str     0x000048cf      0x2ee zephyr/libzephyr.a(log_cmds.c.obj)
                               0x1a7b (size before relaxing)
 .debug_str     0x00004bbd      0x205 zephyr/libzephyr.a(kernel_service.c.obj)
                               0x2132 (size before relaxing)
 .debug_str     0x00004dc2      0x20b zephyr/libzephyr.a(device_service.c.obj)
                               0x2031 (size before relaxing)
 .debug_str     0x00004fcd      0x119 zephyr/libzephyr.a(date_service.c.obj)
                               0x1832 (size before relaxing)
 .debug_str     0x000050e6      0xd2c zephyr/libzephyr.a(shell.c.obj)
                               0x2702 (size before relaxing)
 .debug_str     0x00005e12       0x3d zephyr/libzephyr.a(shell_fprintf.c.obj)
                               0x1544 (size before relaxing)
 .debug_str     0x00005e4f      0x258 zephyr/libzephyr.a(shell_utils.c.obj)
                               0x1fd5 (size before relaxing)
 .debug_str     0x000060a7      0x204 zephyr/libzephyr.a(shell_ops.c.obj)
                               0x1b0d (size before relaxing)
 .debug_str     0x000062ab      0x627 zephyr/libzephyr.a(shell_uart.c.obj)
                               0x292a (size before relaxing)
 .debug_str     0x000068d2       0xc4 zephyr/libzephyr.a(shell_help.c.obj)
                               0x16e1 (size before relaxing)
 .debug_str     0x00006996      0x267 zephyr/libzephyr.a(shell_cmds.c.obj)
                               0x1ad2 (size before relaxing)
 .debug_str     0x00006bfd      0x188 zephyr/libzephyr.a(shell_history.c.obj)
                                0x9ca (size before relaxing)
 .debug_str     0x00006d85       0xf2 zephyr/libzephyr.a(shell_log_backend.c.obj)
                               0x1ab4 (size before relaxing)
 .debug_str     0x00006e77       0x5f zephyr/libzephyr.a(shell_wildcard.c.obj)
                               0x16d5 (size before relaxing)
 .debug_str     0x00006ed6      0x1e2 zephyr/libzephyr.a(power.c.obj)
                                0xf7f (size before relaxing)
 .debug_str     0x000070b8       0x61 zephyr/libzephyr.a(policy_residency.c.obj)
                                0xb6d (size before relaxing)
 .debug_str     0x00007119       0xb6 zephyr/libzephyr.a(uart_console.c.obj)
                               0x11e1 (size before relaxing)
 .debug_str     0x000071cf     0x1541 zephyr/libzephyr.a(clock_control_nrf.c.obj)
                               0x380b (size before relaxing)
 .debug_str     0x00008710      0x10d zephyr/libzephyr.a(sys_clock_init.c.obj)
                               0x10e4 (size before relaxing)
 .debug_str     0x0000881d      0x6d7 zephyr/libzephyr.a(nrf_rtc_timer.c.obj)
                               0x1c55 (size before relaxing)
 .debug_str     0x00008ef4      0x161 zephyr/libzephyr.a(secure_services_ns.c.obj)
                                0x8af (size before relaxing)
 .debug_str     0x00009055      0x14b zephyr/arch/arch/arm/core/aarch32/libarch__arm__core__aarch32.a(swap.c.obj)
                                0x860 (size before relaxing)
 .debug_str     0x000091a0      0x161 zephyr/arch/arch/arm/core/aarch32/libarch__arm__core__aarch32.a(irq_manage.c.obj)
                                0xc25 (size before relaxing)
 .debug_str     0x00009301       0xe6 zephyr/arch/arch/arm/core/aarch32/libarch__arm__core__aarch32.a(thread.c.obj)
                                0x804 (size before relaxing)
 .debug_str     0x000093e7       0xc0 zephyr/arch/arch/arm/core/aarch32/libarch__arm__core__aarch32.a(fatal.c.obj)
                                0xb01 (size before relaxing)
 .debug_str     0x000094a7       0x5a zephyr/arch/arch/arm/core/aarch32/libarch__arm__core__aarch32.a(nmi.c.obj)
                                0x703 (size before relaxing)
 .debug_str     0x00009501      0x299 zephyr/arch/arch/arm/core/aarch32/libarch__arm__core__aarch32.a(prep_c.c.obj)
                                0xae5 (size before relaxing)
 .debug_str     0x0000979a       0x47 zephyr/arch/arch/arm/core/aarch32/libarch__arm__core__aarch32.a(swap_helper.S.obj)
                                 0xa0 (size before relaxing)
 .debug_str     0x000097e1       0x36 zephyr/arch/arch/arm/core/aarch32/libarch__arm__core__aarch32.a(cpu_idle.S.obj)
                                 0x9d (size before relaxing)
 .debug_str     0x00009817       0x3a zephyr/arch/arch/arm/core/aarch32/libarch__arm__core__aarch32.a(nmi_on_reset.S.obj)
                                 0xa1 (size before relaxing)
 .debug_str     0x00009851       0x39 zephyr/arch/arch/arm/core/aarch32/libarch__arm__core__aarch32.a(isr_wrapper.S.obj)
                                 0xa0 (size before relaxing)
 .debug_str     0x0000988a       0x3c zephyr/arch/arch/arm/core/aarch32/cortex_m/libarch__arm__core__aarch32__cortex_m.a(reset.S.obj)
                                 0xa3 (size before relaxing)
 .debug_str     0x000098c6       0x3e zephyr/arch/arch/arm/core/aarch32/cortex_m/libarch__arm__core__aarch32__cortex_m.a(fault_s.S.obj)
                                 0xa5 (size before relaxing)
 .debug_str     0x00009904       0x3f zephyr/arch/arch/arm/core/aarch32/cortex_m/libarch__arm__core__aarch32__cortex_m.a(exc_exit.S.obj)
                                 0xa6 (size before relaxing)
 .debug_str     0x00009943      0x15f zephyr/arch/arch/arm/core/aarch32/cortex_m/libarch__arm__core__aarch32__cortex_m.a(fault.c.obj)
                                0xd4f (size before relaxing)
 .debug_str     0x00009aa2       0x3a zephyr/arch/arch/arm/core/aarch32/cortex_m/libarch__arm__core__aarch32__cortex_m.a(fpu.c.obj)
                                0x743 (size before relaxing)
 .debug_str     0x00009adc       0xe7 zephyr/arch/arch/arm/core/aarch32/cortex_m/libarch__arm__core__aarch32__cortex_m.a(scb.c.obj)
                                0xacd (size before relaxing)
 .debug_str     0x00009bc3       0x3f zephyr/arch/arch/arm/core/aarch32/cortex_m/libarch__arm__core__aarch32__cortex_m.a(irq_init.c.obj)
                                0x77e (size before relaxing)
 .debug_str     0x00009c02       0x7b zephyr/arch/arch/arm/core/aarch32/cortex_m/libarch__arm__core__aarch32__cortex_m.a(thread_abort.c.obj)
                                0x8a6 (size before relaxing)
 .debug_str     0x00009c7d      0x18d zephyr/arch/arch/arm/core/aarch32/cortex_m/cmse/libarch__arm__core__aarch32__cortex_m__cmse.a(arm_core_cmse.c.obj)
                                0x861 (size before relaxing)
 .debug_str     0x00009e0a      0x17a zephyr/arch/arch/arm/core/aarch32/mpu/libarch__arm__core__aarch32__mpu.a(arm_core_mpu.c.obj)
                               0x13cc (size before relaxing)
 .debug_str     0x00009f84      0x30a zephyr/arch/arch/arm/core/aarch32/mpu/libarch__arm__core__aarch32__mpu.a(arm_mpu.c.obj)
                               0x1889 (size before relaxing)
 .debug_str     0x0000a28e       0x50 zephyr/lib/libc/minimal/liblib__libc__minimal.a(strtol.c.obj)
                                0x2cd (size before relaxing)
 .debug_str     0x0000a2de       0x3d zephyr/lib/libc/minimal/liblib__libc__minimal.a(strstr.c.obj)
                                0x20f (size before relaxing)
 .debug_str     0x0000a31b       0xaa zephyr/lib/libc/minimal/liblib__libc__minimal.a(string.c.obj)
                                0x34f (size before relaxing)
 .debug_str     0x0000a3c5       0xa2 zephyr/lib/libc/minimal/liblib__libc__minimal.a(stdout_console.c.obj)
                                0x33c (size before relaxing)
 .debug_str     0x0000a467       0x6b zephyr/lib/libc/minimal/liblib__libc__minimal.a(sprintf.c.obj)
                                0x2f3 (size before relaxing)
 .debug_str     0x0000a4d2       0x3e zephyr/lib/libc/minimal/liblib__libc__minimal.a(fprintf.c.obj)
                                0x2da (size before relaxing)
 .debug_str     0x0000a510       0x70 zephyr/lib/libc/minimal/liblib__libc__minimal.a(gmtime.c.obj)
                                0x31d (size before relaxing)
 .debug_str     0x0000a580       0x90 zephyr/lib/posix/liblib__posix.a(clock.c.obj)
                                0x992 (size before relaxing)
 .debug_str     0x0000a610       0x3f zephyr/soc/arm/common/cortex_m/libsoc__arm__common__cortex_m.a(arm_mpu_regions.c.obj)
                                0x36f (size before relaxing)
 .debug_str     0x0000a64f      0xc52 zephyr/drivers/gpio/libdrivers__gpio.a(gpio_nrfx.c.obj)
                               0x2083 (size before relaxing)
 .debug_str     0x0000b2a1     0x138e zephyr/drivers/serial/libdrivers__serial.a(uart_nrfx_uarte.c.obj)
                               0x2e97 (size before relaxing)
 .debug_str     0x0000c62f       0xf1 zephyr/drivers/entropy/libdrivers__entropy.a(entropy_cc310.c.obj)
                                0xf9d (size before relaxing)
 .debug_str     0x0000c720       0x78 modules/nrf/lib/fatal_error/lib..__nrf__lib__fatal_error.a(fatal_error.c.obj)
                                0xe3b (size before relaxing)
 .debug_str     0x0000c798      0x25f modules/nrf/subsys/fw_info/lib..__nrf__subsys__fw_info.a(fw_info.c.obj)
                                0xc03 (size before relaxing)
 .debug_str     0x0000c9f7       0x5d modules/hal_nordic/nrfx/libmodules__hal_nordic__nrfx.a(system_nrf5340_application.c.obj)
                                0x6d1 (size before relaxing)
 .debug_str     0x0000ca54       0x6b modules/hal_nordic/nrfx/libmodules__hal_nordic__nrfx.a(nrfx_glue.c.obj)
                                0x8db (size before relaxing)
 .debug_str     0x0000cabf      0x29f modules/hal_nordic/nrfx/libmodules__hal_nordic__nrfx.a(nrfx_clock.c.obj)
                               0x1681 (size before relaxing)
 .debug_str     0x0000cd5e      0x2e2 modules/hal_nordic/nrfx/libmodules__hal_nordic__nrfx.a(nrfx_dppi.c.obj)
                                0xbeb (size before relaxing)
 .debug_str     0x0000d040      0xbc7 modules/hal_nordic/nrfx/libmodules__hal_nordic__nrfx.a(nrfx_gpiote.c.obj)
                               0x1ef5 (size before relaxing)
 .debug_str     0x0000dc07      0x1b3 zephyr/kernel/libkernel.a(device.c.obj)
                               0x1055 (size before relaxing)
 .debug_str     0x0000ddba       0x24 zephyr/kernel/libkernel.a(errno.c.obj)
                                0x83a (size before relaxing)
 .debug_str     0x0000ddde      0x19b zephyr/kernel/libkernel.a(fatal.c.obj)
                                0xfe3 (size before relaxing)
 .debug_str     0x0000df79      0x249 zephyr/kernel/libkernel.a(init.c.obj)
                               0x1e07 (size before relaxing)
 .debug_str     0x0000e1c2      0x12b zephyr/kernel/libkernel.a(mem_slab.c.obj)
                                0xaaa (size before relaxing)
 .debug_str     0x0000e2ed      0x308 zephyr/kernel/libkernel.a(thread.c.obj)
                                0xfde (size before relaxing)
 .debug_str     0x0000e5f5       0x26 zephyr/kernel/libkernel.a(version.c.obj)
                                0x274 (size before relaxing)
 .debug_str     0x0000e61b       0x4a zephyr/kernel/libkernel.a(idle.c.obj)
                               0x109f (size before relaxing)
 .debug_str     0x0000e665      0x10a zephyr/kernel/libkernel.a(msg_q.c.obj)
                                0xab4 (size before relaxing)
 .debug_str     0x0000e76f      0x11b zephyr/kernel/libkernel.a(mutex.c.obj)
                                0xca9 (size before relaxing)
 .debug_str     0x0000e88a       0x55 zephyr/kernel/libkernel.a(sem.c.obj)
                                0xa0c (size before relaxing)
 .debug_str     0x0000e8df      0x76d zephyr/kernel/libkernel.a(sched.c.obj)
                               0x1cbe (size before relaxing)
 .debug_str     0x0000f04c       0x22 zephyr/kernel/libkernel.a(xip.c.obj)
                                0x8e0 (size before relaxing)
 .debug_str     0x0000f06e       0xe0 zephyr/kernel/libkernel.a(timeout.c.obj)
                               0x12fe (size before relaxing)
 .debug_str     0x0000f14e       0x9d zephyr/kernel/libkernel.a(timer.c.obj)
                                0xb45 (size before relaxing)
 .debug_str     0x0000f1eb      0x2db zephyr/kernel/libkernel.a(poll.c.obj)
                                0xfdd (size before relaxing)
 .debug_str     0x0000f4c6       0x30 zephyr/kernel/libkernel.a(banner.c.obj)
                                0xe57 (size before relaxing)
 .debug_str     0x0000f4f6       0xbb zephyr/kernel/libkernel.a(kheap.c.obj)
                                0xa46 (size before relaxing)
 .debug_str     0x0000f5b1       0xa2 zephyr/kernel/libkernel.a(system_work_q.c.obj)
                                0x8ce (size before relaxing)
 .debug_str     0x0000f653      0x5b2 zephyr/kernel/libkernel.a(work.c.obj)
                               0x1294 (size before relaxing)
 .debug_str     0x0000fc05       0x44 zephyr/CMakeFiles/offsets.dir/./arch/arm/core/offsets/offsets.c.obj
                                0xe70 (size before relaxing)

.debug_loc      0x00000000    0x369c9
 *(SORT_BY_ALIGNMENT(.debug_loc))
 .debug_loc     0x00000000      0x807 app/libapp.a(main.c.obj)
 .debug_loc     0x00000807       0xaa app/libapp.a(test_module.c.obj)
 .debug_loc     0x000008b1      0x511 app/libapp.a(dynamic_cmd.c.obj)
 .debug_loc     0x00000dc2      0x6b1 app/libapp.a(qsort.c.obj)
 .debug_loc     0x00001473      0x347 zephyr/libzephyr.a(hex.c.obj)
 .debug_loc     0x000017ba      0x225 zephyr/libzephyr.a(notify.c.obj)
 .debug_loc     0x000019df      0x280 zephyr/libzephyr.a(printk.c.obj)
 .debug_loc     0x00001c5f     0x1fd2 zephyr/libzephyr.a(onoff.c.obj)
 .debug_loc     0x00003c31       0xc0 zephyr/libzephyr.a(thread_entry.c.obj)
 .debug_loc     0x00003cf1      0x714 zephyr/libzephyr.a(timeutil.c.obj)
 .debug_loc     0x00004405     0x2102 zephyr/libzephyr.a(heap.c.obj)
 .debug_loc     0x00006507     0x132c zephyr/libzephyr.a(cbprintf_complete.c.obj)
 .debug_loc     0x00007833      0xc25 zephyr/libzephyr.a(ring_buffer.c.obj)
 .debug_loc     0x00008458       0x22 zephyr/libzephyr.a(reboot.c.obj)
 .debug_loc     0x0000847a      0x6ae zephyr/libzephyr.a(fnmatch.c.obj)
 .debug_loc     0x00008b28      0x1c6 zephyr/libzephyr.a(soc.c.obj)
 .debug_loc     0x00008cee       0x30 zephyr/libzephyr.a(power.c.obj)
 .debug_loc     0x00008d1e       0x5c zephyr/libzephyr.a(log_list.c.obj)
 .debug_loc     0x00008d7a     0x2417 zephyr/libzephyr.a(log_core.c.obj)
 .debug_loc     0x0000b191      0xe2a zephyr/libzephyr.a(log_msg.c.obj)
 .debug_loc     0x0000bfbb     0x1f4b zephyr/libzephyr.a(log_output.c.obj)
 .debug_loc     0x0000df06     0x116d zephyr/libzephyr.a(log_cmds.c.obj)
 .debug_loc     0x0000f073      0x7ba zephyr/libzephyr.a(kernel_service.c.obj)
 .debug_loc     0x0000f82d      0x45b zephyr/libzephyr.a(device_service.c.obj)
 .debug_loc     0x0000fc88      0x40a zephyr/libzephyr.a(date_service.c.obj)
 .debug_loc     0x00010092     0x33d2 zephyr/libzephyr.a(shell.c.obj)
 .debug_loc     0x00013464      0x14e zephyr/libzephyr.a(shell_fprintf.c.obj)
 .debug_loc     0x000135b2      0xdc4 zephyr/libzephyr.a(shell_utils.c.obj)
 .debug_loc     0x00014376     0x12ed zephyr/libzephyr.a(shell_ops.c.obj)
 .debug_loc     0x00015663      0xcfc zephyr/libzephyr.a(shell_uart.c.obj)
 .debug_loc     0x0001635f      0x636 zephyr/libzephyr.a(shell_help.c.obj)
 .debug_loc     0x00016995      0xd35 zephyr/libzephyr.a(shell_cmds.c.obj)
 .debug_loc     0x000176ca      0x5fc zephyr/libzephyr.a(shell_history.c.obj)
 .debug_loc     0x00017cc6      0x9de zephyr/libzephyr.a(shell_log_backend.c.obj)
 .debug_loc     0x000186a4      0x468 zephyr/libzephyr.a(shell_wildcard.c.obj)
 .debug_loc     0x00018b0c      0x6d0 zephyr/libzephyr.a(power.c.obj)
 .debug_loc     0x000191dc      0x144 zephyr/libzephyr.a(uart_console.c.obj)
 .debug_loc     0x00019320     0x1b64 zephyr/libzephyr.a(clock_control_nrf.c.obj)
 .debug_loc     0x0001ae84       0x4a zephyr/libzephyr.a(sys_clock_init.c.obj)
 .debug_loc     0x0001aece      0xf80 zephyr/libzephyr.a(nrf_rtc_timer.c.obj)
 .debug_loc     0x0001be4e       0x6f zephyr/libzephyr.a(secure_services_ns.c.obj)
 .debug_loc     0x0001bebd       0x3b zephyr/arch/arch/arm/core/aarch32/libarch__arm__core__aarch32.a(swap.c.obj)
 .debug_loc     0x0001bef8      0x1c3 zephyr/arch/arch/arm/core/aarch32/libarch__arm__core__aarch32.a(irq_manage.c.obj)
 .debug_loc     0x0001c0bb       0xf8 zephyr/arch/arch/arm/core/aarch32/libarch__arm__core__aarch32.a(thread.c.obj)
 .debug_loc     0x0001c1b3      0x1fe zephyr/arch/arch/arm/core/aarch32/libarch__arm__core__aarch32.a(fatal.c.obj)
 .debug_loc     0x0001c3b1       0x3c zephyr/arch/arch/arm/core/aarch32/libarch__arm__core__aarch32.a(prep_c.c.obj)
 .debug_loc     0x0001c3ed      0xccf zephyr/arch/arch/arm/core/aarch32/cortex_m/libarch__arm__core__aarch32__cortex_m.a(fault.c.obj)
 .debug_loc     0x0001d0bc       0x6e zephyr/arch/arch/arm/core/aarch32/cortex_m/libarch__arm__core__aarch32__cortex_m.a(scb.c.obj)
 .debug_loc     0x0001d12a       0x6a zephyr/arch/arch/arm/core/aarch32/cortex_m/libarch__arm__core__aarch32__cortex_m.a(irq_init.c.obj)
 .debug_loc     0x0001d194       0x3a zephyr/arch/arch/arm/core/aarch32/cortex_m/libarch__arm__core__aarch32__cortex_m.a(thread_abort.c.obj)
 .debug_loc     0x0001d1ce      0x5ab zephyr/arch/arch/arm/core/aarch32/cortex_m/cmse/libarch__arm__core__aarch32__cortex_m__cmse.a(arm_core_cmse.c.obj)
 .debug_loc     0x0001d779       0x25 zephyr/arch/arch/arm/core/aarch32/mpu/libarch__arm__core__aarch32__mpu.a(arm_core_mpu.c.obj)
 .debug_loc     0x0001d79e      0xba9 zephyr/arch/arch/arm/core/aarch32/mpu/libarch__arm__core__aarch32__mpu.a(arm_mpu.c.obj)
 .debug_loc     0x0001e347      0x3e0 zephyr/lib/libc/minimal/liblib__libc__minimal.a(strtol.c.obj)
 .debug_loc     0x0001e727       0xf4 zephyr/lib/libc/minimal/liblib__libc__minimal.a(strstr.c.obj)
 .debug_loc     0x0001e81b      0xc0f zephyr/lib/libc/minimal/liblib__libc__minimal.a(string.c.obj)
 .debug_loc     0x0001f42a      0x592 zephyr/lib/libc/minimal/liblib__libc__minimal.a(stdout_console.c.obj)
 .debug_loc     0x0001f9bc      0x26b zephyr/lib/libc/minimal/liblib__libc__minimal.a(sprintf.c.obj)
 .debug_loc     0x0001fc27      0x11c zephyr/lib/libc/minimal/liblib__libc__minimal.a(fprintf.c.obj)
 .debug_loc     0x0001fd43      0x392 zephyr/lib/libc/minimal/liblib__libc__minimal.a(gmtime.c.obj)
 .debug_loc     0x000200d5      0x439 zephyr/lib/posix/liblib__posix.a(clock.c.obj)
 .debug_loc     0x0002050e     0x199a zephyr/drivers/gpio/libdrivers__gpio.a(gpio_nrfx.c.obj)
 .debug_loc     0x00021ea8     0x22d8 zephyr/drivers/serial/libdrivers__serial.a(uart_nrfx_uarte.c.obj)
 .debug_loc     0x00024180       0xfd zephyr/drivers/entropy/libdrivers__entropy.a(entropy_cc310.c.obj)
 .debug_loc     0x0002427d       0x7d modules/nrf/lib/fatal_error/lib..__nrf__lib__fatal_error.a(fatal_error.c.obj)
 .debug_loc     0x000242fa      0x4af modules/nrf/subsys/fw_info/lib..__nrf__subsys__fw_info.a(fw_info.c.obj)
 .debug_loc     0x000247a9      0x264 modules/hal_nordic/nrfx/libmodules__hal_nordic__nrfx.a(nrfx_glue.c.obj)
 .debug_loc     0x00024a0d      0xecb modules/hal_nordic/nrfx/libmodules__hal_nordic__nrfx.a(nrfx_clock.c.obj)
 .debug_loc     0x000258d8      0xaf1 modules/hal_nordic/nrfx/libmodules__hal_nordic__nrfx.a(nrfx_dppi.c.obj)
 .debug_loc     0x000263c9     0x2ead modules/hal_nordic/nrfx/libmodules__hal_nordic__nrfx.a(nrfx_gpiote.c.obj)
 .debug_loc     0x00029276      0x3f2 zephyr/kernel/libkernel.a(device.c.obj)
 .debug_loc     0x00029668      0x2f8 zephyr/kernel/libkernel.a(fatal.c.obj)
 .debug_loc     0x00029960      0x5da zephyr/kernel/libkernel.a(init.c.obj)
 .debug_loc     0x00029f3a      0x538 zephyr/kernel/libkernel.a(mem_slab.c.obj)
 .debug_loc     0x0002a472      0xd75 zephyr/kernel/libkernel.a(thread.c.obj)
 .debug_loc     0x0002b1e7       0xa9 zephyr/kernel/libkernel.a(idle.c.obj)
 .debug_loc     0x0002b290      0x928 zephyr/kernel/libkernel.a(msg_q.c.obj)
 .debug_loc     0x0002bbb8      0x526 zephyr/kernel/libkernel.a(mutex.c.obj)
 .debug_loc     0x0002c0de      0x3fb zephyr/kernel/libkernel.a(sem.c.obj)
 .debug_loc     0x0002c4d9     0x39a9 zephyr/kernel/libkernel.a(sched.c.obj)
 .debug_loc     0x0002fe82      0xde5 zephyr/kernel/libkernel.a(timeout.c.obj)
 .debug_loc     0x00030c67      0x58e zephyr/kernel/libkernel.a(timer.c.obj)
 .debug_loc     0x000311f5     0x192e zephyr/kernel/libkernel.a(poll.c.obj)
 .debug_loc     0x00032b23      0x44a zephyr/kernel/libkernel.a(kheap.c.obj)
 .debug_loc     0x00032f6d       0x25 zephyr/kernel/libkernel.a(system_work_q.c.obj)
 .debug_loc     0x00032f92     0x3a37 zephyr/kernel/libkernel.a(work.c.obj)

.debug_macinfo
 *(SORT_BY_ALIGNMENT(.debug_macinfo))

.debug_weaknames
 *(SORT_BY_ALIGNMENT(.debug_weaknames))

.debug_funcnames
 *(SORT_BY_ALIGNMENT(.debug_funcnames))

.debug_typenames
 *(SORT_BY_ALIGNMENT(.debug_typenames))

.debug_varnames
 *(SORT_BY_ALIGNMENT(.debug_varnames))

.debug_pubtypes
 *(SORT_BY_ALIGNMENT(.debug_pubtypes))

.debug_ranges   0x00000000     0xbc58
 *(SORT_BY_ALIGNMENT(.debug_ranges))
 .debug_ranges  0x00000000       0x20 zephyr/arch/arch/arm/core/aarch32/libarch__arm__core__aarch32.a(swap_helper.S.obj)
 .debug_ranges  0x00000020       0x28 zephyr/arch/arch/arm/core/aarch32/libarch__arm__core__aarch32.a(cpu_idle.S.obj)
 .debug_ranges  0x00000048      0x148 app/libapp.a(main.c.obj)
 .debug_ranges  0x00000190       0xe0 app/libapp.a(test_module.c.obj)
 .debug_ranges  0x00000270       0xc0 app/libapp.a(dynamic_cmd.c.obj)
 .debug_ranges  0x00000330       0x20 app/libapp.a(qsort.c.obj)
 .debug_ranges  0x00000350       0x40 zephyr/libzephyr.a(hex.c.obj)
 .debug_ranges  0x00000390       0x30 zephyr/libzephyr.a(notify.c.obj)
 .debug_ranges  0x000003c0       0x58 zephyr/libzephyr.a(printk.c.obj)
 .debug_ranges  0x00000418      0x6d0 zephyr/libzephyr.a(onoff.c.obj)
 .debug_ranges  0x00000ae8       0x10 zephyr/libzephyr.a(thread_entry.c.obj)
 .debug_ranges  0x00000af8       0xb0 zephyr/libzephyr.a(timeutil.c.obj)
 .debug_ranges  0x00000ba8      0x5f8 zephyr/libzephyr.a(heap.c.obj)
 .debug_ranges  0x000011a0      0x1d0 zephyr/libzephyr.a(cbprintf_complete.c.obj)
 .debug_ranges  0x00001370      0x170 zephyr/libzephyr.a(ring_buffer.c.obj)
 .debug_ranges  0x000014e0       0x28 zephyr/libzephyr.a(reboot.c.obj)
 .debug_ranges  0x00001508       0x58 zephyr/libzephyr.a(fnmatch.c.obj)
 .debug_ranges  0x00001560       0x10 zephyr/libzephyr.a(configs.c.obj)
 .debug_ranges  0x00001570       0x20 zephyr/libzephyr.a(soc.c.obj)
 .debug_ranges  0x00001590       0x30 zephyr/libzephyr.a(power.c.obj)
 .debug_ranges  0x000015c0       0x28 zephyr/libzephyr.a(log_list.c.obj)
 .debug_ranges  0x000015e8      0xbe8 zephyr/libzephyr.a(log_core.c.obj)
 .debug_ranges  0x000021d0      0x198 zephyr/libzephyr.a(log_msg.c.obj)
 .debug_ranges  0x00002368      0x2b8 zephyr/libzephyr.a(log_output.c.obj)
 .debug_ranges  0x00002620      0x388 zephyr/libzephyr.a(log_cmds.c.obj)
 .debug_ranges  0x000029a8      0x118 zephyr/libzephyr.a(kernel_service.c.obj)
 .debug_ranges  0x00002ac0       0xe0 zephyr/libzephyr.a(device_service.c.obj)
 .debug_ranges  0x00002ba0       0x50 zephyr/libzephyr.a(date_service.c.obj)
 .debug_ranges  0x00002bf0      0x780 zephyr/libzephyr.a(shell.c.obj)
 .debug_ranges  0x00003370       0x20 zephyr/libzephyr.a(shell_fprintf.c.obj)
 .debug_ranges  0x00003390      0x230 zephyr/libzephyr.a(shell_utils.c.obj)
 .debug_ranges  0x000035c0      0x218 zephyr/libzephyr.a(shell_ops.c.obj)
 .debug_ranges  0x000037d8      0x1f8 zephyr/libzephyr.a(shell_uart.c.obj)
 .debug_ranges  0x000039d0      0x120 zephyr/libzephyr.a(shell_help.c.obj)
 .debug_ranges  0x00003af0      0x1b8 zephyr/libzephyr.a(shell_cmds.c.obj)
 .debug_ranges  0x00003ca8      0x140 zephyr/libzephyr.a(shell_history.c.obj)
 .debug_ranges  0x00003de8      0x300 zephyr/libzephyr.a(shell_log_backend.c.obj)
 .debug_ranges  0x000040e8       0xb8 zephyr/libzephyr.a(shell_wildcard.c.obj)
 .debug_ranges  0x000041a0      0x258 zephyr/libzephyr.a(power.c.obj)
 .debug_ranges  0x000043f8       0x10 zephyr/libzephyr.a(policy_residency.c.obj)
 .debug_ranges  0x00004408       0x48 zephyr/libzephyr.a(uart_console.c.obj)
 .debug_ranges  0x00004450      0x778 zephyr/libzephyr.a(clock_control_nrf.c.obj)
 .debug_ranges  0x00004bc8       0x30 zephyr/libzephyr.a(sys_clock_init.c.obj)
 .debug_ranges  0x00004bf8      0x580 zephyr/libzephyr.a(nrf_rtc_timer.c.obj)
 .debug_ranges  0x00005178       0x30 zephyr/libzephyr.a(secure_services_ns.c.obj)
 .debug_ranges  0x000051a8       0x10 zephyr/arch/arch/arm/core/aarch32/libarch__arm__core__aarch32.a(swap.c.obj)
 .debug_ranges  0x000051b8       0x50 zephyr/arch/arch/arm/core/aarch32/libarch__arm__core__aarch32.a(irq_manage.c.obj)
 .debug_ranges  0x00005208       0x20 zephyr/arch/arch/arm/core/aarch32/libarch__arm__core__aarch32.a(thread.c.obj)
 .debug_ranges  0x00005228      0x140 zephyr/arch/arch/arm/core/aarch32/libarch__arm__core__aarch32.a(fatal.c.obj)
 .debug_ranges  0x00005368       0x10 zephyr/arch/arch/arm/core/aarch32/libarch__arm__core__aarch32.a(nmi.c.obj)
 .debug_ranges  0x00005378       0x40 zephyr/arch/arch/arm/core/aarch32/libarch__arm__core__aarch32.a(prep_c.c.obj)
 .debug_ranges  0x000053b8      0x860 zephyr/arch/arch/arm/core/aarch32/cortex_m/libarch__arm__core__aarch32__cortex_m.a(fault.c.obj)
 .debug_ranges  0x00005c18       0x10 zephyr/arch/arch/arm/core/aarch32/cortex_m/libarch__arm__core__aarch32__cortex_m.a(fpu.c.obj)
 .debug_ranges  0x00005c28       0x50 zephyr/arch/arch/arm/core/aarch32/cortex_m/libarch__arm__core__aarch32__cortex_m.a(scb.c.obj)
 .debug_ranges  0x00005c78       0x30 zephyr/arch/arch/arm/core/aarch32/cortex_m/libarch__arm__core__aarch32__cortex_m.a(irq_init.c.obj)
 .debug_ranges  0x00005ca8       0x28 zephyr/arch/arch/arm/core/aarch32/cortex_m/libarch__arm__core__aarch32__cortex_m.a(thread_abort.c.obj)
 .debug_ranges  0x00005cd0       0xd8 zephyr/arch/arch/arm/core/aarch32/cortex_m/cmse/libarch__arm__core__aarch32__cortex_m__cmse.a(arm_core_cmse.c.obj)
 .debug_ranges  0x00005da8       0x18 zephyr/arch/arch/arm/core/aarch32/mpu/libarch__arm__core__aarch32__mpu.a(arm_core_mpu.c.obj)
 .debug_ranges  0x00005dc0      0x3c0 zephyr/arch/arch/arm/core/aarch32/mpu/libarch__arm__core__aarch32__mpu.a(arm_mpu.c.obj)
 .debug_ranges  0x00006180       0x10 zephyr/lib/libc/minimal/liblib__libc__minimal.a(strtol.c.obj)
 .debug_ranges  0x00006190       0x10 zephyr/lib/libc/minimal/liblib__libc__minimal.a(strstr.c.obj)
 .debug_ranges  0x000061a0       0x88 zephyr/lib/libc/minimal/liblib__libc__minimal.a(string.c.obj)
 .debug_ranges  0x00006228       0x78 zephyr/lib/libc/minimal/liblib__libc__minimal.a(stdout_console.c.obj)
 .debug_ranges  0x000062a0       0x30 zephyr/lib/libc/minimal/liblib__libc__minimal.a(sprintf.c.obj)
 .debug_ranges  0x000062d0       0x28 zephyr/lib/libc/minimal/liblib__libc__minimal.a(fprintf.c.obj)
 .debug_ranges  0x000062f8       0x38 zephyr/lib/libc/minimal/liblib__libc__minimal.a(gmtime.c.obj)
 .debug_ranges  0x00006330       0x90 zephyr/lib/posix/liblib__posix.a(clock.c.obj)
 .debug_ranges  0x000063c0      0x698 zephyr/drivers/gpio/libdrivers__gpio.a(gpio_nrfx.c.obj)
 .debug_ranges  0x00006a58      0x678 zephyr/drivers/serial/libdrivers__serial.a(uart_nrfx_uarte.c.obj)
 .debug_ranges  0x000070d0       0x18 zephyr/drivers/entropy/libdrivers__entropy.a(entropy_cc310.c.obj)
 .debug_ranges  0x000070e8       0x60 modules/nrf/lib/fatal_error/lib..__nrf__lib__fatal_error.a(fatal_error.c.obj)
 .debug_ranges  0x00007148      0x190 modules/nrf/subsys/fw_info/lib..__nrf__subsys__fw_info.a(fw_info.c.obj)
 .debug_ranges  0x000072d8       0x18 modules/hal_nordic/nrfx/libmodules__hal_nordic__nrfx.a(system_nrf5340_application.c.obj)
 .debug_ranges  0x000072f0       0x20 modules/hal_nordic/nrfx/libmodules__hal_nordic__nrfx.a(nrfx_glue.c.obj)
 .debug_ranges  0x00007310      0x3d0 modules/hal_nordic/nrfx/libmodules__hal_nordic__nrfx.a(nrfx_clock.c.obj)
 .debug_ranges  0x000076e0      0x268 modules/hal_nordic/nrfx/libmodules__hal_nordic__nrfx.a(nrfx_dppi.c.obj)
 .debug_ranges  0x00007948      0xbe8 modules/hal_nordic/nrfx/libmodules__hal_nordic__nrfx.a(nrfx_gpiote.c.obj)
 .debug_ranges  0x00008530       0xc0 zephyr/kernel/libkernel.a(device.c.obj)
 .debug_ranges  0x000085f0       0x10 zephyr/kernel/libkernel.a(errno.c.obj)
 .debug_ranges  0x00008600      0x200 zephyr/kernel/libkernel.a(fatal.c.obj)
 .debug_ranges  0x00008800      0x218 zephyr/kernel/libkernel.a(init.c.obj)
 .debug_ranges  0x00008a18      0x120 zephyr/kernel/libkernel.a(mem_slab.c.obj)
 .debug_ranges  0x00008b38      0x428 zephyr/kernel/libkernel.a(thread.c.obj)
 .debug_ranges  0x00008f60       0x10 zephyr/kernel/libkernel.a(version.c.obj)
 .debug_ranges  0x00008f70       0x30 zephyr/kernel/libkernel.a(idle.c.obj)
 .debug_ranges  0x00008fa0      0x1a8 zephyr/kernel/libkernel.a(msg_q.c.obj)
 .debug_ranges  0x00009148       0xf8 zephyr/kernel/libkernel.a(mutex.c.obj)
 .debug_ranges  0x00009240       0xd0 zephyr/kernel/libkernel.a(sem.c.obj)
 .debug_ranges  0x00009310     0x11f8 zephyr/kernel/libkernel.a(sched.c.obj)
 .debug_ranges  0x0000a508       0x10 zephyr/kernel/libkernel.a(xip.c.obj)
 .debug_ranges  0x0000a518      0x418 zephyr/kernel/libkernel.a(timeout.c.obj)
 .debug_ranges  0x0000a930      0x130 zephyr/kernel/libkernel.a(timer.c.obj)
 .debug_ranges  0x0000aa60      0x4e0 zephyr/kernel/libkernel.a(poll.c.obj)
 .debug_ranges  0x0000af40       0x10 zephyr/kernel/libkernel.a(banner.c.obj)
 .debug_ranges  0x0000af50       0xa0 zephyr/kernel/libkernel.a(kheap.c.obj)
 .debug_ranges  0x0000aff0       0x10 zephyr/kernel/libkernel.a(system_work_q.c.obj)
 .debug_ranges  0x0000b000      0xc48 zephyr/kernel/libkernel.a(work.c.obj)
 .debug_ranges  0x0000bc48       0x10 zephyr/CMakeFiles/offsets.dir/./arch/arm/core/offsets/offsets.c.obj

.debug_macro
 *(SORT_BY_ALIGNMENT(.debug_macro))

.ARM.attributes
                0x00000000       0x34
 *(SORT_BY_ALIGNMENT(.ARM.attributes))
 .ARM.attributes
                0x00000000       0x36 zephyr/CMakeFiles/zephyr_final.dir/misc/empty_file.c.obj
 .ARM.attributes
                0x00000036       0x36 zephyr/CMakeFiles/zephyr_final.dir/isr_tables.c.obj
 .ARM.attributes
                0x0000006c       0x36 zephyr/CMakeFiles/zephyr_final.dir/dev_handles.c.obj
 .ARM.attributes
                0x000000a2       0x34 app/libapp.a(main.c.obj)
 .ARM.attributes
                0x000000d6       0x34 app/libapp.a(test_module.c.obj)
 .ARM.attributes
                0x0000010a       0x34 app/libapp.a(dynamic_cmd.c.obj)
 .ARM.attributes
                0x0000013e       0x34 app/libapp.a(qsort.c.obj)
 .ARM.attributes
                0x00000172       0x34 zephyr/libzephyr.a(cbprintf.c.obj)
 .ARM.attributes
                0x000001a6       0x34 zephyr/libzephyr.a(cbprintf_packaged.c.obj)
 .ARM.attributes
                0x000001da       0x34 zephyr/libzephyr.a(crc32c_sw.c.obj)
 .ARM.attributes
                0x0000020e       0x34 zephyr/libzephyr.a(crc32_sw.c.obj)
 .ARM.attributes
                0x00000242       0x34 zephyr/libzephyr.a(crc16_sw.c.obj)
 .ARM.attributes
                0x00000276       0x34 zephyr/libzephyr.a(crc8_sw.c.obj)
 .ARM.attributes
                0x000002aa       0x34 zephyr/libzephyr.a(crc7_sw.c.obj)
 .ARM.attributes
                0x000002de       0x34 zephyr/libzephyr.a(dec.c.obj)
 .ARM.attributes
                0x00000312       0x34 zephyr/libzephyr.a(fdtable.c.obj)
 .ARM.attributes
                0x00000346       0x34 zephyr/libzephyr.a(hex.c.obj)
 .ARM.attributes
                0x0000037a       0x34 zephyr/libzephyr.a(notify.c.obj)
 .ARM.attributes
                0x000003ae       0x34 zephyr/libzephyr.a(printk.c.obj)
 .ARM.attributes
                0x000003e2       0x34 zephyr/libzephyr.a(onoff.c.obj)
 .ARM.attributes
                0x00000416       0x34 zephyr/libzephyr.a(rb.c.obj)
 .ARM.attributes
                0x0000044a       0x34 zephyr/libzephyr.a(sem.c.obj)
 .ARM.attributes
                0x0000047e       0x34 zephyr/libzephyr.a(thread_entry.c.obj)
 .ARM.attributes
                0x000004b2       0x34 zephyr/libzephyr.a(timeutil.c.obj)
 .ARM.attributes
                0x000004e6       0x34 zephyr/libzephyr.a(heap.c.obj)
 .ARM.attributes
                0x0000051a       0x34 zephyr/libzephyr.a(heap-validate.c.obj)
 .ARM.attributes
                0x0000054e       0x34 zephyr/libzephyr.a(bitarray.c.obj)
 .ARM.attributes
                0x00000582       0x34 zephyr/libzephyr.a(cbprintf_complete.c.obj)
 .ARM.attributes
                0x000005b6       0x34 zephyr/libzephyr.a(ring_buffer.c.obj)
 .ARM.attributes
                0x000005ea       0x34 zephyr/libzephyr.a(mpsc_pbuf.c.obj)
 .ARM.attributes
                0x0000061e       0x34 zephyr/libzephyr.a(reboot.c.obj)
 .ARM.attributes
                0x00000652       0x34 zephyr/libzephyr.a(fnmatch.c.obj)
 .ARM.attributes
                0x00000686       0x34 zephyr/libzephyr.a(configs.c.obj)
 .ARM.attributes
                0x000006ba       0x34 zephyr/libzephyr.a(soc.c.obj)
 .ARM.attributes
                0x000006ee       0x34 zephyr/libzephyr.a(power.c.obj)
 .ARM.attributes
                0x00000722       0x36 zephyr/libzephyr.a(validate_base_addresses.c.obj)
 .ARM.attributes
                0x00000758       0x36 zephyr/libzephyr.a(validate_enabled_instances.c.obj)
 .ARM.attributes
                0x0000078e       0x34 zephyr/libzephyr.a(log_list.c.obj)
 .ARM.attributes
                0x000007c2       0x34 zephyr/libzephyr.a(log_core.c.obj)
 .ARM.attributes
                0x000007f6       0x34 zephyr/libzephyr.a(log_msg.c.obj)
 .ARM.attributes
                0x0000082a       0x34 zephyr/libzephyr.a(log_output.c.obj)
 .ARM.attributes
                0x0000085e       0x34 zephyr/libzephyr.a(log_cmds.c.obj)
 .ARM.attributes
                0x00000892       0x34 zephyr/libzephyr.a(kernel_service.c.obj)
 .ARM.attributes
                0x000008c6       0x34 zephyr/libzephyr.a(device_service.c.obj)
 .ARM.attributes
                0x000008fa       0x34 zephyr/libzephyr.a(date_service.c.obj)
 .ARM.attributes
                0x0000092e       0x34 zephyr/libzephyr.a(shell.c.obj)
 .ARM.attributes
                0x00000962       0x34 zephyr/libzephyr.a(shell_fprintf.c.obj)
 .ARM.attributes
                0x00000996       0x34 zephyr/libzephyr.a(shell_utils.c.obj)
 .ARM.attributes
                0x000009ca       0x34 zephyr/libzephyr.a(shell_ops.c.obj)
 .ARM.attributes
                0x000009fe       0x34 zephyr/libzephyr.a(shell_uart.c.obj)
 .ARM.attributes
                0x00000a32       0x34 zephyr/libzephyr.a(shell_help.c.obj)
 .ARM.attributes
                0x00000a66       0x34 zephyr/libzephyr.a(shell_cmds.c.obj)
 .ARM.attributes
                0x00000a9a       0x34 zephyr/libzephyr.a(shell_history.c.obj)
 .ARM.attributes
                0x00000ace       0x34 zephyr/libzephyr.a(shell_log_backend.c.obj)
 .ARM.attributes
                0x00000b02       0x34 zephyr/libzephyr.a(shell_wildcard.c.obj)
 .ARM.attributes
                0x00000b36       0x34 zephyr/libzephyr.a(power.c.obj)
 .ARM.attributes
                0x00000b6a       0x34 zephyr/libzephyr.a(pm_ctrl.c.obj)
 .ARM.attributes
                0x00000b9e       0x34 zephyr/libzephyr.a(policy_residency.c.obj)
 .ARM.attributes
                0x00000bd2       0x34 zephyr/libzephyr.a(uart_console.c.obj)
 .ARM.attributes
                0x00000c06       0x34 zephyr/libzephyr.a(clock_control_nrf.c.obj)
 .ARM.attributes
                0x00000c3a       0x34 zephyr/libzephyr.a(sys_clock_init.c.obj)
 .ARM.attributes
                0x00000c6e       0x34 zephyr/libzephyr.a(nrf_rtc_timer.c.obj)
 .ARM.attributes
                0x00000ca2       0x34 zephyr/libzephyr.a(secure_services_ns.c.obj)
 .ARM.attributes
                0x00000cd6       0x36 zephyr/libzephyr.a(flash_map_partition_manager.c.obj)
 .ARM.attributes
                0x00000d0c       0x36 zephyr/arch/common/libarch__common.a(sw_isr_common.c.obj)
 .ARM.attributes
                0x00000d42       0x34 zephyr/arch/arch/arm/core/aarch32/libarch__arm__core__aarch32.a(swap.c.obj)
 .ARM.attributes
                0x00000d76       0x34 zephyr/arch/arch/arm/core/aarch32/libarch__arm__core__aarch32.a(irq_manage.c.obj)
 .ARM.attributes
                0x00000daa       0x34 zephyr/arch/arch/arm/core/aarch32/libarch__arm__core__aarch32.a(thread.c.obj)
 .ARM.attributes
                0x00000dde       0x34 zephyr/arch/arch/arm/core/aarch32/libarch__arm__core__aarch32.a(fatal.c.obj)
 .ARM.attributes
                0x00000e12       0x34 zephyr/arch/arch/arm/core/aarch32/libarch__arm__core__aarch32.a(nmi.c.obj)
 .ARM.attributes
                0x00000e46       0x34 zephyr/arch/arch/arm/core/aarch32/libarch__arm__core__aarch32.a(prep_c.c.obj)
 .ARM.attributes
                0x00000e7a       0x22 zephyr/arch/arch/arm/core/aarch32/libarch__arm__core__aarch32.a(swap_helper.S.obj)
 .ARM.attributes
                0x00000e9c       0x22 zephyr/arch/arch/arm/core/aarch32/libarch__arm__core__aarch32.a(cpu_idle.S.obj)
 .ARM.attributes
                0x00000ebe       0x22 zephyr/arch/arch/arm/core/aarch32/libarch__arm__core__aarch32.a(nmi_on_reset.S.obj)
 .ARM.attributes
                0x00000ee0       0x22 zephyr/arch/arch/arm/core/aarch32/libarch__arm__core__aarch32.a(isr_wrapper.S.obj)
 .ARM.attributes
                0x00000f02       0x22 zephyr/arch/arch/arm/core/aarch32/cortex_m/libarch__arm__core__aarch32__cortex_m.a(vector_table.S.obj)
 .ARM.attributes
                0x00000f24       0x22 zephyr/arch/arch/arm/core/aarch32/cortex_m/libarch__arm__core__aarch32__cortex_m.a(reset.S.obj)
 .ARM.attributes
                0x00000f46       0x22 zephyr/arch/arch/arm/core/aarch32/cortex_m/libarch__arm__core__aarch32__cortex_m.a(fault_s.S.obj)
 .ARM.attributes
                0x00000f68       0x22 zephyr/arch/arch/arm/core/aarch32/cortex_m/libarch__arm__core__aarch32__cortex_m.a(exc_exit.S.obj)
 .ARM.attributes
                0x00000f8a       0x34 zephyr/arch/arch/arm/core/aarch32/cortex_m/libarch__arm__core__aarch32__cortex_m.a(fault.c.obj)
 .ARM.attributes
                0x00000fbe       0x34 zephyr/arch/arch/arm/core/aarch32/cortex_m/libarch__arm__core__aarch32__cortex_m.a(fpu.c.obj)
 .ARM.attributes
                0x00000ff2       0x34 zephyr/arch/arch/arm/core/aarch32/cortex_m/libarch__arm__core__aarch32__cortex_m.a(scb.c.obj)
 .ARM.attributes
                0x00001026       0x34 zephyr/arch/arch/arm/core/aarch32/cortex_m/libarch__arm__core__aarch32__cortex_m.a(irq_init.c.obj)
 .ARM.attributes
                0x0000105a       0x34 zephyr/arch/arch/arm/core/aarch32/cortex_m/libarch__arm__core__aarch32__cortex_m.a(thread_abort.c.obj)
 .ARM.attributes
                0x0000108e       0x34 zephyr/arch/arch/arm/core/aarch32/cortex_m/cmse/libarch__arm__core__aarch32__cortex_m__cmse.a(arm_core_cmse.c.obj)
 .ARM.attributes
                0x000010c2       0x34 zephyr/arch/arch/arm/core/aarch32/mpu/libarch__arm__core__aarch32__mpu.a(arm_core_mpu.c.obj)
 .ARM.attributes
                0x000010f6       0x34 zephyr/arch/arch/arm/core/aarch32/mpu/libarch__arm__core__aarch32__mpu.a(arm_mpu.c.obj)
 .ARM.attributes
                0x0000112a       0x34 zephyr/lib/libc/minimal/liblib__libc__minimal.a(abort.c.obj)
 .ARM.attributes
                0x0000115e       0x34 zephyr/lib/libc/minimal/liblib__libc__minimal.a(atoi.c.obj)
 .ARM.attributes
                0x00001192       0x34 zephyr/lib/libc/minimal/liblib__libc__minimal.a(strtol.c.obj)
 .ARM.attributes
                0x000011c6       0x34 zephyr/lib/libc/minimal/liblib__libc__minimal.a(strtoul.c.obj)
 .ARM.attributes
                0x000011fa       0x34 zephyr/lib/libc/minimal/liblib__libc__minimal.a(malloc.c.obj)
 .ARM.attributes
                0x0000122e       0x34 zephyr/lib/libc/minimal/liblib__libc__minimal.a(bsearch.c.obj)
 .ARM.attributes
                0x00001262       0x34 zephyr/lib/libc/minimal/liblib__libc__minimal.a(exit.c.obj)
 .ARM.attributes
                0x00001296       0x34 zephyr/lib/libc/minimal/liblib__libc__minimal.a(strncasecmp.c.obj)
 .ARM.attributes
                0x000012ca       0x34 zephyr/lib/libc/minimal/liblib__libc__minimal.a(strstr.c.obj)
 .ARM.attributes
                0x000012fe       0x34 zephyr/lib/libc/minimal/liblib__libc__minimal.a(string.c.obj)
 .ARM.attributes
                0x00001332       0x34 zephyr/lib/libc/minimal/liblib__libc__minimal.a(strspn.c.obj)
 .ARM.attributes
                0x00001366       0x34 zephyr/lib/libc/minimal/liblib__libc__minimal.a(stdout_console.c.obj)
 .ARM.attributes
                0x0000139a       0x34 zephyr/lib/libc/minimal/liblib__libc__minimal.a(sprintf.c.obj)
 .ARM.attributes
                0x000013ce       0x34 zephyr/lib/libc/minimal/liblib__libc__minimal.a(fprintf.c.obj)
 .ARM.attributes
                0x00001402       0x34 zephyr/lib/libc/minimal/liblib__libc__minimal.a(gmtime.c.obj)
 .ARM.attributes
                0x00001436       0x34 zephyr/lib/libc/minimal/liblib__libc__minimal.a(time.c.obj)
 .ARM.attributes
                0x0000146a       0x34 zephyr/lib/posix/liblib__posix.a(pthread_common.c.obj)
 .ARM.attributes
                0x0000149e       0x34 zephyr/lib/posix/liblib__posix.a(clock.c.obj)
 .ARM.attributes
                0x000014d2       0x34 zephyr/lib/posix/liblib__posix.a(sleep.c.obj)
 .ARM.attributes
                0x00001506       0x34 zephyr/lib/posix/liblib__posix.a(timer.c.obj)
 .ARM.attributes
                0x0000153a       0x34 zephyr/lib/posix/liblib__posix.a(nanosleep.c.obj)
 .ARM.attributes
                0x0000156e       0x36 zephyr/soc/arm/common/cortex_m/libsoc__arm__common__cortex_m.a(arm_mpu_regions.c.obj)
 .ARM.attributes
                0x000015a4       0x34 zephyr/subsys/random/libsubsys__random.a(rand32_entropy_device.c.obj)
 .ARM.attributes
                0x000015d8       0x34 zephyr/drivers/gpio/libdrivers__gpio.a(gpio_nrfx.c.obj)
 .ARM.attributes
                0x0000160c       0x34 zephyr/drivers/serial/libdrivers__serial.a(uart_nrfx_uarte.c.obj)
 .ARM.attributes
                0x00001640       0x34 zephyr/drivers/entropy/libdrivers__entropy.a(entropy_cc310.c.obj)
 .ARM.attributes
                0x00001674       0x34 modules/nrf/lib/fatal_error/lib..__nrf__lib__fatal_error.a(fatal_error.c.obj)
 .ARM.attributes
                0x000016a8       0x34 modules/nrf/subsys/fw_info/lib..__nrf__subsys__fw_info.a(fw_info.c.obj)
 .ARM.attributes
                0x000016dc       0x34 modules/hal_nordic/nrfx/libmodules__hal_nordic__nrfx.a(system_nrf5340_application.c.obj)
 .ARM.attributes
                0x00001710       0x34 modules/hal_nordic/nrfx/libmodules__hal_nordic__nrfx.a(nrfx_glue.c.obj)
 .ARM.attributes
                0x00001744       0x34 modules/hal_nordic/nrfx/libmodules__hal_nordic__nrfx.a(nrfx_clock.c.obj)
 .ARM.attributes
                0x00001778       0x34 modules/hal_nordic/nrfx/libmodules__hal_nordic__nrfx.a(nrfx_dppi.c.obj)
 .ARM.attributes
                0x000017ac       0x34 modules/hal_nordic/nrfx/libmodules__hal_nordic__nrfx.a(nrfx_gpiote.c.obj)
 .ARM.attributes
                0x000017e0       0x34 modules/hal_nordic/nrfx/libmodules__hal_nordic__nrfx.a(nrfx_nvmc.c.obj)
 .ARM.attributes
                0x00001814       0x34 zephyr/kernel/libkernel.a(device.c.obj)
 .ARM.attributes
                0x00001848       0x34 zephyr/kernel/libkernel.a(errno.c.obj)
 .ARM.attributes
                0x0000187c       0x34 zephyr/kernel/libkernel.a(fatal.c.obj)
 .ARM.attributes
                0x000018b0       0x34 zephyr/kernel/libkernel.a(init.c.obj)
 .ARM.attributes
                0x000018e4       0x34 zephyr/kernel/libkernel.a(mem_slab.c.obj)
 .ARM.attributes
                0x00001918       0x34 zephyr/kernel/libkernel.a(thread.c.obj)
 .ARM.attributes
                0x0000194c       0x34 zephyr/kernel/libkernel.a(version.c.obj)
 .ARM.attributes
                0x00001980       0x34 zephyr/kernel/libkernel.a(idle.c.obj)
 .ARM.attributes
                0x000019b4       0x34 zephyr/kernel/libkernel.a(msg_q.c.obj)
 .ARM.attributes
                0x000019e8       0x34 zephyr/kernel/libkernel.a(mutex.c.obj)
 .ARM.attributes
                0x00001a1c       0x34 zephyr/kernel/libkernel.a(sem.c.obj)
 .ARM.attributes
                0x00001a50       0x34 zephyr/kernel/libkernel.a(sched.c.obj)
 .ARM.attributes
                0x00001a84       0x34 zephyr/kernel/libkernel.a(xip.c.obj)
 .ARM.attributes
                0x00001ab8       0x34 zephyr/kernel/libkernel.a(timeout.c.obj)
 .ARM.attributes
                0x00001aec       0x34 zephyr/kernel/libkernel.a(timer.c.obj)
 .ARM.attributes
                0x00001b20       0x34 zephyr/kernel/libkernel.a(poll.c.obj)
 .ARM.attributes
                0x00001b54       0x34 zephyr/kernel/libkernel.a(mempool.c.obj)
 .ARM.attributes
                0x00001b88       0x34 zephyr/kernel/libkernel.a(banner.c.obj)
 .ARM.attributes
                0x00001bbc       0x34 zephyr/kernel/libkernel.a(kheap.c.obj)
 .ARM.attributes
                0x00001bf0       0x34 zephyr/kernel/libkernel.a(system_work_q.c.obj)
 .ARM.attributes
                0x00001c24       0x34 zephyr/kernel/libkernel.a(work.c.obj)
 .ARM.attributes
                0x00001c58       0x34 zephyr/CMakeFiles/offsets.dir/./arch/arm/core/offsets/offsets.c.obj
 .ARM.attributes
                0x00001c8c       0x32 c:/ncs/v1.6.0/toolchain/opt/bin/../lib/gcc/arm-none-eabi/9.2.1/thumb/v8-m.main/nofp\libgcc.a(cmse.o)
 .ARM.attributes
                0x00001cbe       0x22 c:/ncs/v1.6.0/toolchain/opt/bin/../lib/gcc/arm-none-eabi/9.2.1/thumb/v8-m.main/nofp\libgcc.a(_arm_muldf3.o)
 .ARM.attributes
                0x00001ce0       0x22 c:/ncs/v1.6.0/toolchain/opt/bin/../lib/gcc/arm-none-eabi/9.2.1/thumb/v8-m.main/nofp\libgcc.a(_arm_mulsf3.o)
 .ARM.attributes
                0x00001d02       0x22 c:/ncs/v1.6.0/toolchain/opt/bin/../lib/gcc/arm-none-eabi/9.2.1/thumb/v8-m.main/nofp\libgcc.a(_arm_addsubdf3.o)
 .ARM.attributes
                0x00001d24       0x22 c:/ncs/v1.6.0/toolchain/opt/bin/../lib/gcc/arm-none-eabi/9.2.1/thumb/v8-m.main/nofp\libgcc.a(_arm_muldivdf3.o)
 .ARM.attributes
                0x00001d46       0x22 c:/ncs/v1.6.0/toolchain/opt/bin/../lib/gcc/arm-none-eabi/9.2.1/thumb/v8-m.main/nofp\libgcc.a(_arm_truncdfsf2.o)
 .ARM.attributes
                0x00001d68       0x22 c:/ncs/v1.6.0/toolchain/opt/bin/../lib/gcc/arm-none-eabi/9.2.1/thumb/v8-m.main/nofp\libgcc.a(_arm_addsubsf3.o)
 .ARM.attributes
                0x00001d8a       0x22 c:/ncs/v1.6.0/toolchain/opt/bin/../lib/gcc/arm-none-eabi/9.2.1/thumb/v8-m.main/nofp\libgcc.a(_arm_muldivsf3.o)
 .ARM.attributes
                0x00001dac       0x22 c:/ncs/v1.6.0/toolchain/opt/bin/../lib/gcc/arm-none-eabi/9.2.1/thumb/v8-m.main/nofp\libgcc.a(_arm_cmpsf2.o)
 .ARM.attributes
                0x00001dce       0x22 c:/ncs/v1.6.0/toolchain/opt/bin/../lib/gcc/arm-none-eabi/9.2.1/thumb/v8-m.main/nofp\libgcc.a(_aeabi_ldivmod.o)
 .ARM.attributes
                0x00001df0       0x22 c:/ncs/v1.6.0/toolchain/opt/bin/../lib/gcc/arm-none-eabi/9.2.1/thumb/v8-m.main/nofp\libgcc.a(_aeabi_uldivmod.o)
 .ARM.attributes
                0x00001e12       0x32 c:/ncs/v1.6.0/toolchain/opt/bin/../lib/gcc/arm-none-eabi/9.2.1/thumb/v8-m.main/nofp\libgcc.a(_fixsfdi.o)
 .ARM.attributes
                0x00001e44       0x32 c:/ncs/v1.6.0/toolchain/opt/bin/../lib/gcc/arm-none-eabi/9.2.1/thumb/v8-m.main/nofp\libgcc.a(_fixdfdi.o)
 .ARM.attributes
                0x00001e76       0x32 c:/ncs/v1.6.0/toolchain/opt/bin/../lib/gcc/arm-none-eabi/9.2.1/thumb/v8-m.main/nofp\libgcc.a(_fixunssfdi.o)
 .ARM.attributes
                0x00001ea8       0x32 c:/ncs/v1.6.0/toolchain/opt/bin/../lib/gcc/arm-none-eabi/9.2.1/thumb/v8-m.main/nofp\libgcc.a(_fixunsdfdi.o)
 .ARM.attributes
                0x00001eda       0x32 c:/ncs/v1.6.0/toolchain/opt/bin/../lib/gcc/arm-none-eabi/9.2.1/thumb/v8-m.main/nofp\libgcc.a(_udivmoddi4.o)
 .ARM.attributes
                0x00001f0c       0x22 c:/ncs/v1.6.0/toolchain/opt/bin/../lib/gcc/arm-none-eabi/9.2.1/thumb/v8-m.main/nofp\libgcc.a(_dvmd_tls.o)
 .ARM.attributes
                0x00001f2e       0x22 c:/ncs/v1.6.0/toolchain/opt/bin/../lib/gcc/arm-none-eabi/9.2.1/thumb/v8-m.main/nofp\libgcc.a(_arm_cmpdf2.o)
 .ARM.attributes
                0x00001f50       0x22 c:/ncs/v1.6.0/toolchain/opt/bin/../lib/gcc/arm-none-eabi/9.2.1/thumb/v8-m.main/nofp\libgcc.a(_arm_fixunsdfsi.o)
 .ARM.attributes
                0x00001f72       0x34 ../mylib/src/libblst.a(server.o)
 *(SORT_BY_ALIGNMENT(.gnu.attributes))

.last_section   0x0003ce38        0x0
                0x0001ce38                _flash_used = (LOADADDR (.last_section) - _image_rom_start)
LOAD app/libapp.a
LOAD zephyr/libzephyr.a
LOAD zephyr/arch/common/libarch__common.a
LOAD zephyr/arch/arch/arm/core/aarch32/libarch__arm__core__aarch32.a
LOAD zephyr/arch/arch/arm/core/aarch32/cortex_m/libarch__arm__core__aarch32__cortex_m.a
LOAD zephyr/arch/arch/arm/core/aarch32/cortex_m/cmse/libarch__arm__core__aarch32__cortex_m__cmse.a
LOAD zephyr/arch/arch/arm/core/aarch32/mpu/libarch__arm__core__aarch32__mpu.a
LOAD zephyr/lib/libc/minimal/liblib__libc__minimal.a
LOAD zephyr/lib/posix/liblib__posix.a
LOAD zephyr/soc/arm/common/cortex_m/libsoc__arm__common__cortex_m.a
LOAD zephyr/subsys/random/libsubsys__random.a
LOAD zephyr/drivers/gpio/libdrivers__gpio.a
LOAD zephyr/drivers/serial/libdrivers__serial.a
LOAD zephyr/drivers/entropy/libdrivers__entropy.a
LOAD modules/nrf/lib/fatal_error/lib..__nrf__lib__fatal_error.a
LOAD modules/nrf/subsys/fw_info/lib..__nrf__subsys__fw_info.a
LOAD modules/hal_nordic/nrfx/libmodules__hal_nordic__nrfx.a
LOAD zephyr/kernel/libkernel.a
LOAD zephyr/CMakeFiles/offsets.dir/./arch/arm/core/offsets/offsets.c.obj
LOAD c:/ncs/v1.6.0/toolchain/opt/bin/../lib/gcc/arm-none-eabi/9.2.1/thumb/v8-m.main/nofp\libgcc.a
LOAD ../mylib/src/libblst.a
LOAD zephyr/arch/common/libisr_tables.a
LOAD spm/libspmsecureentries.a
OUTPUT(zephyr\zephyr.elf elf32-littlearm)
