Archive member included to satisfy reference by file (symbol)

app/libapp.a(main.c.obj)      (--whole-archive)
app/libapp.a(test_module.c.obj)
                              (--whole-archive)
app/libapp.a(dynamic_cmd.c.obj)
                              (--whole-archive)
app/libapp.a(qsort.c.obj)     (--whole-archive)
zephyr/libzephyr.a(fnmatch.c.obj)
                              (--whole-archive)
zephyr/libzephyr.a(cbprintf.c.obj)
                              (--whole-archive)
zephyr/libzephyr.a(crc32_sw.c.obj)
                              (--whole-archive)
zephyr/libzephyr.a(crc16_sw.c.obj)
                              (--whole-archive)
zephyr/libzephyr.a(crc8_sw.c.obj)
                              (--whole-archive)
zephyr/libzephyr.a(crc7_sw.c.obj)
                              (--whole-archive)
zephyr/libzephyr.a(dec.c.obj)
                              (--whole-archive)
zephyr/libzephyr.a(fdtable.c.obj)
                              (--whole-archive)
zephyr/libzephyr.a(hex.c.obj)
                              (--whole-archive)
zephyr/libzephyr.a(mempool.c.obj)
                              (--whole-archive)
zephyr/libzephyr.a(notify.c.obj)
                              (--whole-archive)
zephyr/libzephyr.a(printk.c.obj)
                              (--whole-archive)
zephyr/libzephyr.a(onoff.c.obj)
                              (--whole-archive)
zephyr/libzephyr.a(rb.c.obj)  (--whole-archive)
zephyr/libzephyr.a(sem.c.obj)
                              (--whole-archive)
zephyr/libzephyr.a(thread_entry.c.obj)
                              (--whole-archive)
zephyr/libzephyr.a(timeutil.c.obj)
                              (--whole-archive)
zephyr/libzephyr.a(work_q.c.obj)
                              (--whole-archive)
zephyr/libzephyr.a(heap.c.obj)
                              (--whole-archive)
zephyr/libzephyr.a(heap-validate.c.obj)
                              (--whole-archive)
zephyr/libzephyr.a(cbprintf_complete.c.obj)
                              (--whole-archive)
zephyr/libzephyr.a(ring_buffer.c.obj)
                              (--whole-archive)
zephyr/libzephyr.a(configs.c.obj)
                              (--whole-archive)
zephyr/libzephyr.a(soc.c.obj)
                              (--whole-archive)
zephyr/libzephyr.a(power.c.obj)
                              (--whole-archive)
zephyr/libzephyr.a(validate_base_addresses.c.obj)
                              (--whole-archive)
zephyr/libzephyr.a(validate_enabled_instances.c.obj)
                              (--whole-archive)
zephyr/libzephyr.a(log_list.c.obj)
                              (--whole-archive)
zephyr/libzephyr.a(log_core.c.obj)
                              (--whole-archive)
zephyr/libzephyr.a(log_msg.c.obj)
                              (--whole-archive)
zephyr/libzephyr.a(log_output.c.obj)
                              (--whole-archive)
zephyr/libzephyr.a(log_cmds.c.obj)
                              (--whole-archive)
zephyr/libzephyr.a(kernel_service.c.obj)
                              (--whole-archive)
zephyr/libzephyr.a(device_service.c.obj)
                              (--whole-archive)
zephyr/libzephyr.a(date_service.c.obj)
                              (--whole-archive)
zephyr/libzephyr.a(shell.c.obj)
                              (--whole-archive)
zephyr/libzephyr.a(shell_fprintf.c.obj)
                              (--whole-archive)
zephyr/libzephyr.a(shell_utils.c.obj)
                              (--whole-archive)
zephyr/libzephyr.a(shell_ops.c.obj)
                              (--whole-archive)
zephyr/libzephyr.a(shell_uart.c.obj)
                              (--whole-archive)
zephyr/libzephyr.a(shell_help.c.obj)
                              (--whole-archive)
zephyr/libzephyr.a(shell_cmds.c.obj)
                              (--whole-archive)
zephyr/libzephyr.a(shell_history.c.obj)
                              (--whole-archive)
zephyr/libzephyr.a(shell_log_backend.c.obj)
                              (--whole-archive)
zephyr/libzephyr.a(shell_wildcard.c.obj)
                              (--whole-archive)
zephyr/libzephyr.a(power.c.obj)
                              (--whole-archive)
zephyr/libzephyr.a(reboot.c.obj)
                              (--whole-archive)
zephyr/libzephyr.a(policy_residency.c.obj)
                              (--whole-archive)
zephyr/libzephyr.a(uart_console.c.obj)
                              (--whole-archive)
zephyr/libzephyr.a(clock_control_nrf.c.obj)
                              (--whole-archive)
zephyr/libzephyr.a(sys_clock_init.c.obj)
                              (--whole-archive)
zephyr/libzephyr.a(nrf_rtc_timer.c.obj)
                              (--whole-archive)
zephyr/libzephyr.a(secure_services_ns.c.obj)
                              (--whole-archive)
zephyr/arch/common/libarch__common.a(sw_isr_common.c.obj)
                              (--whole-archive)
zephyr/arch/arch/arm/core/aarch32/libarch__arm__core__aarch32.a(swap.c.obj)
                              (--whole-archive)
zephyr/arch/arch/arm/core/aarch32/libarch__arm__core__aarch32.a(irq_manage.c.obj)
                              (--whole-archive)
zephyr/arch/arch/arm/core/aarch32/libarch__arm__core__aarch32.a(thread.c.obj)
                              (--whole-archive)
zephyr/arch/arch/arm/core/aarch32/libarch__arm__core__aarch32.a(fatal.c.obj)
                              (--whole-archive)
zephyr/arch/arch/arm/core/aarch32/libarch__arm__core__aarch32.a(nmi.c.obj)
                              (--whole-archive)
zephyr/arch/arch/arm/core/aarch32/libarch__arm__core__aarch32.a(prep_c.c.obj)
                              (--whole-archive)
zephyr/arch/arch/arm/core/aarch32/libarch__arm__core__aarch32.a(swap_helper.S.obj)
                              (--whole-archive)
zephyr/arch/arch/arm/core/aarch32/libarch__arm__core__aarch32.a(cpu_idle.S.obj)
                              (--whole-archive)
zephyr/arch/arch/arm/core/aarch32/libarch__arm__core__aarch32.a(nmi_on_reset.S.obj)
                              (--whole-archive)
zephyr/arch/arch/arm/core/aarch32/libarch__arm__core__aarch32.a(isr_wrapper.S.obj)
                              (--whole-archive)
zephyr/arch/arch/arm/core/aarch32/cortex_m/libarch__arm__core__aarch32__cortex_m.a(vector_table.S.obj)
                              (--whole-archive)
zephyr/arch/arch/arm/core/aarch32/cortex_m/libarch__arm__core__aarch32__cortex_m.a(reset.S.obj)
                              (--whole-archive)
zephyr/arch/arch/arm/core/aarch32/cortex_m/libarch__arm__core__aarch32__cortex_m.a(fault_s.S.obj)
                              (--whole-archive)
zephyr/arch/arch/arm/core/aarch32/cortex_m/libarch__arm__core__aarch32__cortex_m.a(exc_exit.S.obj)
                              (--whole-archive)
zephyr/arch/arch/arm/core/aarch32/cortex_m/libarch__arm__core__aarch32__cortex_m.a(fault.c.obj)
                              (--whole-archive)
zephyr/arch/arch/arm/core/aarch32/cortex_m/libarch__arm__core__aarch32__cortex_m.a(scb.c.obj)
                              (--whole-archive)
zephyr/arch/arch/arm/core/aarch32/cortex_m/libarch__arm__core__aarch32__cortex_m.a(irq_init.c.obj)
                              (--whole-archive)
zephyr/arch/arch/arm/core/aarch32/cortex_m/libarch__arm__core__aarch32__cortex_m.a(thread_abort.c.obj)
                              (--whole-archive)
zephyr/arch/arch/arm/core/aarch32/cortex_m/mpu/libarch__arm__core__aarch32__cortex_m__mpu.a(arm_core_mpu.c.obj)
                              (--whole-archive)
zephyr/arch/arch/arm/core/aarch32/cortex_m/mpu/libarch__arm__core__aarch32__cortex_m__mpu.a(arm_mpu.c.obj)
                              (--whole-archive)
zephyr/arch/arch/arm/core/aarch32/cortex_m/cmse/libarch__arm__core__aarch32__cortex_m__cmse.a(arm_core_cmse.c.obj)
                              (--whole-archive)
zephyr/lib/libc/minimal/liblib__libc__minimal.a(abort.c.obj)
                              (--whole-archive)
zephyr/lib/libc/minimal/liblib__libc__minimal.a(atoi.c.obj)
                              (--whole-archive)
zephyr/lib/libc/minimal/liblib__libc__minimal.a(strtol.c.obj)
                              (--whole-archive)
zephyr/lib/libc/minimal/liblib__libc__minimal.a(strtoul.c.obj)
                              (--whole-archive)
zephyr/lib/libc/minimal/liblib__libc__minimal.a(malloc.c.obj)
                              (--whole-archive)
zephyr/lib/libc/minimal/liblib__libc__minimal.a(bsearch.c.obj)
                              (--whole-archive)
zephyr/lib/libc/minimal/liblib__libc__minimal.a(exit.c.obj)
                              (--whole-archive)
zephyr/lib/libc/minimal/liblib__libc__minimal.a(strncasecmp.c.obj)
                              (--whole-archive)
zephyr/lib/libc/minimal/liblib__libc__minimal.a(strstr.c.obj)
                              (--whole-archive)
zephyr/lib/libc/minimal/liblib__libc__minimal.a(string.c.obj)
                              (--whole-archive)
zephyr/lib/libc/minimal/liblib__libc__minimal.a(strspn.c.obj)
                              (--whole-archive)
zephyr/lib/libc/minimal/liblib__libc__minimal.a(stdout_console.c.obj)
                              (--whole-archive)
zephyr/lib/libc/minimal/liblib__libc__minimal.a(sprintf.c.obj)
                              (--whole-archive)
zephyr/lib/libc/minimal/liblib__libc__minimal.a(fprintf.c.obj)
                              (--whole-archive)
zephyr/lib/libc/minimal/liblib__libc__minimal.a(gmtime.c.obj)
                              (--whole-archive)
zephyr/lib/posix/liblib__posix.a(pthread_common.c.obj)
                              (--whole-archive)
zephyr/lib/posix/liblib__posix.a(clock.c.obj)
                              (--whole-archive)
zephyr/lib/posix/liblib__posix.a(sleep.c.obj)
                              (--whole-archive)
zephyr/lib/posix/liblib__posix.a(timer.c.obj)
                              (--whole-archive)
zephyr/lib/posix/liblib__posix.a(nanosleep.c.obj)
                              (--whole-archive)
zephyr/soc/arm/common/cortex_m/libsoc__arm__common__cortex_m.a(arm_mpu_regions.c.obj)
                              (--whole-archive)
zephyr/drivers/gpio/libdrivers__gpio.a(gpio_nrfx.c.obj)
                              (--whole-archive)
zephyr/drivers/serial/libdrivers__serial.a(uart_nrfx_uarte.c.obj)
                              (--whole-archive)
modules/nrf/lib/fatal_error/lib..__nrf__lib__fatal_error.a(fatal_error.c.obj)
                              (--whole-archive)
modules/nrf/subsys/fw_info/lib..__nrf__subsys__fw_info.a(fw_info.c.obj)
                              (--whole-archive)
modules/nordic/lib..__modules__hal__nordic.a(system_nrf9160.c.obj)
                              (--whole-archive)
modules/nordic/lib..__modules__hal__nordic.a(nrfx_glue.c.obj)
                              (--whole-archive)
modules/nordic/lib..__modules__hal__nordic.a(nrfx_clock.c.obj)
                              (--whole-archive)
modules/nordic/lib..__modules__hal__nordic.a(nrfx_dppi.c.obj)
                              (--whole-archive)
modules/nordic/lib..__modules__hal__nordic.a(nrfx_nvmc.c.obj)
                              (--whole-archive)
zephyr/kernel/libkernel.a(device.c.obj)
                              zephyr/libzephyr.a(shell_utils.c.obj) (z_device_get_all_static)
zephyr/kernel/libkernel.a(errno.c.obj)
                              zephyr/libzephyr.a(fdtable.c.obj) (z_impl_z_errno)
zephyr/kernel/libkernel.a(fatal.c.obj)
                              zephyr/arch/arch/arm/core/aarch32/libarch__arm__core__aarch32.a(fatal.c.obj) (z_fatal_error)
zephyr/kernel/libkernel.a(idle.c.obj)
                              zephyr/arch/arch/arm/core/aarch32/libarch__arm__core__aarch32.a(irq_manage.c.obj) (z_sys_power_save_idle_exit)
zephyr/kernel/libkernel.a(init.c.obj)
                              zephyr/arch/arch/arm/core/aarch32/libarch__arm__core__aarch32.a(prep_c.c.obj) (z_bss_zero)
zephyr/kernel/libkernel.a(mem_slab.c.obj)
                              zephyr/libzephyr.a(log_core.c.obj) (k_mem_slab_init)
zephyr/kernel/libkernel.a(msg_q.c.obj)
                              zephyr/libzephyr.a(shell_log_backend.c.obj) (z_impl_k_msgq_put)
zephyr/kernel/libkernel.a(mutex.c.obj)
                              zephyr/libzephyr.a(shell.c.obj) (z_impl_k_mutex_init)
zephyr/kernel/libkernel.a(queue.c.obj)
                              zephyr/libzephyr.a(work_q.c.obj) (z_impl_k_queue_init)
zephyr/kernel/libkernel.a(sched.c.obj)
                              zephyr/kernel/libkernel.a(mem_slab.c.obj) (z_reschedule)
zephyr/kernel/libkernel.a(sem.c.obj)
                              zephyr/libzephyr.a(sem.c.obj) (z_impl_k_sem_init)
zephyr/kernel/libkernel.a(thread.c.obj)
                              zephyr/libzephyr.a(kernel_service.c.obj) (k_thread_foreach)
zephyr/kernel/libkernel.a(thread_abort.c.obj)
                              zephyr/arch/arch/arm/core/aarch32/cortex_m/libarch__arm__core__aarch32__cortex_m.a(thread_abort.c.obj) (z_self_abort)
zephyr/kernel/libkernel.a(version.c.obj)
                              zephyr/libzephyr.a(kernel_service.c.obj) (sys_kernel_version_get)
zephyr/kernel/libkernel.a(timeout.c.obj)
                              zephyr/kernel/libkernel.a(sched.c.obj) (z_add_timeout)
zephyr/kernel/libkernel.a(timer.c.obj)
                              app/libapp.a(main.c.obj) (z_timer_expiration_handler)
zephyr/kernel/libkernel.a(poll.c.obj)
                              zephyr/libzephyr.a(shell.c.obj) (k_poll_event_init)
zephyr/kernel/libkernel.a(mempool.c.obj)
                              zephyr/kernel/libkernel.a(msg_q.c.obj) (k_free)
zephyr/kernel/libkernel.a(kheap.c.obj)
                              zephyr/kernel/libkernel.a(mempool.c.obj) (k_mem_pool_alloc)
c:/users/pablo/ncs/v1.4.99-dev1/toolchain/opt/bin/../lib/gcc/arm-none-eabi/9.2.1/thumb/v8-m.main/nofp\libgcc.a(cmse.o)
                              zephyr/arch/arch/arm/core/aarch32/cortex_m/cmse/libarch__arm__core__aarch32__cortex_m__cmse.a(arm_core_cmse.c.obj) (cmse_check_address_range)
c:/users/pablo/ncs/v1.4.99-dev1/toolchain/opt/bin/../lib/gcc/arm-none-eabi/9.2.1/thumb/v8-m.main/nofp\libgcc.a(_aeabi_ldivmod.o)
                              zephyr/libzephyr.a(timeutil.c.obj) (__aeabi_ldivmod)
c:/users/pablo/ncs/v1.4.99-dev1/toolchain/opt/bin/../lib/gcc/arm-none-eabi/9.2.1/thumb/v8-m.main/nofp\libgcc.a(_aeabi_uldivmod.o)
                              zephyr/libzephyr.a(cbprintf_complete.c.obj) (__aeabi_uldivmod)
c:/users/pablo/ncs/v1.4.99-dev1/toolchain/opt/bin/../lib/gcc/arm-none-eabi/9.2.1/thumb/v8-m.main/nofp\libgcc.a(_udivmoddi4.o)
                              c:/users/pablo/ncs/v1.4.99-dev1/toolchain/opt/bin/../lib/gcc/arm-none-eabi/9.2.1/thumb/v8-m.main/nofp\libgcc.a(_aeabi_ldivmod.o) (__udivmoddi4)
c:/users/pablo/ncs/v1.4.99-dev1/toolchain/opt/bin/../lib/gcc/arm-none-eabi/9.2.1/thumb/v8-m.main/nofp\libgcc.a(_dvmd_tls.o)
                              c:/users/pablo/ncs/v1.4.99-dev1/toolchain/opt/bin/../lib/gcc/arm-none-eabi/9.2.1/thumb/v8-m.main/nofp\libgcc.a(_aeabi_ldivmod.o) (__aeabi_ldiv0)
../mylib/src/libblst.a(server.o)
                              app/libapp.a(main.c.obj) (blst_p1_to_affine)

Discarded input sections

 .text          0x00000000        0x0 zephyr/CMakeFiles/zephyr_final.dir/misc/empty_file.c.obj
 .data          0x00000000        0x0 zephyr/CMakeFiles/zephyr_final.dir/misc/empty_file.c.obj
 .bss           0x00000000        0x0 zephyr/CMakeFiles/zephyr_final.dir/misc/empty_file.c.obj
 .debug_line    0x00000000        0x0 zephyr/CMakeFiles/zephyr_final.dir/misc/empty_file.c.obj
 .debug_str     0x00000000      0x1e1 zephyr/CMakeFiles/zephyr_final.dir/misc/empty_file.c.obj
 .comment       0x00000000       0x7a zephyr/CMakeFiles/zephyr_final.dir/misc/empty_file.c.obj
 .text          0x00000000        0x0 zephyr/CMakeFiles/zephyr_final.dir/isr_tables.c.obj
 .data          0x00000000        0x0 zephyr/CMakeFiles/zephyr_final.dir/isr_tables.c.obj
 .bss           0x00000000        0x0 zephyr/CMakeFiles/zephyr_final.dir/isr_tables.c.obj
 .text          0x00000000        0x0 app/libapp.a(main.c.obj)
 .data          0x00000000        0x0 app/libapp.a(main.c.obj)
 .bss           0x00000000        0x0 app/libapp.a(main.c.obj)
 .bss.public_keys_store
                0x00000000      0x5a0 app/libapp.a(main.c.obj)
 .text          0x00000000        0x0 app/libapp.a(test_module.c.obj)
 .data          0x00000000        0x0 app/libapp.a(test_module.c.obj)
 .bss           0x00000000        0x0 app/libapp.a(test_module.c.obj)
 .rodata.foo.str1.1
                0x00000000       0x29 app/libapp.a(test_module.c.obj)
 .text.foo      0x00000000       0x78 app/libapp.a(test_module.c.obj)
 .text          0x00000000        0x0 app/libapp.a(dynamic_cmd.c.obj)
 .data          0x00000000        0x0 app/libapp.a(dynamic_cmd.c.obj)
 .bss           0x00000000        0x0 app/libapp.a(dynamic_cmd.c.obj)
 .text          0x00000000        0x0 app/libapp.a(qsort.c.obj)
 .data          0x00000000        0x0 app/libapp.a(qsort.c.obj)
 .bss           0x00000000        0x0 app/libapp.a(qsort.c.obj)
 .text          0x00000000        0x0 zephyr/libzephyr.a(fnmatch.c.obj)
 .data          0x00000000        0x0 zephyr/libzephyr.a(fnmatch.c.obj)
 .bss           0x00000000        0x0 zephyr/libzephyr.a(fnmatch.c.obj)
 .text          0x00000000        0x0 zephyr/libzephyr.a(cbprintf.c.obj)
 .data          0x00000000        0x0 zephyr/libzephyr.a(cbprintf.c.obj)
 .bss           0x00000000        0x0 zephyr/libzephyr.a(cbprintf.c.obj)
 .text.cbprintf
                0x00000000       0x1a zephyr/libzephyr.a(cbprintf.c.obj)
 .debug_info    0x00000000      0x139 zephyr/libzephyr.a(cbprintf.c.obj)
 .debug_abbrev  0x00000000      0x10c zephyr/libzephyr.a(cbprintf.c.obj)
 .debug_loc     0x00000000       0x5f zephyr/libzephyr.a(cbprintf.c.obj)
 .debug_aranges
                0x00000000       0x20 zephyr/libzephyr.a(cbprintf.c.obj)
 .debug_ranges  0x00000000       0x10 zephyr/libzephyr.a(cbprintf.c.obj)
 .debug_line    0x00000000      0x11b zephyr/libzephyr.a(cbprintf.c.obj)
 .debug_str     0x00000000      0x23f zephyr/libzephyr.a(cbprintf.c.obj)
 .comment       0x00000000       0x7a zephyr/libzephyr.a(cbprintf.c.obj)
 .debug_frame   0x00000000       0x38 zephyr/libzephyr.a(cbprintf.c.obj)
 .text          0x00000000        0x0 zephyr/libzephyr.a(crc32_sw.c.obj)
 .data          0x00000000        0x0 zephyr/libzephyr.a(crc32_sw.c.obj)
 .bss           0x00000000        0x0 zephyr/libzephyr.a(crc32_sw.c.obj)
 .text.crc32_ieee_update
                0x00000000       0x30 zephyr/libzephyr.a(crc32_sw.c.obj)
 .text.crc32_ieee
                0x00000000        0xa zephyr/libzephyr.a(crc32_sw.c.obj)
 .debug_info    0x00000000      0x185 zephyr/libzephyr.a(crc32_sw.c.obj)
 .debug_abbrev  0x00000000       0xe0 zephyr/libzephyr.a(crc32_sw.c.obj)
 .debug_loc     0x00000000      0x151 zephyr/libzephyr.a(crc32_sw.c.obj)
 .debug_aranges
                0x00000000       0x28 zephyr/libzephyr.a(crc32_sw.c.obj)
 .debug_ranges  0x00000000       0x58 zephyr/libzephyr.a(crc32_sw.c.obj)
 .debug_line    0x00000000      0x1a2 zephyr/libzephyr.a(crc32_sw.c.obj)
 .debug_str     0x00000000      0x2ab zephyr/libzephyr.a(crc32_sw.c.obj)
 .comment       0x00000000       0x7a zephyr/libzephyr.a(crc32_sw.c.obj)
 .debug_frame   0x00000000       0x3c zephyr/libzephyr.a(crc32_sw.c.obj)
 .text          0x00000000        0x0 zephyr/libzephyr.a(crc16_sw.c.obj)
 .data          0x00000000        0x0 zephyr/libzephyr.a(crc16_sw.c.obj)
 .bss           0x00000000        0x0 zephyr/libzephyr.a(crc16_sw.c.obj)
 .text.crc16    0x00000000       0x5a zephyr/libzephyr.a(crc16_sw.c.obj)
 .text.crc16_ccitt
                0x00000000       0x26 zephyr/libzephyr.a(crc16_sw.c.obj)
 .text.crc16_itu_t
                0x00000000       0x28 zephyr/libzephyr.a(crc16_sw.c.obj)
 .debug_info    0x00000000      0x25e zephyr/libzephyr.a(crc16_sw.c.obj)
 .debug_abbrev  0x00000000       0xe9 zephyr/libzephyr.a(crc16_sw.c.obj)
 .debug_loc     0x00000000      0x2e2 zephyr/libzephyr.a(crc16_sw.c.obj)
 .debug_aranges
                0x00000000       0x30 zephyr/libzephyr.a(crc16_sw.c.obj)
 .debug_ranges  0x00000000       0x40 zephyr/libzephyr.a(crc16_sw.c.obj)
 .debug_line    0x00000000      0x2ce zephyr/libzephyr.a(crc16_sw.c.obj)
 .debug_str     0x00000000      0x2da zephyr/libzephyr.a(crc16_sw.c.obj)
 .comment       0x00000000       0x7a zephyr/libzephyr.a(crc16_sw.c.obj)
 .debug_frame   0x00000000       0x58 zephyr/libzephyr.a(crc16_sw.c.obj)
 .text          0x00000000        0x0 zephyr/libzephyr.a(crc8_sw.c.obj)
 .data          0x00000000        0x0 zephyr/libzephyr.a(crc8_sw.c.obj)
 .bss           0x00000000        0x0 zephyr/libzephyr.a(crc8_sw.c.obj)
 .text.crc8_ccitt
                0x00000000       0x30 zephyr/libzephyr.a(crc8_sw.c.obj)
 .text.crc8     0x00000000       0x3e zephyr/libzephyr.a(crc8_sw.c.obj)
 .rodata.crc8_ccitt_small_table
                0x00000000       0x10 zephyr/libzephyr.a(crc8_sw.c.obj)
 .debug_info    0x00000000      0x1f7 zephyr/libzephyr.a(crc8_sw.c.obj)
 .debug_abbrev  0x00000000       0xdc zephyr/libzephyr.a(crc8_sw.c.obj)
 .debug_loc     0x00000000      0x250 zephyr/libzephyr.a(crc8_sw.c.obj)
 .debug_aranges
                0x00000000       0x28 zephyr/libzephyr.a(crc8_sw.c.obj)
 .debug_ranges  0x00000000       0x18 zephyr/libzephyr.a(crc8_sw.c.obj)
 .debug_line    0x00000000      0x215 zephyr/libzephyr.a(crc8_sw.c.obj)
 .debug_str     0x00000000      0x2ce zephyr/libzephyr.a(crc8_sw.c.obj)
 .comment       0x00000000       0x7a zephyr/libzephyr.a(crc8_sw.c.obj)
 .debug_frame   0x00000000       0x48 zephyr/libzephyr.a(crc8_sw.c.obj)
 .text          0x00000000        0x0 zephyr/libzephyr.a(crc7_sw.c.obj)
 .data          0x00000000        0x0 zephyr/libzephyr.a(crc7_sw.c.obj)
 .bss           0x00000000        0x0 zephyr/libzephyr.a(crc7_sw.c.obj)
 .text.crc7_be  0x00000000       0x20 zephyr/libzephyr.a(crc7_sw.c.obj)
 .debug_info    0x00000000      0x11b zephyr/libzephyr.a(crc7_sw.c.obj)
 .debug_abbrev  0x00000000       0xac zephyr/libzephyr.a(crc7_sw.c.obj)
 .debug_loc     0x00000000       0xc0 zephyr/libzephyr.a(crc7_sw.c.obj)
 .debug_aranges
                0x00000000       0x20 zephyr/libzephyr.a(crc7_sw.c.obj)
 .debug_ranges  0x00000000       0x10 zephyr/libzephyr.a(crc7_sw.c.obj)
 .debug_line    0x00000000      0x127 zephyr/libzephyr.a(crc7_sw.c.obj)
 .debug_str     0x00000000      0x28c zephyr/libzephyr.a(crc7_sw.c.obj)
 .comment       0x00000000       0x7a zephyr/libzephyr.a(crc7_sw.c.obj)
 .debug_frame   0x00000000       0x20 zephyr/libzephyr.a(crc7_sw.c.obj)
 .text          0x00000000        0x0 zephyr/libzephyr.a(dec.c.obj)
 .data          0x00000000        0x0 zephyr/libzephyr.a(dec.c.obj)
 .bss           0x00000000        0x0 zephyr/libzephyr.a(dec.c.obj)
 .text.u8_to_dec
                0x00000000       0x42 zephyr/libzephyr.a(dec.c.obj)
 .debug_info    0x00000000      0x11f zephyr/libzephyr.a(dec.c.obj)
 .debug_abbrev  0x00000000       0x9c zephyr/libzephyr.a(dec.c.obj)
 .debug_loc     0x00000000      0x107 zephyr/libzephyr.a(dec.c.obj)
 .debug_aranges
                0x00000000       0x20 zephyr/libzephyr.a(dec.c.obj)
 .debug_ranges  0x00000000       0x10 zephyr/libzephyr.a(dec.c.obj)
 .debug_line    0x00000000      0x12c zephyr/libzephyr.a(dec.c.obj)
 .debug_str     0x00000000      0x2a9 zephyr/libzephyr.a(dec.c.obj)
 .comment       0x00000000       0x7a zephyr/libzephyr.a(dec.c.obj)
 .debug_frame   0x00000000       0x30 zephyr/libzephyr.a(dec.c.obj)
 .text          0x00000000        0x0 zephyr/libzephyr.a(fdtable.c.obj)
 .data          0x00000000        0x0 zephyr/libzephyr.a(fdtable.c.obj)
 .bss           0x00000000        0x0 zephyr/libzephyr.a(fdtable.c.obj)
 .text._check_fd
                0x00000000       0x30 zephyr/libzephyr.a(fdtable.c.obj)
 .text.z_get_fd_obj
                0x00000000       0x38 zephyr/libzephyr.a(fdtable.c.obj)
 .text.z_get_fd_obj_and_vtable
                0x00000000       0x28 zephyr/libzephyr.a(fdtable.c.obj)
 .text.z_reserve_fd
                0x00000000       0x64 zephyr/libzephyr.a(fdtable.c.obj)
 .text.z_finalize_fd
                0x00000000       0x14 zephyr/libzephyr.a(fdtable.c.obj)
 .text.z_free_fd
                0x00000000       0x40 zephyr/libzephyr.a(fdtable.c.obj)
 .text.z_alloc_fd
                0x00000000       0x20 zephyr/libzephyr.a(fdtable.c.obj)
 ._k_mutex.static.fdtable_lock
                0x00000000       0x14 zephyr/libzephyr.a(fdtable.c.obj)
 .bss.fdtable   0x00000000       0x30 zephyr/libzephyr.a(fdtable.c.obj)
 .debug_info    0x00000000     0x120b zephyr/libzephyr.a(fdtable.c.obj)
 .debug_abbrev  0x00000000      0x3ed zephyr/libzephyr.a(fdtable.c.obj)
 .debug_loc     0x00000000      0x452 zephyr/libzephyr.a(fdtable.c.obj)
 .debug_aranges
                0x00000000       0x50 zephyr/libzephyr.a(fdtable.c.obj)
 .debug_ranges  0x00000000       0xa8 zephyr/libzephyr.a(fdtable.c.obj)
 .debug_line    0x00000000      0x6dd zephyr/libzephyr.a(fdtable.c.obj)
 .debug_str     0x00000000      0xa88 zephyr/libzephyr.a(fdtable.c.obj)
 .comment       0x00000000       0x7a zephyr/libzephyr.a(fdtable.c.obj)
 .debug_frame   0x00000000       0xc8 zephyr/libzephyr.a(fdtable.c.obj)
 .text          0x00000000        0x0 zephyr/libzephyr.a(hex.c.obj)
 .data          0x00000000        0x0 zephyr/libzephyr.a(hex.c.obj)
 .bss           0x00000000        0x0 zephyr/libzephyr.a(hex.c.obj)
 .text          0x00000000        0x0 zephyr/libzephyr.a(mempool.c.obj)
 .data          0x00000000        0x0 zephyr/libzephyr.a(mempool.c.obj)
 .bss           0x00000000        0x0 zephyr/libzephyr.a(mempool.c.obj)
 .text.get_bit_ptr
                0x00000000       0x30 zephyr/libzephyr.a(mempool.c.obj)
 .text.sys_mutex_unlock
                0x00000000       0x28 zephyr/libzephyr.a(mempool.c.obj)
 .text.pool_irq_lock.isra.0.part.0
                0x00000000       0x12 zephyr/libzephyr.a(mempool.c.obj)
 .text.pool_irq_unlock.isra.0
                0x00000000        0xe zephyr/libzephyr.a(mempool.c.obj)
 .text.z_sys_mem_pool_base_init
                0x00000000       0x8c zephyr/libzephyr.a(mempool.c.obj)
 .text.z_sys_mem_pool_block_alloc
                0x00000000      0x170 zephyr/libzephyr.a(mempool.c.obj)
 .text.z_sys_mem_pool_block_free
                0x00000000      0x128 zephyr/libzephyr.a(mempool.c.obj)
 .text.sys_mem_pool_alloc
                0x00000000       0x5c zephyr/libzephyr.a(mempool.c.obj)
 .text.sys_mem_pool_free
                0x00000000       0x3e zephyr/libzephyr.a(mempool.c.obj)
 .text.sys_mem_pool_try_expand_inplace
                0x00000000       0x2c zephyr/libzephyr.a(mempool.c.obj)
 .debug_info    0x00000000     0x1e0c zephyr/libzephyr.a(mempool.c.obj)
 .debug_abbrev  0x00000000      0x539 zephyr/libzephyr.a(mempool.c.obj)
 .debug_loc     0x00000000     0x1169 zephyr/libzephyr.a(mempool.c.obj)
 .debug_aranges
                0x00000000       0x68 zephyr/libzephyr.a(mempool.c.obj)
 .debug_ranges  0x00000000      0x368 zephyr/libzephyr.a(mempool.c.obj)
 .debug_line    0x00000000      0xcfa zephyr/libzephyr.a(mempool.c.obj)
 .debug_str     0x00000000      0xaf8 zephyr/libzephyr.a(mempool.c.obj)
 .comment       0x00000000       0x7a zephyr/libzephyr.a(mempool.c.obj)
 .debug_frame   0x00000000      0x158 zephyr/libzephyr.a(mempool.c.obj)
 .text          0x00000000        0x0 zephyr/libzephyr.a(notify.c.obj)
 .data          0x00000000        0x0 zephyr/libzephyr.a(notify.c.obj)
 .bss           0x00000000        0x0 zephyr/libzephyr.a(notify.c.obj)
 .text          0x00000000        0x0 zephyr/libzephyr.a(printk.c.obj)
 .data          0x00000000        0x0 zephyr/libzephyr.a(printk.c.obj)
 .bss           0x00000000        0x0 zephyr/libzephyr.a(printk.c.obj)
 .text.__printk_get_hook
                0x00000000        0xc zephyr/libzephyr.a(printk.c.obj)
 .text.z_impl_k_str_out
                0x00000000       0x1c zephyr/libzephyr.a(printk.c.obj)
 .text          0x00000000        0x0 zephyr/libzephyr.a(onoff.c.obj)
 .data          0x00000000        0x0 zephyr/libzephyr.a(onoff.c.obj)
 .bss           0x00000000        0x0 zephyr/libzephyr.a(onoff.c.obj)
 .text.onoff_release
                0x00000000       0x4a zephyr/libzephyr.a(onoff.c.obj)
 .text.onoff_reset
                0x00000000       0x64 zephyr/libzephyr.a(onoff.c.obj)
 .text.onoff_cancel
                0x00000000       0x60 zephyr/libzephyr.a(onoff.c.obj)
 .text.onoff_monitor_register
                0x00000000       0x3c zephyr/libzephyr.a(onoff.c.obj)
 .text.onoff_monitor_unregister
                0x00000000       0x5a zephyr/libzephyr.a(onoff.c.obj)
 .text.onoff_sync_lock
                0x00000000       0x16 zephyr/libzephyr.a(onoff.c.obj)
 .text.onoff_sync_finalize
                0x00000000       0x42 zephyr/libzephyr.a(onoff.c.obj)
 .text          0x00000000        0x0 zephyr/libzephyr.a(rb.c.obj)
 .data          0x00000000        0x0 zephyr/libzephyr.a(rb.c.obj)
 .bss           0x00000000        0x0 zephyr/libzephyr.a(rb.c.obj)
 .text.set_child
                0x00000000       0x12 zephyr/libzephyr.a(rb.c.obj)
 .text.find_and_stack
                0x00000000       0x3a zephyr/libzephyr.a(rb.c.obj)
 .text.rotate   0x00000000       0x8c zephyr/libzephyr.a(rb.c.obj)
 .text.fix_missing_black
                0x00000000      0x172 zephyr/libzephyr.a(rb.c.obj)
 .text.stack_left_limb
                0x00000000       0x36 zephyr/libzephyr.a(rb.c.obj)
 .text.z_rb_get_minmax
                0x00000000       0x18 zephyr/libzephyr.a(rb.c.obj)
 .text.rb_insert
                0x00000000      0x132 zephyr/libzephyr.a(rb.c.obj)
 .text.rb_remove
                0x00000000      0x1ae zephyr/libzephyr.a(rb.c.obj)
 .text.z_rb_walk
                0x00000000       0x24 zephyr/libzephyr.a(rb.c.obj)
 .text.z_rb_child
                0x00000000        0xe zephyr/libzephyr.a(rb.c.obj)
 .text.z_rb_is_black
                0x00000000        0x8 zephyr/libzephyr.a(rb.c.obj)
 .text.rb_contains
                0x00000000       0x2c zephyr/libzephyr.a(rb.c.obj)
 .text.z_rb_foreach_next
                0x00000000       0x58 zephyr/libzephyr.a(rb.c.obj)
 .debug_info    0x00000000     0x2969 zephyr/libzephyr.a(rb.c.obj)
 .debug_abbrev  0x00000000      0x535 zephyr/libzephyr.a(rb.c.obj)
 .debug_loc     0x00000000     0x22d1 zephyr/libzephyr.a(rb.c.obj)
 .debug_aranges
                0x00000000       0x80 zephyr/libzephyr.a(rb.c.obj)
 .debug_ranges  0x00000000      0x610 zephyr/libzephyr.a(rb.c.obj)
 .debug_line    0x00000000     0x13b2 zephyr/libzephyr.a(rb.c.obj)
 .debug_str     0x00000000      0x91b zephyr/libzephyr.a(rb.c.obj)
 .comment       0x00000000       0x7a zephyr/libzephyr.a(rb.c.obj)
 .debug_frame   0x00000000      0x1bc zephyr/libzephyr.a(rb.c.obj)
 .text          0x00000000        0x0 zephyr/libzephyr.a(sem.c.obj)
 .data          0x00000000        0x0 zephyr/libzephyr.a(sem.c.obj)
 .bss           0x00000000        0x0 zephyr/libzephyr.a(sem.c.obj)
 .text.sys_sem_init
                0x00000000        0xa zephyr/libzephyr.a(sem.c.obj)
 .text.sys_sem_give
                0x00000000        0xa zephyr/libzephyr.a(sem.c.obj)
 .text.sys_sem_take
                0x00000000       0x1e zephyr/libzephyr.a(sem.c.obj)
 .text.sys_sem_count_get
                0x00000000        0x4 zephyr/libzephyr.a(sem.c.obj)
 .debug_info    0x00000000      0xc91 zephyr/libzephyr.a(sem.c.obj)
 .debug_abbrev  0x00000000      0x271 zephyr/libzephyr.a(sem.c.obj)
 .debug_loc     0x00000000      0x205 zephyr/libzephyr.a(sem.c.obj)
 .debug_aranges
                0x00000000       0x38 zephyr/libzephyr.a(sem.c.obj)
 .debug_ranges  0x00000000       0x70 zephyr/libzephyr.a(sem.c.obj)
 .debug_line    0x00000000      0x44a zephyr/libzephyr.a(sem.c.obj)
 .debug_str     0x00000000      0x847 zephyr/libzephyr.a(sem.c.obj)
 .comment       0x00000000       0x7a zephyr/libzephyr.a(sem.c.obj)
 .debug_frame   0x00000000       0x68 zephyr/libzephyr.a(sem.c.obj)
 .text          0x00000000        0x0 zephyr/libzephyr.a(thread_entry.c.obj)
 .data          0x00000000        0x0 zephyr/libzephyr.a(thread_entry.c.obj)
 .bss           0x00000000        0x0 zephyr/libzephyr.a(thread_entry.c.obj)
 .text          0x00000000        0x0 zephyr/libzephyr.a(timeutil.c.obj)
 .data          0x00000000        0x0 zephyr/libzephyr.a(timeutil.c.obj)
 .bss           0x00000000        0x0 zephyr/libzephyr.a(timeutil.c.obj)
 .text          0x00000000        0x0 zephyr/libzephyr.a(work_q.c.obj)
 .data          0x00000000        0x0 zephyr/libzephyr.a(work_q.c.obj)
 .bss           0x00000000        0x0 zephyr/libzephyr.a(work_q.c.obj)
 .text.z_work_q_main
                0x00000000       0x3a zephyr/libzephyr.a(work_q.c.obj)
 .rodata.k_work_q_user_start.str1.1
                0x00000000        0xa zephyr/libzephyr.a(work_q.c.obj)
 .text.k_work_q_user_start
                0x00000000       0x58 zephyr/libzephyr.a(work_q.c.obj)
 .debug_info    0x00000000      0xff1 zephyr/libzephyr.a(work_q.c.obj)
 .debug_abbrev  0x00000000      0x3b0 zephyr/libzephyr.a(work_q.c.obj)
 .debug_loc     0x00000000      0x3d3 zephyr/libzephyr.a(work_q.c.obj)
 .debug_aranges
                0x00000000       0x28 zephyr/libzephyr.a(work_q.c.obj)
 .debug_ranges  0x00000000       0x60 zephyr/libzephyr.a(work_q.c.obj)
 .debug_line    0x00000000      0x4e6 zephyr/libzephyr.a(work_q.c.obj)
 .debug_str     0x00000000      0x992 zephyr/libzephyr.a(work_q.c.obj)
 .comment       0x00000000       0x7a zephyr/libzephyr.a(work_q.c.obj)
 .debug_frame   0x00000000       0x58 zephyr/libzephyr.a(work_q.c.obj)
 .text          0x00000000        0x0 zephyr/libzephyr.a(heap.c.obj)
 .data          0x00000000        0x0 zephyr/libzephyr.a(heap.c.obj)
 .bss           0x00000000        0x0 zephyr/libzephyr.a(heap.c.obj)
 .text.merge_chunks
                0x00000000       0x3c zephyr/libzephyr.a(heap.c.obj)
 .text.free_list_remove
                0x00000000       0x2e zephyr/libzephyr.a(heap.c.obj)
 .text.sys_heap_free
                0x00000000       0xa6 zephyr/libzephyr.a(heap.c.obj)
 .text.sys_heap_aligned_alloc
                0x00000000       0xb6 zephyr/libzephyr.a(heap.c.obj)
 .text          0x00000000        0x0 zephyr/libzephyr.a(heap-validate.c.obj)
 .data          0x00000000        0x0 zephyr/libzephyr.a(heap-validate.c.obj)
 .bss           0x00000000        0x0 zephyr/libzephyr.a(heap-validate.c.obj)
 .text.chunk_field
                0x00000000       0x16 zephyr/libzephyr.a(heap-validate.c.obj)
 .text.chunk_size
                0x00000000        0xc zephyr/libzephyr.a(heap-validate.c.obj)
 .text.set_chunk_used
                0x00000000       0x30 zephyr/libzephyr.a(heap-validate.c.obj)
 .text.right_chunk
                0x00000000        0xc zephyr/libzephyr.a(heap-validate.c.obj)
 .text.solo_free_header
                0x00000000       0x1a zephyr/libzephyr.a(heap-validate.c.obj)
 .text.rand32   0x00000000       0x3c zephyr/libzephyr.a(heap-validate.c.obj)
 .text.bucket_idx
                0x00000000       0x1a zephyr/libzephyr.a(heap-validate.c.obj)
 .text.max_chunkid
                0x00000000       0x10 zephyr/libzephyr.a(heap-validate.c.obj)
 .text.in_bounds
                0x00000000       0x32 zephyr/libzephyr.a(heap-validate.c.obj)
 .text.valid_chunk
                0x00000000       0xca zephyr/libzephyr.a(heap-validate.c.obj)
 .text.sys_heap_validate
                0x00000000      0x1a0 zephyr/libzephyr.a(heap-validate.c.obj)
 .text.sys_heap_stress
                0x00000000      0x108 zephyr/libzephyr.a(heap-validate.c.obj)
 .rodata.heap_dump.str1.1
                0x00000000       0x63 zephyr/libzephyr.a(heap-validate.c.obj)
 .text.heap_dump
                0x00000000       0xe0 zephyr/libzephyr.a(heap-validate.c.obj)
 .text.sys_heap_dump
                0x00000000        0x6 zephyr/libzephyr.a(heap-validate.c.obj)
 .data.state.8699
                0x00000000        0x8 zephyr/libzephyr.a(heap-validate.c.obj)
 .debug_info    0x00000000     0x1fd6 zephyr/libzephyr.a(heap-validate.c.obj)
 .debug_abbrev  0x00000000      0x49b zephyr/libzephyr.a(heap-validate.c.obj)
 .debug_loc     0x00000000      0xfce zephyr/libzephyr.a(heap-validate.c.obj)
 .debug_aranges
                0x00000000       0x88 zephyr/libzephyr.a(heap-validate.c.obj)
 .debug_ranges  0x00000000      0x340 zephyr/libzephyr.a(heap-validate.c.obj)
 .debug_line    0x00000000      0xdc0 zephyr/libzephyr.a(heap-validate.c.obj)
 .debug_str     0x00000000      0xb0d zephyr/libzephyr.a(heap-validate.c.obj)
 .comment       0x00000000       0x7a zephyr/libzephyr.a(heap-validate.c.obj)
 .debug_frame   0x00000000      0x18c zephyr/libzephyr.a(heap-validate.c.obj)
 .text          0x00000000        0x0 zephyr/libzephyr.a(cbprintf_complete.c.obj)
 .data          0x00000000        0x0 zephyr/libzephyr.a(cbprintf_complete.c.obj)
 .bss           0x00000000        0x0 zephyr/libzephyr.a(cbprintf_complete.c.obj)
 .text.cbprintf_arglen
                0x00000000       0x72 zephyr/libzephyr.a(cbprintf_complete.c.obj)
 .text          0x00000000        0x0 zephyr/libzephyr.a(ring_buffer.c.obj)
 .data          0x00000000        0x0 zephyr/libzephyr.a(ring_buffer.c.obj)
 .bss           0x00000000        0x0 zephyr/libzephyr.a(ring_buffer.c.obj)
 .text.ring_buf_item_put
                0x00000000       0x94 zephyr/libzephyr.a(ring_buffer.c.obj)
 .text.ring_buf_item_get
                0x00000000       0xd6 zephyr/libzephyr.a(ring_buffer.c.obj)
 .text          0x00000000        0x0 zephyr/libzephyr.a(configs.c.obj)
 .data          0x00000000        0x0 zephyr/libzephyr.a(configs.c.obj)
 .bss           0x00000000        0x0 zephyr/libzephyr.a(configs.c.obj)
 .text          0x00000000        0x0 zephyr/libzephyr.a(soc.c.obj)
 .data          0x00000000        0x0 zephyr/libzephyr.a(soc.c.obj)
 .bss           0x00000000        0x0 zephyr/libzephyr.a(soc.c.obj)
 .text          0x00000000        0x0 zephyr/libzephyr.a(power.c.obj)
 .data          0x00000000        0x0 zephyr/libzephyr.a(power.c.obj)
 .bss           0x00000000        0x0 zephyr/libzephyr.a(power.c.obj)
 .text.sys_set_power_state
                0x00000000        0x2 zephyr/libzephyr.a(power.c.obj)
 .text._sys_pm_power_state_exit_post_ops
                0x00000000        0xc zephyr/libzephyr.a(power.c.obj)
 .debug_info    0x00000000      0xb74 zephyr/libzephyr.a(power.c.obj)
 .debug_abbrev  0x00000000      0x237 zephyr/libzephyr.a(power.c.obj)
 .debug_loc     0x00000000       0x16 zephyr/libzephyr.a(power.c.obj)
 .debug_aranges
                0x00000000       0x28 zephyr/libzephyr.a(power.c.obj)
 .debug_ranges  0x00000000       0x18 zephyr/libzephyr.a(power.c.obj)
 .debug_line    0x00000000      0x3e0 zephyr/libzephyr.a(power.c.obj)
 .debug_str     0x00000000      0x92b zephyr/libzephyr.a(power.c.obj)
 .comment       0x00000000       0x7a zephyr/libzephyr.a(power.c.obj)
 .debug_frame   0x00000000       0x30 zephyr/libzephyr.a(power.c.obj)
 .text          0x00000000        0x0 zephyr/libzephyr.a(validate_base_addresses.c.obj)
 .data          0x00000000        0x0 zephyr/libzephyr.a(validate_base_addresses.c.obj)
 .bss           0x00000000        0x0 zephyr/libzephyr.a(validate_base_addresses.c.obj)
 .debug_info    0x00000000      0x916 zephyr/libzephyr.a(validate_base_addresses.c.obj)
 .debug_abbrev  0x00000000      0x166 zephyr/libzephyr.a(validate_base_addresses.c.obj)
 .debug_aranges
                0x00000000       0x18 zephyr/libzephyr.a(validate_base_addresses.c.obj)
 .debug_line    0x00000000      0x2b7 zephyr/libzephyr.a(validate_base_addresses.c.obj)
 .debug_str     0x00000000      0x757 zephyr/libzephyr.a(validate_base_addresses.c.obj)
 .comment       0x00000000       0x7a zephyr/libzephyr.a(validate_base_addresses.c.obj)
 .text          0x00000000        0x0 zephyr/libzephyr.a(validate_enabled_instances.c.obj)
 .data          0x00000000        0x0 zephyr/libzephyr.a(validate_enabled_instances.c.obj)
 .bss           0x00000000        0x0 zephyr/libzephyr.a(validate_enabled_instances.c.obj)
 .debug_info    0x00000000      0x916 zephyr/libzephyr.a(validate_enabled_instances.c.obj)
 .debug_abbrev  0x00000000      0x166 zephyr/libzephyr.a(validate_enabled_instances.c.obj)
 .debug_aranges
                0x00000000       0x18 zephyr/libzephyr.a(validate_enabled_instances.c.obj)
 .debug_line    0x00000000      0x2b7 zephyr/libzephyr.a(validate_enabled_instances.c.obj)
 .debug_str     0x00000000      0x75a zephyr/libzephyr.a(validate_enabled_instances.c.obj)
 .comment       0x00000000       0x7a zephyr/libzephyr.a(validate_enabled_instances.c.obj)
 .text          0x00000000        0x0 zephyr/libzephyr.a(log_list.c.obj)
 .data          0x00000000        0x0 zephyr/libzephyr.a(log_list.c.obj)
 .bss           0x00000000        0x0 zephyr/libzephyr.a(log_list.c.obj)
 .text          0x00000000        0x0 zephyr/libzephyr.a(log_core.c.obj)
 .data          0x00000000        0x0 zephyr/libzephyr.a(log_core.c.obj)
 .bss           0x00000000        0x0 zephyr/libzephyr.a(log_core.c.obj)
 .text.log_printk
                0x00000000        0x2 zephyr/libzephyr.a(log_core.c.obj)
 .text.log_count_args
                0x00000000       0x22 zephyr/libzephyr.a(log_core.c.obj)
 .text.log_hexdump_sync
                0x00000000       0x60 zephyr/libzephyr.a(log_core.c.obj)
 .text.log_thread_set
                0x00000000        0x2 zephyr/libzephyr.a(log_core.c.obj)
 .text.log_set_timestamp_func
                0x00000000       0x20 zephyr/libzephyr.a(log_core.c.obj)
 .text.z_impl_log_buffered_cnt
                0x00000000        0xc zephyr/libzephyr.a(log_core.c.obj)
 .text.log_src_cnt_get
                0x00000000       0x14 zephyr/libzephyr.a(log_core.c.obj)
 .text.log_get_strdup_pool_utilization
                0x00000000        0x4 zephyr/libzephyr.a(log_core.c.obj)
 .text.log_get_strdup_longest_string
                0x00000000        0x4 zephyr/libzephyr.a(log_core.c.obj)
 .text.log_n    0x00000000       0x16 zephyr/libzephyr.a(log_core.c.obj)
 .text.log_hexdump
                0x00000000       0x16 zephyr/libzephyr.a(log_core.c.obj)
 .text.log_generic
                0x00000000       0x8c zephyr/libzephyr.a(log_core.c.obj)
 .text.log_string_sync
                0x00000000       0x1c zephyr/libzephyr.a(log_core.c.obj)
 .text.z_impl_z_log_string_from_user
                0x00000000        0x2 zephyr/libzephyr.a(log_core.c.obj)
 .text.z_vrfy_z_log_hexdump_from_user
                0x00000000        0x2 zephyr/libzephyr.a(log_core.c.obj)
 .text.log_from_user
                0x00000000        0x6 zephyr/libzephyr.a(log_core.c.obj)
 .text.log_generic_from_user
                0x00000000        0x2 zephyr/libzephyr.a(log_core.c.obj)
 .text.log_hexdump_from_user
                0x00000000        0x2 zephyr/libzephyr.a(log_core.c.obj)
 .text          0x00000000        0x0 zephyr/libzephyr.a(log_msg.c.obj)
 .data          0x00000000        0x0 zephyr/libzephyr.a(log_msg.c.obj)
 .bss           0x00000000        0x0 zephyr/libzephyr.a(log_msg.c.obj)
 .text.log_msg_create_n
                0x00000000       0xa8 zephyr/libzephyr.a(log_msg.c.obj)
 .text.log_msg_hexdump_create
                0x00000000       0xa6 zephyr/libzephyr.a(log_msg.c.obj)
 .text.log_msg_hexdump_data_put
                0x00000000        0xe zephyr/libzephyr.a(log_msg.c.obj)
 .text          0x00000000        0x0 zephyr/libzephyr.a(log_output.c.obj)
 .data          0x00000000        0x0 zephyr/libzephyr.a(log_output.c.obj)
 .bss           0x00000000        0x0 zephyr/libzephyr.a(log_output.c.obj)
 .text.log_output_string
                0x00000000       0x70 zephyr/libzephyr.a(log_output.c.obj)
 .text.log_output_hexdump
                0x00000000       0x74 zephyr/libzephyr.a(log_output.c.obj)
 .text          0x00000000        0x0 zephyr/libzephyr.a(log_cmds.c.obj)
 .data          0x00000000        0x0 zephyr/libzephyr.a(log_cmds.c.obj)
 .bss           0x00000000        0x0 zephyr/libzephyr.a(log_cmds.c.obj)
 .text          0x00000000        0x0 zephyr/libzephyr.a(kernel_service.c.obj)
 .data          0x00000000        0x0 zephyr/libzephyr.a(kernel_service.c.obj)
 .bss           0x00000000        0x0 zephyr/libzephyr.a(kernel_service.c.obj)
 .text          0x00000000        0x0 zephyr/libzephyr.a(device_service.c.obj)
 .data          0x00000000        0x0 zephyr/libzephyr.a(device_service.c.obj)
 .bss           0x00000000        0x0 zephyr/libzephyr.a(device_service.c.obj)
 .text          0x00000000        0x0 zephyr/libzephyr.a(date_service.c.obj)
 .data          0x00000000        0x0 zephyr/libzephyr.a(date_service.c.obj)
 .bss           0x00000000        0x0 zephyr/libzephyr.a(date_service.c.obj)
 .text          0x00000000        0x0 zephyr/libzephyr.a(shell.c.obj)
 .data          0x00000000        0x0 zephyr/libzephyr.a(shell.c.obj)
 .bss           0x00000000        0x0 zephyr/libzephyr.a(shell.c.obj)
 .text.shell_uninit
                0x00000000       0x12 zephyr/libzephyr.a(shell.c.obj)
 .text.shell_stop
                0x00000000       0x14 zephyr/libzephyr.a(shell.c.obj)
 .rodata.shell_hexdump_line.str1.1
                0x00000000       0x1b zephyr/libzephyr.a(shell.c.obj)
 .text.shell_hexdump_line
                0x00000000       0xd0 zephyr/libzephyr.a(shell.c.obj)
 .text.shell_hexdump
                0x00000000       0x30 zephyr/libzephyr.a(shell.c.obj)
 .text.shell_prompt_change
                0x00000000       0x20 zephyr/libzephyr.a(shell.c.obj)
 .text.shell_execute_cmd
                0x00000000       0x5e zephyr/libzephyr.a(shell.c.obj)
 .text          0x00000000        0x0 zephyr/libzephyr.a(shell_fprintf.c.obj)
 .data          0x00000000        0x0 zephyr/libzephyr.a(shell_fprintf.c.obj)
 .bss           0x00000000        0x0 zephyr/libzephyr.a(shell_fprintf.c.obj)
 .text          0x00000000        0x0 zephyr/libzephyr.a(shell_utils.c.obj)
 .data          0x00000000        0x0 zephyr/libzephyr.a(shell_utils.c.obj)
 .bss           0x00000000        0x0 zephyr/libzephyr.a(shell_utils.c.obj)
 .text.shell_root_cmd_find
                0x00000000       0x3c zephyr/libzephyr.a(shell_utils.c.obj)
 .text.shell_set_root_cmd
                0x00000000       0x30 zephyr/libzephyr.a(shell_utils.c.obj)
 .text.shell_command_add
                0x00000000       0x64 zephyr/libzephyr.a(shell_utils.c.obj)
 .text.shell_device_lookup
                0x00000000       0x66 zephyr/libzephyr.a(shell_utils.c.obj)
 .text          0x00000000        0x0 zephyr/libzephyr.a(shell_ops.c.obj)
 .data          0x00000000        0x0 zephyr/libzephyr.a(shell_ops.c.obj)
 .bss           0x00000000        0x0 zephyr/libzephyr.a(shell_ops.c.obj)
 .text          0x00000000        0x0 zephyr/libzephyr.a(shell_uart.c.obj)
 .data          0x00000000        0x0 zephyr/libzephyr.a(shell_uart.c.obj)
 .bss           0x00000000        0x0 zephyr/libzephyr.a(shell_uart.c.obj)
 .text.shell_backend_uart_get_ptr
                0x00000000        0x8 zephyr/libzephyr.a(shell_uart.c.obj)
 .text          0x00000000        0x0 zephyr/libzephyr.a(shell_help.c.obj)
 .data          0x00000000        0x0 zephyr/libzephyr.a(shell_help.c.obj)
 .bss           0x00000000        0x0 zephyr/libzephyr.a(shell_help.c.obj)
 .text          0x00000000        0x0 zephyr/libzephyr.a(shell_cmds.c.obj)
 .data          0x00000000        0x0 zephyr/libzephyr.a(shell_cmds.c.obj)
 .bss           0x00000000        0x0 zephyr/libzephyr.a(shell_cmds.c.obj)
 .text          0x00000000        0x0 zephyr/libzephyr.a(shell_history.c.obj)
 .data          0x00000000        0x0 zephyr/libzephyr.a(shell_history.c.obj)
 .bss           0x00000000        0x0 zephyr/libzephyr.a(shell_history.c.obj)
 .text          0x00000000        0x0 zephyr/libzephyr.a(shell_log_backend.c.obj)
 .data          0x00000000        0x0 zephyr/libzephyr.a(shell_log_backend.c.obj)
 .bss           0x00000000        0x0 zephyr/libzephyr.a(shell_log_backend.c.obj)
 .text          0x00000000        0x0 zephyr/libzephyr.a(shell_wildcard.c.obj)
 .data          0x00000000        0x0 zephyr/libzephyr.a(shell_wildcard.c.obj)
 .bss           0x00000000        0x0 zephyr/libzephyr.a(shell_wildcard.c.obj)
 .text          0x00000000        0x0 zephyr/libzephyr.a(power.c.obj)
 .data          0x00000000        0x0 zephyr/libzephyr.a(power.c.obj)
 .bss           0x00000000        0x0 zephyr/libzephyr.a(power.c.obj)
 .text.sys_pm_dump_debug_info
                0x00000000        0x2 zephyr/libzephyr.a(power.c.obj)
 .text.sys_pm_notify_power_state_entry
                0x00000000        0x2 zephyr/libzephyr.a(power.c.obj)
 .text.sys_pm_notify_power_state_exit
                0x00000000        0x2 zephyr/libzephyr.a(power.c.obj)
 .text.sys_pm_force_power_state
                0x00000000        0xc zephyr/libzephyr.a(power.c.obj)
 .text._sys_suspend
                0x00000000       0x60 zephyr/libzephyr.a(power.c.obj)
 .text._sys_resume
                0x00000000       0x2c zephyr/libzephyr.a(power.c.obj)
 .bss.pm_state  0x00000000        0x1 zephyr/libzephyr.a(power.c.obj)
 .data.forced_pm_state
                0x00000000        0x1 zephyr/libzephyr.a(power.c.obj)
 .data.post_ops_done
                0x00000000        0x4 zephyr/libzephyr.a(power.c.obj)
 .text          0x00000000        0x0 zephyr/libzephyr.a(reboot.c.obj)
 .data          0x00000000        0x0 zephyr/libzephyr.a(reboot.c.obj)
 .bss           0x00000000        0x0 zephyr/libzephyr.a(reboot.c.obj)
 .text          0x00000000        0x0 zephyr/libzephyr.a(policy_residency.c.obj)
 .data          0x00000000        0x0 zephyr/libzephyr.a(policy_residency.c.obj)
 .bss           0x00000000        0x0 zephyr/libzephyr.a(policy_residency.c.obj)
 .text.sys_pm_policy_next_state
                0x00000000        0x6 zephyr/libzephyr.a(policy_residency.c.obj)
 .text.sys_pm_policy_low_power_devices
                0x00000000        0x4 zephyr/libzephyr.a(policy_residency.c.obj)
 .debug_info    0x00000000      0xbd9 zephyr/libzephyr.a(policy_residency.c.obj)
 .debug_abbrev  0x00000000      0x245 zephyr/libzephyr.a(policy_residency.c.obj)
 .debug_loc     0x00000000       0x4a zephyr/libzephyr.a(policy_residency.c.obj)
 .debug_aranges
                0x00000000       0x28 zephyr/libzephyr.a(policy_residency.c.obj)
 .debug_ranges  0x00000000       0x18 zephyr/libzephyr.a(policy_residency.c.obj)
 .debug_line    0x00000000      0x3ce zephyr/libzephyr.a(policy_residency.c.obj)
 .debug_str     0x00000000      0x977 zephyr/libzephyr.a(policy_residency.c.obj)
 .comment       0x00000000       0x7a zephyr/libzephyr.a(policy_residency.c.obj)
 .debug_frame   0x00000000       0x30 zephyr/libzephyr.a(policy_residency.c.obj)
 .text          0x00000000        0x0 zephyr/libzephyr.a(uart_console.c.obj)
 .data          0x00000000        0x0 zephyr/libzephyr.a(uart_console.c.obj)
 .bss           0x00000000        0x0 zephyr/libzephyr.a(uart_console.c.obj)
 .text          0x00000000        0x0 zephyr/libzephyr.a(clock_control_nrf.c.obj)
 .data          0x00000000        0x0 zephyr/libzephyr.a(clock_control_nrf.c.obj)
 .bss           0x00000000        0x0 zephyr/libzephyr.a(clock_control_nrf.c.obj)
 .text.z_nrf_clock_control_get_onoff
                0x00000000       0x10 zephyr/libzephyr.a(clock_control_nrf.c.obj)
 .text.z_nrf_clock_bt_ctlr_hf_request
                0x00000000       0x20 zephyr/libzephyr.a(clock_control_nrf.c.obj)
 .text.z_nrf_clock_bt_ctlr_hf_release
                0x00000000       0x20 zephyr/libzephyr.a(clock_control_nrf.c.obj)
 .text          0x00000000        0x0 zephyr/libzephyr.a(sys_clock_init.c.obj)
 .data          0x00000000        0x0 zephyr/libzephyr.a(sys_clock_init.c.obj)
 .bss           0x00000000        0x0 zephyr/libzephyr.a(sys_clock_init.c.obj)
 .text.z_clock_driver_init
                0x00000000        0x4 zephyr/libzephyr.a(sys_clock_init.c.obj)
 .text.z_clock_device_ctrl
                0x00000000        0x6 zephyr/libzephyr.a(sys_clock_init.c.obj)
 .text.z_clock_set_timeout
                0x00000000        0x2 zephyr/libzephyr.a(sys_clock_init.c.obj)
 .text          0x00000000        0x0 zephyr/libzephyr.a(nrf_rtc_timer.c.obj)
 .data          0x00000000        0x0 zephyr/libzephyr.a(nrf_rtc_timer.c.obj)
 .bss           0x00000000        0x0 zephyr/libzephyr.a(nrf_rtc_timer.c.obj)
 .text          0x00000000        0x0 zephyr/libzephyr.a(secure_services_ns.c.obj)
 .data          0x00000000        0x0 zephyr/libzephyr.a(secure_services_ns.c.obj)
 .bss           0x00000000        0x0 zephyr/libzephyr.a(secure_services_ns.c.obj)
 .text.spm_request_read
                0x00000000       0x18 zephyr/libzephyr.a(secure_services_ns.c.obj)
 .text.spm_firmware_info
                0x00000000       0x18 zephyr/libzephyr.a(secure_services_ns.c.obj)
 .text          0x00000000        0x0 zephyr/arch/common/libarch__common.a(sw_isr_common.c.obj)
 .data          0x00000000        0x0 zephyr/arch/common/libarch__common.a(sw_isr_common.c.obj)
 .bss           0x00000000        0x0 zephyr/arch/common/libarch__common.a(sw_isr_common.c.obj)
 .debug_info    0x00000000      0x1e2 zephyr/arch/common/libarch__common.a(sw_isr_common.c.obj)
 .debug_abbrev  0x00000000       0xdf zephyr/arch/common/libarch__common.a(sw_isr_common.c.obj)
 .debug_aranges
                0x00000000       0x18 zephyr/arch/common/libarch__common.a(sw_isr_common.c.obj)
 .debug_line    0x00000000      0x1a2 zephyr/arch/common/libarch__common.a(sw_isr_common.c.obj)
 .debug_str     0x00000000      0x37d zephyr/arch/common/libarch__common.a(sw_isr_common.c.obj)
 .comment       0x00000000       0x7a zephyr/arch/common/libarch__common.a(sw_isr_common.c.obj)
 .text          0x00000000        0x0 zephyr/arch/arch/arm/core/aarch32/libarch__arm__core__aarch32.a(swap.c.obj)
 .data          0x00000000        0x0 zephyr/arch/arch/arm/core/aarch32/libarch__arm__core__aarch32.a(swap.c.obj)
 .bss           0x00000000        0x0 zephyr/arch/arch/arm/core/aarch32/libarch__arm__core__aarch32.a(swap.c.obj)
 .text          0x00000000        0x0 zephyr/arch/arch/arm/core/aarch32/libarch__arm__core__aarch32.a(irq_manage.c.obj)
 .data          0x00000000        0x0 zephyr/arch/arch/arm/core/aarch32/libarch__arm__core__aarch32.a(irq_manage.c.obj)
 .bss           0x00000000        0x0 zephyr/arch/arch/arm/core/aarch32/libarch__arm__core__aarch32.a(irq_manage.c.obj)
 .text.arch_irq_disable
                0x00000000       0x28 zephyr/arch/arch/arm/core/aarch32/libarch__arm__core__aarch32.a(irq_manage.c.obj)
 .text._arch_isr_direct_pm
                0x00000000       0x1c zephyr/arch/arch/arm/core/aarch32/libarch__arm__core__aarch32.a(irq_manage.c.obj)
 .text          0x00000000        0x0 zephyr/arch/arch/arm/core/aarch32/libarch__arm__core__aarch32.a(thread.c.obj)
 .data          0x00000000        0x0 zephyr/arch/arch/arm/core/aarch32/libarch__arm__core__aarch32.a(thread.c.obj)
 .bss           0x00000000        0x0 zephyr/arch/arch/arm/core/aarch32/libarch__arm__core__aarch32.a(thread.c.obj)
 .text          0x00000000        0x0 zephyr/arch/arch/arm/core/aarch32/libarch__arm__core__aarch32.a(fatal.c.obj)
 .data          0x00000000        0x0 zephyr/arch/arch/arm/core/aarch32/libarch__arm__core__aarch32.a(fatal.c.obj)
 .bss           0x00000000        0x0 zephyr/arch/arch/arm/core/aarch32/libarch__arm__core__aarch32.a(fatal.c.obj)
 .text.arch_syscall_oops
                0x00000000       0x1c zephyr/arch/arch/arm/core/aarch32/libarch__arm__core__aarch32.a(fatal.c.obj)
 .text          0x00000000        0x0 zephyr/arch/arch/arm/core/aarch32/libarch__arm__core__aarch32.a(nmi.c.obj)
 .data          0x00000000        0x0 zephyr/arch/arch/arm/core/aarch32/libarch__arm__core__aarch32.a(nmi.c.obj)
 .bss           0x00000000        0x0 zephyr/arch/arch/arm/core/aarch32/libarch__arm__core__aarch32.a(nmi.c.obj)
 .text          0x00000000        0x0 zephyr/arch/arch/arm/core/aarch32/libarch__arm__core__aarch32.a(prep_c.c.obj)
 .data          0x00000000        0x0 zephyr/arch/arch/arm/core/aarch32/libarch__arm__core__aarch32.a(prep_c.c.obj)
 .bss           0x00000000        0x0 zephyr/arch/arch/arm/core/aarch32/libarch__arm__core__aarch32.a(prep_c.c.obj)
 .text          0x00000000        0x0 zephyr/arch/arch/arm/core/aarch32/libarch__arm__core__aarch32.a(swap_helper.S.obj)
 .data          0x00000000        0x0 zephyr/arch/arch/arm/core/aarch32/libarch__arm__core__aarch32.a(swap_helper.S.obj)
 .bss           0x00000000        0x0 zephyr/arch/arch/arm/core/aarch32/libarch__arm__core__aarch32.a(swap_helper.S.obj)
 .text          0x00000000        0x0 zephyr/arch/arch/arm/core/aarch32/libarch__arm__core__aarch32.a(cpu_idle.S.obj)
 .data          0x00000000        0x0 zephyr/arch/arch/arm/core/aarch32/libarch__arm__core__aarch32.a(cpu_idle.S.obj)
 .bss           0x00000000        0x0 zephyr/arch/arch/arm/core/aarch32/libarch__arm__core__aarch32.a(cpu_idle.S.obj)
 .text          0x00000000        0x0 zephyr/arch/arch/arm/core/aarch32/libarch__arm__core__aarch32.a(nmi_on_reset.S.obj)
 .data          0x00000000        0x0 zephyr/arch/arch/arm/core/aarch32/libarch__arm__core__aarch32.a(nmi_on_reset.S.obj)
 .bss           0x00000000        0x0 zephyr/arch/arch/arm/core/aarch32/libarch__arm__core__aarch32.a(nmi_on_reset.S.obj)
 .text          0x00000000        0x0 zephyr/arch/arch/arm/core/aarch32/libarch__arm__core__aarch32.a(isr_wrapper.S.obj)
 .data          0x00000000        0x0 zephyr/arch/arch/arm/core/aarch32/libarch__arm__core__aarch32.a(isr_wrapper.S.obj)
 .bss           0x00000000        0x0 zephyr/arch/arch/arm/core/aarch32/libarch__arm__core__aarch32.a(isr_wrapper.S.obj)
 .text          0x00000000        0x0 zephyr/arch/arch/arm/core/aarch32/cortex_m/libarch__arm__core__aarch32__cortex_m.a(vector_table.S.obj)
 .data          0x00000000        0x0 zephyr/arch/arch/arm/core/aarch32/cortex_m/libarch__arm__core__aarch32__cortex_m.a(vector_table.S.obj)
 .bss           0x00000000        0x0 zephyr/arch/arch/arm/core/aarch32/cortex_m/libarch__arm__core__aarch32__cortex_m.a(vector_table.S.obj)
 .text          0x00000000        0x0 zephyr/arch/arch/arm/core/aarch32/cortex_m/libarch__arm__core__aarch32__cortex_m.a(reset.S.obj)
 .data          0x00000000        0x0 zephyr/arch/arch/arm/core/aarch32/cortex_m/libarch__arm__core__aarch32__cortex_m.a(reset.S.obj)
 .bss           0x00000000        0x0 zephyr/arch/arch/arm/core/aarch32/cortex_m/libarch__arm__core__aarch32__cortex_m.a(reset.S.obj)
 .text          0x00000000        0x0 zephyr/arch/arch/arm/core/aarch32/cortex_m/libarch__arm__core__aarch32__cortex_m.a(fault_s.S.obj)
 .data          0x00000000        0x0 zephyr/arch/arch/arm/core/aarch32/cortex_m/libarch__arm__core__aarch32__cortex_m.a(fault_s.S.obj)
 .bss           0x00000000        0x0 zephyr/arch/arch/arm/core/aarch32/cortex_m/libarch__arm__core__aarch32__cortex_m.a(fault_s.S.obj)
 .text          0x00000000        0x0 zephyr/arch/arch/arm/core/aarch32/cortex_m/libarch__arm__core__aarch32__cortex_m.a(exc_exit.S.obj)
 .data          0x00000000        0x0 zephyr/arch/arch/arm/core/aarch32/cortex_m/libarch__arm__core__aarch32__cortex_m.a(exc_exit.S.obj)
 .bss           0x00000000        0x0 zephyr/arch/arch/arm/core/aarch32/cortex_m/libarch__arm__core__aarch32__cortex_m.a(exc_exit.S.obj)
 .text          0x00000000        0x0 zephyr/arch/arch/arm/core/aarch32/cortex_m/libarch__arm__core__aarch32__cortex_m.a(fault.c.obj)
 .data          0x00000000        0x0 zephyr/arch/arch/arm/core/aarch32/cortex_m/libarch__arm__core__aarch32__cortex_m.a(fault.c.obj)
 .bss           0x00000000        0x0 zephyr/arch/arch/arm/core/aarch32/cortex_m/libarch__arm__core__aarch32__cortex_m.a(fault.c.obj)
 .text          0x00000000        0x0 zephyr/arch/arch/arm/core/aarch32/cortex_m/libarch__arm__core__aarch32__cortex_m.a(scb.c.obj)
 .data          0x00000000        0x0 zephyr/arch/arch/arm/core/aarch32/cortex_m/libarch__arm__core__aarch32__cortex_m.a(scb.c.obj)
 .bss           0x00000000        0x0 zephyr/arch/arch/arm/core/aarch32/cortex_m/libarch__arm__core__aarch32__cortex_m.a(scb.c.obj)
 .text.z_arm_clear_arm_mpu_config
                0x00000000       0x20 zephyr/arch/arch/arm/core/aarch32/cortex_m/libarch__arm__core__aarch32__cortex_m.a(scb.c.obj)
 .text          0x00000000        0x0 zephyr/arch/arch/arm/core/aarch32/cortex_m/libarch__arm__core__aarch32__cortex_m.a(irq_init.c.obj)
 .data          0x00000000        0x0 zephyr/arch/arch/arm/core/aarch32/cortex_m/libarch__arm__core__aarch32__cortex_m.a(irq_init.c.obj)
 .bss           0x00000000        0x0 zephyr/arch/arch/arm/core/aarch32/cortex_m/libarch__arm__core__aarch32__cortex_m.a(irq_init.c.obj)
 .text          0x00000000        0x0 zephyr/arch/arch/arm/core/aarch32/cortex_m/libarch__arm__core__aarch32__cortex_m.a(thread_abort.c.obj)
 .data          0x00000000        0x0 zephyr/arch/arch/arm/core/aarch32/cortex_m/libarch__arm__core__aarch32__cortex_m.a(thread_abort.c.obj)
 .bss           0x00000000        0x0 zephyr/arch/arch/arm/core/aarch32/cortex_m/libarch__arm__core__aarch32__cortex_m.a(thread_abort.c.obj)
 .text          0x00000000        0x0 zephyr/arch/arch/arm/core/aarch32/cortex_m/mpu/libarch__arm__core__aarch32__cortex_m__mpu.a(arm_core_mpu.c.obj)
 .data          0x00000000        0x0 zephyr/arch/arch/arm/core/aarch32/cortex_m/mpu/libarch__arm__core__aarch32__cortex_m__mpu.a(arm_core_mpu.c.obj)
 .bss           0x00000000        0x0 zephyr/arch/arch/arm/core/aarch32/cortex_m/mpu/libarch__arm__core__aarch32__cortex_m__mpu.a(arm_core_mpu.c.obj)
 .text.z_arm_configure_dynamic_mpu_regions
                0x00000000       0x10 zephyr/arch/arch/arm/core/aarch32/cortex_m/mpu/libarch__arm__core__aarch32__cortex_m__mpu.a(arm_core_mpu.c.obj)
 .text          0x00000000        0x0 zephyr/arch/arch/arm/core/aarch32/cortex_m/mpu/libarch__arm__core__aarch32__cortex_m__mpu.a(arm_mpu.c.obj)
 .data          0x00000000        0x0 zephyr/arch/arch/arm/core/aarch32/cortex_m/mpu/libarch__arm__core__aarch32__cortex_m__mpu.a(arm_mpu.c.obj)
 .bss           0x00000000        0x0 zephyr/arch/arch/arm/core/aarch32/cortex_m/mpu/libarch__arm__core__aarch32__cortex_m__mpu.a(arm_mpu.c.obj)
 .text.arm_core_mpu_configure_dynamic_mpu_regions
                0x00000000       0x40 zephyr/arch/arch/arm/core/aarch32/cortex_m/mpu/libarch__arm__core__aarch32__cortex_m__mpu.a(arm_mpu.c.obj)
 .text          0x00000000        0x0 zephyr/arch/arch/arm/core/aarch32/cortex_m/cmse/libarch__arm__core__aarch32__cortex_m__cmse.a(arm_core_cmse.c.obj)
 .data          0x00000000        0x0 zephyr/arch/arch/arm/core/aarch32/cortex_m/cmse/libarch__arm__core__aarch32__cortex_m__cmse.a(arm_core_cmse.c.obj)
 .bss           0x00000000        0x0 zephyr/arch/arch/arm/core/aarch32/cortex_m/cmse/libarch__arm__core__aarch32__cortex_m__cmse.a(arm_core_cmse.c.obj)
 .text.arm_cmse_addr_read_ok
                0x00000000       0x12 zephyr/arch/arch/arm/core/aarch32/cortex_m/cmse/libarch__arm__core__aarch32__cortex_m__cmse.a(arm_core_cmse.c.obj)
 .text.arm_cmse_addr_readwrite_ok
                0x00000000       0x12 zephyr/arch/arch/arm/core/aarch32/cortex_m/cmse/libarch__arm__core__aarch32__cortex_m__cmse.a(arm_core_cmse.c.obj)
 .text.arm_cmse_addr_range_read_ok
                0x00000000       0x18 zephyr/arch/arch/arm/core/aarch32/cortex_m/cmse/libarch__arm__core__aarch32__cortex_m__cmse.a(arm_core_cmse.c.obj)
 .text.arm_cmse_addr_range_readwrite_ok
                0x00000000       0x18 zephyr/arch/arch/arm/core/aarch32/cortex_m/cmse/libarch__arm__core__aarch32__cortex_m__cmse.a(arm_core_cmse.c.obj)
 .text          0x00000000        0x0 zephyr/lib/libc/minimal/liblib__libc__minimal.a(abort.c.obj)
 .data          0x00000000        0x0 zephyr/lib/libc/minimal/liblib__libc__minimal.a(abort.c.obj)
 .bss           0x00000000        0x0 zephyr/lib/libc/minimal/liblib__libc__minimal.a(abort.c.obj)
 .rodata.abort.str1.1
                0x00000000        0x9 zephyr/lib/libc/minimal/liblib__libc__minimal.a(abort.c.obj)
 .text.abort    0x00000000       0x1c zephyr/lib/libc/minimal/liblib__libc__minimal.a(abort.c.obj)
 .debug_info    0x00000000      0x985 zephyr/lib/libc/minimal/liblib__libc__minimal.a(abort.c.obj)
 .debug_abbrev  0x00000000      0x1ce zephyr/lib/libc/minimal/liblib__libc__minimal.a(abort.c.obj)
 .debug_aranges
                0x00000000       0x20 zephyr/lib/libc/minimal/liblib__libc__minimal.a(abort.c.obj)
 .debug_ranges  0x00000000       0x10 zephyr/lib/libc/minimal/liblib__libc__minimal.a(abort.c.obj)
 .debug_line    0x00000000      0x34e zephyr/lib/libc/minimal/liblib__libc__minimal.a(abort.c.obj)
 .debug_str     0x00000000      0x7d4 zephyr/lib/libc/minimal/liblib__libc__minimal.a(abort.c.obj)
 .comment       0x00000000       0x7a zephyr/lib/libc/minimal/liblib__libc__minimal.a(abort.c.obj)
 .debug_frame   0x00000000       0x28 zephyr/lib/libc/minimal/liblib__libc__minimal.a(abort.c.obj)
 .text          0x00000000        0x0 zephyr/lib/libc/minimal/liblib__libc__minimal.a(atoi.c.obj)
 .data          0x00000000        0x0 zephyr/lib/libc/minimal/liblib__libc__minimal.a(atoi.c.obj)
 .bss           0x00000000        0x0 zephyr/lib/libc/minimal/liblib__libc__minimal.a(atoi.c.obj)
 .text.atoi     0x00000000       0x4c zephyr/lib/libc/minimal/liblib__libc__minimal.a(atoi.c.obj)
 .debug_info    0x00000000      0x111 zephyr/lib/libc/minimal/liblib__libc__minimal.a(atoi.c.obj)
 .debug_abbrev  0x00000000      0x102 zephyr/lib/libc/minimal/liblib__libc__minimal.a(atoi.c.obj)
 .debug_loc     0x00000000       0xab zephyr/lib/libc/minimal/liblib__libc__minimal.a(atoi.c.obj)
 .debug_aranges
                0x00000000       0x20 zephyr/lib/libc/minimal/liblib__libc__minimal.a(atoi.c.obj)
 .debug_ranges  0x00000000       0x10 zephyr/lib/libc/minimal/liblib__libc__minimal.a(atoi.c.obj)
 .debug_line    0x00000000      0x156 zephyr/lib/libc/minimal/liblib__libc__minimal.a(atoi.c.obj)
 .debug_str     0x00000000      0x21c zephyr/lib/libc/minimal/liblib__libc__minimal.a(atoi.c.obj)
 .comment       0x00000000       0x7a zephyr/lib/libc/minimal/liblib__libc__minimal.a(atoi.c.obj)
 .debug_frame   0x00000000       0x2c zephyr/lib/libc/minimal/liblib__libc__minimal.a(atoi.c.obj)
 .text          0x00000000        0x0 zephyr/lib/libc/minimal/liblib__libc__minimal.a(strtol.c.obj)
 .data          0x00000000        0x0 zephyr/lib/libc/minimal/liblib__libc__minimal.a(strtol.c.obj)
 .bss           0x00000000        0x0 zephyr/lib/libc/minimal/liblib__libc__minimal.a(strtol.c.obj)
 .text          0x00000000        0x0 zephyr/lib/libc/minimal/liblib__libc__minimal.a(strtoul.c.obj)
 .data          0x00000000        0x0 zephyr/lib/libc/minimal/liblib__libc__minimal.a(strtoul.c.obj)
 .bss           0x00000000        0x0 zephyr/lib/libc/minimal/liblib__libc__minimal.a(strtoul.c.obj)
 .text.strtoul  0x00000000       0xf2 zephyr/lib/libc/minimal/liblib__libc__minimal.a(strtoul.c.obj)
 .debug_info    0x00000000      0x2ba zephyr/lib/libc/minimal/liblib__libc__minimal.a(strtoul.c.obj)
 .debug_abbrev  0x00000000      0x123 zephyr/lib/libc/minimal/liblib__libc__minimal.a(strtoul.c.obj)
 .debug_loc     0x00000000      0x3c7 zephyr/lib/libc/minimal/liblib__libc__minimal.a(strtoul.c.obj)
 .debug_aranges
                0x00000000       0x20 zephyr/lib/libc/minimal/liblib__libc__minimal.a(strtoul.c.obj)
 .debug_ranges  0x00000000       0x10 zephyr/lib/libc/minimal/liblib__libc__minimal.a(strtoul.c.obj)
 .debug_line    0x00000000      0x301 zephyr/lib/libc/minimal/liblib__libc__minimal.a(strtoul.c.obj)
 .debug_str     0x00000000      0x2eb zephyr/lib/libc/minimal/liblib__libc__minimal.a(strtoul.c.obj)
 .comment       0x00000000       0x7a zephyr/lib/libc/minimal/liblib__libc__minimal.a(strtoul.c.obj)
 .debug_frame   0x00000000       0x30 zephyr/lib/libc/minimal/liblib__libc__minimal.a(strtoul.c.obj)
 .text          0x00000000        0x0 zephyr/lib/libc/minimal/liblib__libc__minimal.a(malloc.c.obj)
 .data          0x00000000        0x0 zephyr/lib/libc/minimal/liblib__libc__minimal.a(malloc.c.obj)
 .bss           0x00000000        0x0 zephyr/lib/libc/minimal/liblib__libc__minimal.a(malloc.c.obj)
 .rodata.malloc.str1.1
                0x00000000       0x2b zephyr/lib/libc/minimal/liblib__libc__minimal.a(malloc.c.obj)
 .text.malloc   0x00000000       0x3c zephyr/lib/libc/minimal/liblib__libc__minimal.a(malloc.c.obj)
 .text.realloc  0x00000000       0x40 zephyr/lib/libc/minimal/liblib__libc__minimal.a(malloc.c.obj)
 .text.free     0x00000000        0x4 zephyr/lib/libc/minimal/liblib__libc__minimal.a(malloc.c.obj)
 .text.calloc   0x00000000       0x2c zephyr/lib/libc/minimal/liblib__libc__minimal.a(malloc.c.obj)
 .text.reallocarray
                0x00000000       0x1e zephyr/lib/libc/minimal/liblib__libc__minimal.a(malloc.c.obj)
 .debug_info    0x00000000     0x10a3 zephyr/lib/libc/minimal/liblib__libc__minimal.a(malloc.c.obj)
 .debug_abbrev  0x00000000      0x38e zephyr/lib/libc/minimal/liblib__libc__minimal.a(malloc.c.obj)
 .debug_loc     0x00000000      0x41a zephyr/lib/libc/minimal/liblib__libc__minimal.a(malloc.c.obj)
 .debug_aranges
                0x00000000       0x40 zephyr/lib/libc/minimal/liblib__libc__minimal.a(malloc.c.obj)
 .debug_ranges  0x00000000       0xb8 zephyr/lib/libc/minimal/liblib__libc__minimal.a(malloc.c.obj)
 .debug_line    0x00000000      0x66a zephyr/lib/libc/minimal/liblib__libc__minimal.a(malloc.c.obj)
 .debug_str     0x00000000      0xc81 zephyr/lib/libc/minimal/liblib__libc__minimal.a(malloc.c.obj)
 .comment       0x00000000       0x7a zephyr/lib/libc/minimal/liblib__libc__minimal.a(malloc.c.obj)
 .debug_frame   0x00000000       0x9c zephyr/lib/libc/minimal/liblib__libc__minimal.a(malloc.c.obj)
 .text          0x00000000        0x0 zephyr/lib/libc/minimal/liblib__libc__minimal.a(bsearch.c.obj)
 .data          0x00000000        0x0 zephyr/lib/libc/minimal/liblib__libc__minimal.a(bsearch.c.obj)
 .bss           0x00000000        0x0 zephyr/lib/libc/minimal/liblib__libc__minimal.a(bsearch.c.obj)
 .text.bsearch  0x00000000       0x3c zephyr/lib/libc/minimal/liblib__libc__minimal.a(bsearch.c.obj)
 .debug_info    0x00000000      0x16a zephyr/lib/libc/minimal/liblib__libc__minimal.a(bsearch.c.obj)
 .debug_abbrev  0x00000000       0xea zephyr/lib/libc/minimal/liblib__libc__minimal.a(bsearch.c.obj)
 .debug_loc     0x00000000      0x133 zephyr/lib/libc/minimal/liblib__libc__minimal.a(bsearch.c.obj)
 .debug_aranges
                0x00000000       0x20 zephyr/lib/libc/minimal/liblib__libc__minimal.a(bsearch.c.obj)
 .debug_ranges  0x00000000       0x10 zephyr/lib/libc/minimal/liblib__libc__minimal.a(bsearch.c.obj)
 .debug_line    0x00000000      0x16f zephyr/lib/libc/minimal/liblib__libc__minimal.a(bsearch.c.obj)
 .debug_str     0x00000000      0x242 zephyr/lib/libc/minimal/liblib__libc__minimal.a(bsearch.c.obj)
 .comment       0x00000000       0x7a zephyr/lib/libc/minimal/liblib__libc__minimal.a(bsearch.c.obj)
 .debug_frame   0x00000000       0x38 zephyr/lib/libc/minimal/liblib__libc__minimal.a(bsearch.c.obj)
 .text          0x00000000        0x0 zephyr/lib/libc/minimal/liblib__libc__minimal.a(exit.c.obj)
 .data          0x00000000        0x0 zephyr/lib/libc/minimal/liblib__libc__minimal.a(exit.c.obj)
 .bss           0x00000000        0x0 zephyr/lib/libc/minimal/liblib__libc__minimal.a(exit.c.obj)
 .rodata._exit.str1.1
                0x00000000        0x6 zephyr/lib/libc/minimal/liblib__libc__minimal.a(exit.c.obj)
 .text._exit    0x00000000       0x10 zephyr/lib/libc/minimal/liblib__libc__minimal.a(exit.c.obj)
 .debug_info    0x00000000      0x968 zephyr/lib/libc/minimal/liblib__libc__minimal.a(exit.c.obj)
 .debug_abbrev  0x00000000      0x1c4 zephyr/lib/libc/minimal/liblib__libc__minimal.a(exit.c.obj)
 .debug_loc     0x00000000       0x25 zephyr/lib/libc/minimal/liblib__libc__minimal.a(exit.c.obj)
 .debug_aranges
                0x00000000       0x20 zephyr/lib/libc/minimal/liblib__libc__minimal.a(exit.c.obj)
 .debug_ranges  0x00000000       0x10 zephyr/lib/libc/minimal/liblib__libc__minimal.a(exit.c.obj)
 .debug_line    0x00000000      0x34d zephyr/lib/libc/minimal/liblib__libc__minimal.a(exit.c.obj)
 .debug_str     0x00000000      0x764 zephyr/lib/libc/minimal/liblib__libc__minimal.a(exit.c.obj)
 .comment       0x00000000       0x7a zephyr/lib/libc/minimal/liblib__libc__minimal.a(exit.c.obj)
 .debug_frame   0x00000000       0x28 zephyr/lib/libc/minimal/liblib__libc__minimal.a(exit.c.obj)
 .text          0x00000000        0x0 zephyr/lib/libc/minimal/liblib__libc__minimal.a(strncasecmp.c.obj)
 .data          0x00000000        0x0 zephyr/lib/libc/minimal/liblib__libc__minimal.a(strncasecmp.c.obj)
 .bss           0x00000000        0x0 zephyr/lib/libc/minimal/liblib__libc__minimal.a(strncasecmp.c.obj)
 .text.strncasecmp
                0x00000000       0x4c zephyr/lib/libc/minimal/liblib__libc__minimal.a(strncasecmp.c.obj)
 .debug_info    0x00000000      0x154 zephyr/lib/libc/minimal/liblib__libc__minimal.a(strncasecmp.c.obj)
 .debug_abbrev  0x00000000      0x108 zephyr/lib/libc/minimal/liblib__libc__minimal.a(strncasecmp.c.obj)
 .debug_loc     0x00000000      0x164 zephyr/lib/libc/minimal/liblib__libc__minimal.a(strncasecmp.c.obj)
 .debug_aranges
                0x00000000       0x20 zephyr/lib/libc/minimal/liblib__libc__minimal.a(strncasecmp.c.obj)
 .debug_ranges  0x00000000       0x10 zephyr/lib/libc/minimal/liblib__libc__minimal.a(strncasecmp.c.obj)
 .debug_line    0x00000000      0x1a6 zephyr/lib/libc/minimal/liblib__libc__minimal.a(strncasecmp.c.obj)
 .debug_str     0x00000000      0x245 zephyr/lib/libc/minimal/liblib__libc__minimal.a(strncasecmp.c.obj)
 .comment       0x00000000       0x7a zephyr/lib/libc/minimal/liblib__libc__minimal.a(strncasecmp.c.obj)
 .debug_frame   0x00000000       0x2c zephyr/lib/libc/minimal/liblib__libc__minimal.a(strncasecmp.c.obj)
 .text          0x00000000        0x0 zephyr/lib/libc/minimal/liblib__libc__minimal.a(strstr.c.obj)
 .data          0x00000000        0x0 zephyr/lib/libc/minimal/liblib__libc__minimal.a(strstr.c.obj)
 .bss           0x00000000        0x0 zephyr/lib/libc/minimal/liblib__libc__minimal.a(strstr.c.obj)
 .text          0x00000000        0x0 zephyr/lib/libc/minimal/liblib__libc__minimal.a(string.c.obj)
 .data          0x00000000        0x0 zephyr/lib/libc/minimal/liblib__libc__minimal.a(string.c.obj)
 .bss           0x00000000        0x0 zephyr/lib/libc/minimal/liblib__libc__minimal.a(string.c.obj)
 .text.strrchr  0x00000000       0x1a zephyr/lib/libc/minimal/liblib__libc__minimal.a(string.c.obj)
 .text.strnlen  0x00000000       0x12 zephyr/lib/libc/minimal/liblib__libc__minimal.a(string.c.obj)
 .text.strtok_r
                0x00000000       0x4c zephyr/lib/libc/minimal/liblib__libc__minimal.a(string.c.obj)
 .text.strcat   0x00000000       0x12 zephyr/lib/libc/minimal/liblib__libc__minimal.a(string.c.obj)
 .text.strncat  0x00000000       0x28 zephyr/lib/libc/minimal/liblib__libc__minimal.a(string.c.obj)
 .text.memchr   0x00000000       0x20 zephyr/lib/libc/minimal/liblib__libc__minimal.a(string.c.obj)
 .text          0x00000000        0x0 zephyr/lib/libc/minimal/liblib__libc__minimal.a(strspn.c.obj)
 .data          0x00000000        0x0 zephyr/lib/libc/minimal/liblib__libc__minimal.a(strspn.c.obj)
 .bss           0x00000000        0x0 zephyr/lib/libc/minimal/liblib__libc__minimal.a(strspn.c.obj)
 .text.strspn   0x00000000       0x20 zephyr/lib/libc/minimal/liblib__libc__minimal.a(strspn.c.obj)
 .text.strcspn  0x00000000       0x20 zephyr/lib/libc/minimal/liblib__libc__minimal.a(strspn.c.obj)
 .debug_info    0x00000000      0x128 zephyr/lib/libc/minimal/liblib__libc__minimal.a(strspn.c.obj)
 .debug_abbrev  0x00000000       0xcd zephyr/lib/libc/minimal/liblib__libc__minimal.a(strspn.c.obj)
 .debug_loc     0x00000000       0xcc zephyr/lib/libc/minimal/liblib__libc__minimal.a(strspn.c.obj)
 .debug_aranges
                0x00000000       0x28 zephyr/lib/libc/minimal/liblib__libc__minimal.a(strspn.c.obj)
 .debug_ranges  0x00000000       0x18 zephyr/lib/libc/minimal/liblib__libc__minimal.a(strspn.c.obj)
 .debug_line    0x00000000      0x17f zephyr/lib/libc/minimal/liblib__libc__minimal.a(strspn.c.obj)
 .debug_str     0x00000000      0x234 zephyr/lib/libc/minimal/liblib__libc__minimal.a(strspn.c.obj)
 .comment       0x00000000       0x7a zephyr/lib/libc/minimal/liblib__libc__minimal.a(strspn.c.obj)
 .debug_frame   0x00000000       0x50 zephyr/lib/libc/minimal/liblib__libc__minimal.a(strspn.c.obj)
 .text          0x00000000        0x0 zephyr/lib/libc/minimal/liblib__libc__minimal.a(stdout_console.c.obj)
 .data          0x00000000        0x0 zephyr/lib/libc/minimal/liblib__libc__minimal.a(stdout_console.c.obj)
 .bss           0x00000000        0x0 zephyr/lib/libc/minimal/liblib__libc__minimal.a(stdout_console.c.obj)
 .text.z_impl_zephyr_fwrite
                0x00000000       0x48 zephyr/lib/libc/minimal/liblib__libc__minimal.a(stdout_console.c.obj)
 .text.fputs    0x00000000       0x22 zephyr/lib/libc/minimal/liblib__libc__minimal.a(stdout_console.c.obj)
 .text.fwrite   0x00000000        0x4 zephyr/lib/libc/minimal/liblib__libc__minimal.a(stdout_console.c.obj)
 .text.puts     0x00000000       0x20 zephyr/lib/libc/minimal/liblib__libc__minimal.a(stdout_console.c.obj)
 .text          0x00000000        0x0 zephyr/lib/libc/minimal/liblib__libc__minimal.a(sprintf.c.obj)
 .data          0x00000000        0x0 zephyr/lib/libc/minimal/liblib__libc__minimal.a(sprintf.c.obj)
 .bss           0x00000000        0x0 zephyr/lib/libc/minimal/liblib__libc__minimal.a(sprintf.c.obj)
 .text.snprintf
                0x00000000       0x30 zephyr/lib/libc/minimal/liblib__libc__minimal.a(sprintf.c.obj)
 .text.vsnprintf
                0x00000000       0x24 zephyr/lib/libc/minimal/liblib__libc__minimal.a(sprintf.c.obj)
 .text.vsprintf
                0x00000000       0x28 zephyr/lib/libc/minimal/liblib__libc__minimal.a(sprintf.c.obj)
 .text          0x00000000        0x0 zephyr/lib/libc/minimal/liblib__libc__minimal.a(fprintf.c.obj)
 .data          0x00000000        0x0 zephyr/lib/libc/minimal/liblib__libc__minimal.a(fprintf.c.obj)
 .bss           0x00000000        0x0 zephyr/lib/libc/minimal/liblib__libc__minimal.a(fprintf.c.obj)
 .text.fprintf  0x00000000       0x24 zephyr/lib/libc/minimal/liblib__libc__minimal.a(fprintf.c.obj)
 .text.vfprintf
                0x00000000       0x10 zephyr/lib/libc/minimal/liblib__libc__minimal.a(fprintf.c.obj)
 .text.vprintf  0x00000000       0x10 zephyr/lib/libc/minimal/liblib__libc__minimal.a(fprintf.c.obj)
 .text          0x00000000        0x0 zephyr/lib/libc/minimal/liblib__libc__minimal.a(gmtime.c.obj)
 .data          0x00000000        0x0 zephyr/lib/libc/minimal/liblib__libc__minimal.a(gmtime.c.obj)
 .bss           0x00000000        0x0 zephyr/lib/libc/minimal/liblib__libc__minimal.a(gmtime.c.obj)
 .text.gmtime   0x00000000        0xc zephyr/lib/libc/minimal/liblib__libc__minimal.a(gmtime.c.obj)
 .bss.shared.3714
                0x00000000       0x24 zephyr/lib/libc/minimal/liblib__libc__minimal.a(gmtime.c.obj)
 .text          0x00000000        0x0 zephyr/lib/posix/liblib__posix.a(pthread_common.c.obj)
 .data          0x00000000        0x0 zephyr/lib/posix/liblib__posix.a(pthread_common.c.obj)
 .bss           0x00000000        0x0 zephyr/lib/posix/liblib__posix.a(pthread_common.c.obj)
 .text.timespec_to_timeoutms
                0x00000000       0x70 zephyr/lib/posix/liblib__posix.a(pthread_common.c.obj)
 .debug_info    0x00000000      0xad6 zephyr/lib/posix/liblib__posix.a(pthread_common.c.obj)
 .debug_abbrev  0x00000000      0x25f zephyr/lib/posix/liblib__posix.a(pthread_common.c.obj)
 .debug_loc     0x00000000       0xfb zephyr/lib/posix/liblib__posix.a(pthread_common.c.obj)
 .debug_aranges
                0x00000000       0x20 zephyr/lib/posix/liblib__posix.a(pthread_common.c.obj)
 .debug_ranges  0x00000000       0x10 zephyr/lib/posix/liblib__posix.a(pthread_common.c.obj)
 .debug_line    0x00000000      0x4bc zephyr/lib/posix/liblib__posix.a(pthread_common.c.obj)
 .debug_str     0x00000000      0x82b zephyr/lib/posix/liblib__posix.a(pthread_common.c.obj)
 .comment       0x00000000       0x7a zephyr/lib/posix/liblib__posix.a(pthread_common.c.obj)
 .debug_frame   0x00000000       0x38 zephyr/lib/posix/liblib__posix.a(pthread_common.c.obj)
 .text          0x00000000        0x0 zephyr/lib/posix/liblib__posix.a(clock.c.obj)
 .data          0x00000000        0x0 zephyr/lib/posix/liblib__posix.a(clock.c.obj)
 .bss           0x00000000        0x0 zephyr/lib/posix/liblib__posix.a(clock.c.obj)
 .text.gettimeofday
                0x00000000       0x24 zephyr/lib/posix/liblib__posix.a(clock.c.obj)
 .text          0x00000000        0x0 zephyr/lib/posix/liblib__posix.a(sleep.c.obj)
 .data          0x00000000        0x0 zephyr/lib/posix/liblib__posix.a(sleep.c.obj)
 .bss           0x00000000        0x0 zephyr/lib/posix/liblib__posix.a(sleep.c.obj)
 .text.sleep    0x00000000       0x2c zephyr/lib/posix/liblib__posix.a(sleep.c.obj)
 .text.usleep   0x00000000       0x3a zephyr/lib/posix/liblib__posix.a(sleep.c.obj)
 .debug_info    0x00000000      0xcfb zephyr/lib/posix/liblib__posix.a(sleep.c.obj)
 .debug_abbrev  0x00000000      0x31c zephyr/lib/posix/liblib__posix.a(sleep.c.obj)
 .debug_loc     0x00000000      0x2af zephyr/lib/posix/liblib__posix.a(sleep.c.obj)
 .debug_aranges
                0x00000000       0x28 zephyr/lib/posix/liblib__posix.a(sleep.c.obj)
 .debug_ranges  0x00000000       0xa0 zephyr/lib/posix/liblib__posix.a(sleep.c.obj)
 .debug_line    0x00000000      0x491 zephyr/lib/posix/liblib__posix.a(sleep.c.obj)
 .debug_str     0x00000000      0x843 zephyr/lib/posix/liblib__posix.a(sleep.c.obj)
 .comment       0x00000000       0x7a zephyr/lib/posix/liblib__posix.a(sleep.c.obj)
 .debug_frame   0x00000000       0x48 zephyr/lib/posix/liblib__posix.a(sleep.c.obj)
 .text          0x00000000        0x0 zephyr/lib/posix/liblib__posix.a(timer.c.obj)
 .data          0x00000000        0x0 zephyr/lib/posix/liblib__posix.a(timer.c.obj)
 .bss           0x00000000        0x0 zephyr/lib/posix/liblib__posix.a(timer.c.obj)
 .text.zephyr_timer_wrapper
                0x00000000        0xc zephyr/lib/posix/liblib__posix.a(timer.c.obj)
 .text.timer_create
                0x00000000       0x84 zephyr/lib/posix/liblib__posix.a(timer.c.obj)
 .text.timer_gettime
                0x00000000       0x68 zephyr/lib/posix/liblib__posix.a(timer.c.obj)
 .text.timer_settime
                0x00000000       0xfc zephyr/lib/posix/liblib__posix.a(timer.c.obj)
 .text.timer_delete
                0x00000000       0x38 zephyr/lib/posix/liblib__posix.a(timer.c.obj)
 ._k_mem_slab.static.posix_timer_slab
                0x00000000       0x1c zephyr/lib/posix/liblib__posix.a(timer.c.obj)
 .noinit."WEST_TOPDIR/zephyr/lib/posix/timer.c".0
                0x00000000      0x1b8 zephyr/lib/posix/liblib__posix.a(timer.c.obj)
 .debug_info    0x00000000     0x1750 zephyr/lib/posix/liblib__posix.a(timer.c.obj)
 .debug_abbrev  0x00000000      0x44c zephyr/lib/posix/liblib__posix.a(timer.c.obj)
 .debug_loc     0x00000000      0x940 zephyr/lib/posix/liblib__posix.a(timer.c.obj)
 .debug_aranges
                0x00000000       0x40 zephyr/lib/posix/liblib__posix.a(timer.c.obj)
 .debug_ranges  0x00000000      0x1b8 zephyr/lib/posix/liblib__posix.a(timer.c.obj)
 .debug_line    0x00000000      0x903 zephyr/lib/posix/liblib__posix.a(timer.c.obj)
 .debug_str     0x00000000      0xc04 zephyr/lib/posix/liblib__posix.a(timer.c.obj)
 .comment       0x00000000       0x7a zephyr/lib/posix/liblib__posix.a(timer.c.obj)
 .debug_frame   0x00000000       0xa8 zephyr/lib/posix/liblib__posix.a(timer.c.obj)
 .text          0x00000000        0x0 zephyr/lib/posix/liblib__posix.a(nanosleep.c.obj)
 .data          0x00000000        0x0 zephyr/lib/posix/liblib__posix.a(nanosleep.c.obj)
 .bss           0x00000000        0x0 zephyr/lib/posix/liblib__posix.a(nanosleep.c.obj)
 .text.nanosleep
                0x00000000      0x10c zephyr/lib/posix/liblib__posix.a(nanosleep.c.obj)
 .debug_info    0x00000000      0xcb5 zephyr/lib/posix/liblib__posix.a(nanosleep.c.obj)
 .debug_abbrev  0x00000000      0x30d zephyr/lib/posix/liblib__posix.a(nanosleep.c.obj)
 .debug_loc     0x00000000      0x279 zephyr/lib/posix/liblib__posix.a(nanosleep.c.obj)
 .debug_aranges
                0x00000000       0x20 zephyr/lib/posix/liblib__posix.a(nanosleep.c.obj)
 .debug_ranges  0x00000000       0x40 zephyr/lib/posix/liblib__posix.a(nanosleep.c.obj)
 .debug_line    0x00000000      0x535 zephyr/lib/posix/liblib__posix.a(nanosleep.c.obj)
 .debug_str     0x00000000      0x870 zephyr/lib/posix/liblib__posix.a(nanosleep.c.obj)
 .comment       0x00000000       0x7a zephyr/lib/posix/liblib__posix.a(nanosleep.c.obj)
 .debug_frame   0x00000000       0x30 zephyr/lib/posix/liblib__posix.a(nanosleep.c.obj)
 .text          0x00000000        0x0 zephyr/soc/arm/common/cortex_m/libsoc__arm__common__cortex_m.a(arm_mpu_regions.c.obj)
 .data          0x00000000        0x0 zephyr/soc/arm/common/cortex_m/libsoc__arm__common__cortex_m.a(arm_mpu_regions.c.obj)
 .bss           0x00000000        0x0 zephyr/soc/arm/common/cortex_m/libsoc__arm__common__cortex_m.a(arm_mpu_regions.c.obj)
 .text          0x00000000        0x0 zephyr/drivers/gpio/libdrivers__gpio.a(gpio_nrfx.c.obj)
 .data          0x00000000        0x0 zephyr/drivers/gpio/libdrivers__gpio.a(gpio_nrfx.c.obj)
 .bss           0x00000000        0x0 zephyr/drivers/gpio/libdrivers__gpio.a(gpio_nrfx.c.obj)
 .text          0x00000000        0x0 zephyr/drivers/serial/libdrivers__serial.a(uart_nrfx_uarte.c.obj)
 .data          0x00000000        0x0 zephyr/drivers/serial/libdrivers__serial.a(uart_nrfx_uarte.c.obj)
 .bss           0x00000000        0x0 zephyr/drivers/serial/libdrivers__serial.a(uart_nrfx_uarte.c.obj)
 .text          0x00000000        0x0 modules/nrf/lib/fatal_error/lib..__nrf__lib__fatal_error.a(fatal_error.c.obj)
 .data          0x00000000        0x0 modules/nrf/lib/fatal_error/lib..__nrf__lib__fatal_error.a(fatal_error.c.obj)
 .bss           0x00000000        0x0 modules/nrf/lib/fatal_error/lib..__nrf__lib__fatal_error.a(fatal_error.c.obj)
 .text          0x00000000        0x0 modules/nrf/subsys/fw_info/lib..__nrf__subsys__fw_info.a(fw_info.c.obj)
 .data          0x00000000        0x0 modules/nrf/subsys/fw_info/lib..__nrf__subsys__fw_info.a(fw_info.c.obj)
 .bss           0x00000000        0x0 modules/nrf/subsys/fw_info/lib..__nrf__subsys__fw_info.a(fw_info.c.obj)
 .text.fw_info_ext_api_provide
                0x00000000       0xfc modules/nrf/subsys/fw_info/lib..__nrf__subsys__fw_info.a(fw_info.c.obj)
 .text.fw_info_invalidate
                0x00000000       0x1c modules/nrf/subsys/fw_info/lib..__nrf__subsys__fw_info.a(fw_info.c.obj)
 .rodata.fw_info_allowed_offsets
                0x00000000       0x14 modules/nrf/subsys/fw_info/lib..__nrf__subsys__fw_info.a(fw_info.c.obj)
 .text          0x00000000        0x0 modules/nordic/lib..__modules__hal__nordic.a(system_nrf9160.c.obj)
 .data          0x00000000        0x0 modules/nordic/lib..__modules__hal__nordic.a(system_nrf9160.c.obj)
 .bss           0x00000000        0x0 modules/nordic/lib..__modules__hal__nordic.a(system_nrf9160.c.obj)
 .text.SystemCoreClockUpdate
                0x00000000       0x10 modules/nordic/lib..__modules__hal__nordic.a(system_nrf9160.c.obj)
 .text          0x00000000        0x0 modules/nordic/lib..__modules__hal__nordic.a(nrfx_glue.c.obj)
 .data          0x00000000        0x0 modules/nordic/lib..__modules__hal__nordic.a(nrfx_glue.c.obj)
 .bss           0x00000000        0x0 modules/nordic/lib..__modules__hal__nordic.a(nrfx_glue.c.obj)
 .rodata.nrfx_error_string_get.str1.1
                0x00000000      0x178 modules/nordic/lib..__modules__hal__nordic.a(nrfx_glue.c.obj)
 .text.nrfx_error_string_get
                0x00000000       0xd4 modules/nordic/lib..__modules__hal__nordic.a(nrfx_glue.c.obj)
 .text          0x00000000        0x0 modules/nordic/lib..__modules__hal__nordic.a(nrfx_clock.c.obj)
 .data          0x00000000        0x0 modules/nordic/lib..__modules__hal__nordic.a(nrfx_clock.c.obj)
 .bss           0x00000000        0x0 modules/nordic/lib..__modules__hal__nordic.a(nrfx_clock.c.obj)
 .text.nrfx_clock_disable
                0x00000000       0x18 modules/nordic/lib..__modules__hal__nordic.a(nrfx_clock.c.obj)
 .text.nrfx_clock_uninit
                0x00000000       0x1c modules/nordic/lib..__modules__hal__nordic.a(nrfx_clock.c.obj)
 .text.nrfx_clock_calibration_start
                0x00000000        0x8 modules/nordic/lib..__modules__hal__nordic.a(nrfx_clock.c.obj)
 .text.nrfx_clock_is_calibrating
                0x00000000        0x8 modules/nordic/lib..__modules__hal__nordic.a(nrfx_clock.c.obj)
 .text.nrfx_clock_calibration_timer_start
                0x00000000        0x2 modules/nordic/lib..__modules__hal__nordic.a(nrfx_clock.c.obj)
 .text.nrfx_clock_calibration_timer_stop
                0x00000000        0x2 modules/nordic/lib..__modules__hal__nordic.a(nrfx_clock.c.obj)
 .text          0x00000000        0x0 modules/nordic/lib..__modules__hal__nordic.a(nrfx_dppi.c.obj)
 .data          0x00000000        0x0 modules/nordic/lib..__modules__hal__nordic.a(nrfx_dppi.c.obj)
 .bss           0x00000000        0x0 modules/nordic/lib..__modules__hal__nordic.a(nrfx_dppi.c.obj)
 .text.nrfx_dppi_free
                0x00000000       0x48 modules/nordic/lib..__modules__hal__nordic.a(nrfx_dppi.c.obj)
 .text.nrfx_dppi_channel_free
                0x00000000       0x34 modules/nordic/lib..__modules__hal__nordic.a(nrfx_dppi.c.obj)
 .text.nrfx_dppi_channel_enable
                0x00000000       0x30 modules/nordic/lib..__modules__hal__nordic.a(nrfx_dppi.c.obj)
 .text.nrfx_dppi_channel_disable
                0x00000000       0x30 modules/nordic/lib..__modules__hal__nordic.a(nrfx_dppi.c.obj)
 .text.nrfx_dppi_group_alloc
                0x00000000       0x3c modules/nordic/lib..__modules__hal__nordic.a(nrfx_dppi.c.obj)
 .text.nrfx_dppi_group_free
                0x00000000       0x3c modules/nordic/lib..__modules__hal__nordic.a(nrfx_dppi.c.obj)
 .text.nrfx_dppi_channel_include_in_group
                0x00000000       0x48 modules/nordic/lib..__modules__hal__nordic.a(nrfx_dppi.c.obj)
 .text.nrfx_dppi_channel_remove_from_group
                0x00000000       0x48 modules/nordic/lib..__modules__hal__nordic.a(nrfx_dppi.c.obj)
 .text.nrfx_dppi_group_clear
                0x00000000       0x34 modules/nordic/lib..__modules__hal__nordic.a(nrfx_dppi.c.obj)
 .text.nrfx_dppi_group_enable
                0x00000000       0x2c modules/nordic/lib..__modules__hal__nordic.a(nrfx_dppi.c.obj)
 .text.nrfx_dppi_group_disable
                0x00000000       0x2c modules/nordic/lib..__modules__hal__nordic.a(nrfx_dppi.c.obj)
 .bss.m_allocated_groups
                0x00000000        0x1 modules/nordic/lib..__modules__hal__nordic.a(nrfx_dppi.c.obj)
 .text          0x00000000        0x0 modules/nordic/lib..__modules__hal__nordic.a(nrfx_nvmc.c.obj)
 .data          0x00000000        0x0 modules/nordic/lib..__modules__hal__nordic.a(nrfx_nvmc.c.obj)
 .bss           0x00000000        0x0 modules/nordic/lib..__modules__hal__nordic.a(nrfx_nvmc.c.obj)
 .text.partial_word_create
                0x00000000       0x26 modules/nordic/lib..__modules__hal__nordic.a(nrfx_nvmc.c.obj)
 .text.nvmc_words_write
                0x00000000       0x28 modules/nordic/lib..__modules__hal__nordic.a(nrfx_nvmc.c.obj)
 .text.nrfx_nvmc_page_erase
                0x00000000       0x38 modules/nordic/lib..__modules__hal__nordic.a(nrfx_nvmc.c.obj)
 .text.nrfx_nvmc_uicr_erase
                0x00000000        0x8 modules/nordic/lib..__modules__hal__nordic.a(nrfx_nvmc.c.obj)
 .text.nrfx_nvmc_all_erase
                0x00000000       0x24 modules/nordic/lib..__modules__hal__nordic.a(nrfx_nvmc.c.obj)
 .text.nrfx_nvmc_page_partial_erase_init
                0x00000000       0x30 modules/nordic/lib..__modules__hal__nordic.a(nrfx_nvmc.c.obj)
 .text.nrfx_nvmc_page_partial_erase_continue
                0x00000000       0x4c modules/nordic/lib..__modules__hal__nordic.a(nrfx_nvmc.c.obj)
 .text.nrfx_nvmc_byte_writable_check
                0x00000000        0xe modules/nordic/lib..__modules__hal__nordic.a(nrfx_nvmc.c.obj)
 .text.nrfx_nvmc_word_writable_check
                0x00000000        0xe modules/nordic/lib..__modules__hal__nordic.a(nrfx_nvmc.c.obj)
 .text.nrfx_nvmc_word_write
                0x00000000       0x24 modules/nordic/lib..__modules__hal__nordic.a(nrfx_nvmc.c.obj)
 .text.nrfx_nvmc_byte_write
                0x00000000       0x20 modules/nordic/lib..__modules__hal__nordic.a(nrfx_nvmc.c.obj)
 .text.nrfx_nvmc_halfword_write
                0x00000000       0x20 modules/nordic/lib..__modules__hal__nordic.a(nrfx_nvmc.c.obj)
 .text.nrfx_nvmc_bytes_write
                0x00000000       0x84 modules/nordic/lib..__modules__hal__nordic.a(nrfx_nvmc.c.obj)
 .text.nrfx_nvmc_words_write
                0x00000000       0x1c modules/nordic/lib..__modules__hal__nordic.a(nrfx_nvmc.c.obj)
 .text.nrfx_nvmc_otp_halfword_read
                0x00000000       0x10 modules/nordic/lib..__modules__hal__nordic.a(nrfx_nvmc.c.obj)
 .text.nrfx_nvmc_halfword_writable_check
                0x00000000       0x1c modules/nordic/lib..__modules__hal__nordic.a(nrfx_nvmc.c.obj)
 .text.nrfx_nvmc_flash_size_get
                0x00000000        0x6 modules/nordic/lib..__modules__hal__nordic.a(nrfx_nvmc.c.obj)
 .text.nrfx_nvmc_flash_page_size_get
                0x00000000        0x6 modules/nordic/lib..__modules__hal__nordic.a(nrfx_nvmc.c.obj)
 .text.nrfx_nvmc_flash_page_count_get
                0x00000000        0x6 modules/nordic/lib..__modules__hal__nordic.a(nrfx_nvmc.c.obj)
 .bss.m_partial_erase_time_elapsed
                0x00000000        0x4 modules/nordic/lib..__modules__hal__nordic.a(nrfx_nvmc.c.obj)
 .data.m_partial_erase_page_addr
                0x00000000        0x4 modules/nordic/lib..__modules__hal__nordic.a(nrfx_nvmc.c.obj)
 .debug_info    0x00000000     0x13fa modules/nordic/lib..__modules__hal__nordic.a(nrfx_nvmc.c.obj)
 .debug_abbrev  0x00000000      0x488 modules/nordic/lib..__modules__hal__nordic.a(nrfx_nvmc.c.obj)
 .debug_loc     0x00000000      0xade modules/nordic/lib..__modules__hal__nordic.a(nrfx_nvmc.c.obj)
 .debug_aranges
                0x00000000       0xb0 modules/nordic/lib..__modules__hal__nordic.a(nrfx_nvmc.c.obj)
 .debug_ranges  0x00000000      0x330 modules/nordic/lib..__modules__hal__nordic.a(nrfx_nvmc.c.obj)
 .debug_line    0x00000000      0xbd2 modules/nordic/lib..__modules__hal__nordic.a(nrfx_nvmc.c.obj)
 .debug_str     0x00000000      0xb66 modules/nordic/lib..__modules__hal__nordic.a(nrfx_nvmc.c.obj)
 .comment       0x00000000       0x7a modules/nordic/lib..__modules__hal__nordic.a(nrfx_nvmc.c.obj)
 .debug_frame   0x00000000      0x1a0 modules/nordic/lib..__modules__hal__nordic.a(nrfx_nvmc.c.obj)
 .text          0x00000000        0x0 zephyr/kernel/libkernel.a(device.c.obj)
 .data          0x00000000        0x0 zephyr/kernel/libkernel.a(device.c.obj)
 .bss           0x00000000        0x0 zephyr/kernel/libkernel.a(device.c.obj)
 .text.z_device_get_all_static
                0x00000000       0x14 zephyr/kernel/libkernel.a(device.c.obj)
 .text.device_busy_set
                0x00000000        0x2 zephyr/kernel/libkernel.a(device.c.obj)
 .text.device_busy_clear
                0x00000000        0x2 zephyr/kernel/libkernel.a(device.c.obj)
 .text          0x00000000        0x0 zephyr/kernel/libkernel.a(errno.c.obj)
 .data          0x00000000        0x0 zephyr/kernel/libkernel.a(errno.c.obj)
 .bss           0x00000000        0x0 zephyr/kernel/libkernel.a(errno.c.obj)
 .text          0x00000000        0x0 zephyr/kernel/libkernel.a(fatal.c.obj)
 .data          0x00000000        0x0 zephyr/kernel/libkernel.a(fatal.c.obj)
 .bss           0x00000000        0x0 zephyr/kernel/libkernel.a(fatal.c.obj)
 .text.z_coredump
                0x00000000        0x2 zephyr/kernel/libkernel.a(fatal.c.obj)
 .text.z_coredump_memory_dump
                0x00000000        0x2 zephyr/kernel/libkernel.a(fatal.c.obj)
 .text.z_coredump_buffer_output
                0x00000000        0x4 zephyr/kernel/libkernel.a(fatal.c.obj)
 .text.arch_system_halt
                0x00000000       0x12 zephyr/kernel/libkernel.a(fatal.c.obj)
 .rodata.k_sys_fatal_error_handler.str1.1
                0x00000000        0xf zephyr/kernel/libkernel.a(fatal.c.obj)
 .text.k_sys_fatal_error_handler
                0x00000000       0x3c zephyr/kernel/libkernel.a(fatal.c.obj)
 .text.k_fatal_halt
                0x00000000        0x6 zephyr/kernel/libkernel.a(fatal.c.obj)
 .text          0x00000000        0x0 zephyr/kernel/libkernel.a(idle.c.obj)
 .data          0x00000000        0x0 zephyr/kernel/libkernel.a(idle.c.obj)
 .bss           0x00000000        0x0 zephyr/kernel/libkernel.a(idle.c.obj)
 .bss.sys_pm_idle_exit_notify
                0x00000000        0x1 zephyr/kernel/libkernel.a(idle.c.obj)
 .text          0x00000000        0x0 zephyr/kernel/libkernel.a(init.c.obj)
 .data          0x00000000        0x0 zephyr/kernel/libkernel.a(init.c.obj)
 .bss           0x00000000        0x0 zephyr/kernel/libkernel.a(init.c.obj)
 .text.main     0x00000000        0x4 zephyr/kernel/libkernel.a(init.c.obj)
 .text          0x00000000        0x0 zephyr/kernel/libkernel.a(mem_slab.c.obj)
 .data          0x00000000        0x0 zephyr/kernel/libkernel.a(mem_slab.c.obj)
 .bss           0x00000000        0x0 zephyr/kernel/libkernel.a(mem_slab.c.obj)
 .text          0x00000000        0x0 zephyr/kernel/libkernel.a(msg_q.c.obj)
 .data          0x00000000        0x0 zephyr/kernel/libkernel.a(msg_q.c.obj)
 .bss           0x00000000        0x0 zephyr/kernel/libkernel.a(msg_q.c.obj)
 .text.k_msgq_init
                0x00000000       0x1e zephyr/kernel/libkernel.a(msg_q.c.obj)
 .text.z_impl_k_msgq_alloc_init
                0x00000000       0x3c zephyr/kernel/libkernel.a(msg_q.c.obj)
 .text.k_msgq_cleanup
                0x00000000       0x32 zephyr/kernel/libkernel.a(msg_q.c.obj)
 .text.z_impl_k_msgq_get_attrs
                0x00000000        0xe zephyr/kernel/libkernel.a(msg_q.c.obj)
 .text.z_impl_k_msgq_purge
                0x00000000       0x42 zephyr/kernel/libkernel.a(msg_q.c.obj)
 .text          0x00000000        0x0 zephyr/kernel/libkernel.a(mutex.c.obj)
 .data          0x00000000        0x0 zephyr/kernel/libkernel.a(mutex.c.obj)
 .bss           0x00000000        0x0 zephyr/kernel/libkernel.a(mutex.c.obj)
 .text          0x00000000        0x0 zephyr/kernel/libkernel.a(queue.c.obj)
 .data          0x00000000        0x0 zephyr/kernel/libkernel.a(queue.c.obj)
 .bss           0x00000000        0x0 zephyr/kernel/libkernel.a(queue.c.obj)
 .text.z_queue_node_peek
                0x00000000       0x18 zephyr/kernel/libkernel.a(queue.c.obj)
 .text.z_impl_k_queue_init
                0x00000000       0x18 zephyr/kernel/libkernel.a(queue.c.obj)
 .text.z_impl_k_queue_cancel_wait
                0x00000000       0x42 zephyr/kernel/libkernel.a(queue.c.obj)
 .text.k_queue_insert
                0x00000000       0x10 zephyr/kernel/libkernel.a(queue.c.obj)
 .text.k_queue_prepend
                0x00000000       0x14 zephyr/kernel/libkernel.a(queue.c.obj)
 .text.z_impl_k_queue_alloc_append
                0x00000000       0x14 zephyr/kernel/libkernel.a(queue.c.obj)
 .text.z_impl_k_queue_alloc_prepend
                0x00000000       0x14 zephyr/kernel/libkernel.a(queue.c.obj)
 .text.k_queue_append_list
                0x00000000       0x78 zephyr/kernel/libkernel.a(queue.c.obj)
 .text.k_queue_merge_slist
                0x00000000       0x1c zephyr/kernel/libkernel.a(queue.c.obj)
 .text.z_impl_k_queue_get
                0x00000000       0x68 zephyr/kernel/libkernel.a(queue.c.obj)
 .text          0x00000000        0x0 zephyr/kernel/libkernel.a(sched.c.obj)
 .data          0x00000000        0x0 zephyr/kernel/libkernel.a(sched.c.obj)
 .bss           0x00000000        0x0 zephyr/kernel/libkernel.a(sched.c.obj)
 .text.z_priq_dumb_add
                0x00000000       0x42 zephyr/kernel/libkernel.a(sched.c.obj)
 .text.z_impl_k_thread_resume
                0x00000000       0x3c zephyr/kernel/libkernel.a(sched.c.obj)
 .text.z_move_thread_to_end_of_prio_q
                0x00000000       0x20 zephyr/kernel/libkernel.a(sched.c.obj)
 .text.z_remove_thread_from_ready_q
                0x00000000       0x20 zephyr/kernel/libkernel.a(sched.c.obj)
 .text.z_pend_thread
                0x00000000        0x4 zephyr/kernel/libkernel.a(sched.c.obj)
 .text.z_pend_curr_irqlock
                0x00000000       0x48 zephyr/kernel/libkernel.a(sched.c.obj)
 .text.z_thread_priority_set
                0x00000000       0x20 zephyr/kernel/libkernel.a(sched.c.obj)
 .text.z_priq_rb_lessthan
                0x00000000       0x24 zephyr/kernel/libkernel.a(sched.c.obj)
 .text.z_priq_rb_add
                0x00000000       0x5c zephyr/kernel/libkernel.a(sched.c.obj)
 .text.z_priq_rb_remove
                0x00000000       0x10 zephyr/kernel/libkernel.a(sched.c.obj)
 .text.z_priq_rb_best
                0x00000000       0x10 zephyr/kernel/libkernel.a(sched.c.obj)
 .text.z_priq_mq_add
                0x00000000       0x32 zephyr/kernel/libkernel.a(sched.c.obj)
 .text.z_priq_mq_remove
                0x00000000       0x36 zephyr/kernel/libkernel.a(sched.c.obj)
 .text.z_priq_mq_best
                0x00000000       0x28 zephyr/kernel/libkernel.a(sched.c.obj)
 .text.z_unpend_all
                0x00000000       0x20 zephyr/kernel/libkernel.a(sched.c.obj)
 .text.z_impl_k_thread_priority_get
                0x00000000        0x6 zephyr/kernel/libkernel.a(sched.c.obj)
 .text.z_impl_k_thread_priority_set
                0x00000000        0x4 zephyr/kernel/libkernel.a(sched.c.obj)
 .text.z_impl_k_usleep
                0x00000000       0x40 zephyr/kernel/libkernel.a(sched.c.obj)
 .text.z_impl_k_wakeup
                0x00000000       0x38 zephyr/kernel/libkernel.a(sched.c.obj)
 .text.z_impl_k_is_preempt_thread
                0x00000000       0x20 zephyr/kernel/libkernel.a(sched.c.obj)
 .text.z_impl_k_thread_join
                0x00000000       0x88 zephyr/kernel/libkernel.a(sched.c.obj)
 .text          0x00000000        0x0 zephyr/kernel/libkernel.a(sem.c.obj)
 .data          0x00000000        0x0 zephyr/kernel/libkernel.a(sem.c.obj)
 .bss           0x00000000        0x0 zephyr/kernel/libkernel.a(sem.c.obj)
 .text.z_impl_k_sem_init
                0x00000000       0x20 zephyr/kernel/libkernel.a(sem.c.obj)
 .text          0x00000000        0x0 zephyr/kernel/libkernel.a(thread.c.obj)
 .data          0x00000000        0x0 zephyr/kernel/libkernel.a(thread.c.obj)
 .bss           0x00000000        0x0 zephyr/kernel/libkernel.a(thread.c.obj)
 .text.k_thread_foreach_unlocked
                0x00000000       0x4c zephyr/kernel/libkernel.a(thread.c.obj)
 .text.z_thread_essential_set
                0x00000000       0x14 zephyr/kernel/libkernel.a(thread.c.obj)
 .text.z_thread_essential_clear
                0x00000000       0x14 zephyr/kernel/libkernel.a(thread.c.obj)
 .text.z_is_thread_essential
                0x00000000       0x10 zephyr/kernel/libkernel.a(thread.c.obj)
 .text.z_impl_k_thread_name_copy
                0x00000000       0x12 zephyr/kernel/libkernel.a(thread.c.obj)
 .text.z_impl_k_thread_start
                0x00000000        0x4 zephyr/kernel/libkernel.a(thread.c.obj)
 .text.z_init_thread_base
                0x00000000       0x10 zephyr/kernel/libkernel.a(thread.c.obj)
 .text.k_thread_user_mode_enter
                0x00000000       0x2c zephyr/kernel/libkernel.a(thread.c.obj)
 .text.z_impl_k_float_disable
                0x00000000        0x6 zephyr/kernel/libkernel.a(thread.c.obj)
 .text          0x00000000        0x0 zephyr/kernel/libkernel.a(thread_abort.c.obj)
 .data          0x00000000        0x0 zephyr/kernel/libkernel.a(thread_abort.c.obj)
 .bss           0x00000000        0x0 zephyr/kernel/libkernel.a(thread_abort.c.obj)
 .text          0x00000000        0x0 zephyr/kernel/libkernel.a(version.c.obj)
 .data          0x00000000        0x0 zephyr/kernel/libkernel.a(version.c.obj)
 .bss           0x00000000        0x0 zephyr/kernel/libkernel.a(version.c.obj)
 .text          0x00000000        0x0 zephyr/kernel/libkernel.a(timeout.c.obj)
 .data          0x00000000        0x0 zephyr/kernel/libkernel.a(timeout.c.obj)
 .bss           0x00000000        0x0 zephyr/kernel/libkernel.a(timeout.c.obj)
 .text.z_timeout_expires
                0x00000000       0x30 zephyr/kernel/libkernel.a(timeout.c.obj)
 .text          0x00000000        0x0 zephyr/kernel/libkernel.a(timer.c.obj)
 .data          0x00000000        0x0 zephyr/kernel/libkernel.a(timer.c.obj)
 .bss           0x00000000        0x0 zephyr/kernel/libkernel.a(timer.c.obj)
 .text.z_impl_k_timer_status_get
                0x00000000       0x22 zephyr/kernel/libkernel.a(timer.c.obj)
 .text.z_impl_k_timer_status_sync
                0x00000000       0x58 zephyr/kernel/libkernel.a(timer.c.obj)
 .bss.lock      0x00000000        0x0 zephyr/kernel/libkernel.a(timer.c.obj)
 .text          0x00000000        0x0 zephyr/kernel/libkernel.a(poll.c.obj)
 .data          0x00000000        0x0 zephyr/kernel/libkernel.a(poll.c.obj)
 .bss           0x00000000        0x0 zephyr/kernel/libkernel.a(poll.c.obj)
 .text.triggered_work_handler
                0x00000000       0x38 zephyr/kernel/libkernel.a(poll.c.obj)
 .text.triggered_work_expiration_handler
                0x00000000       0x18 zephyr/kernel/libkernel.a(poll.c.obj)
 .text.k_work_poll_init
                0x00000000       0x1c zephyr/kernel/libkernel.a(poll.c.obj)
 .text.k_work_poll_submit_to_queue
                0x00000000       0xfc zephyr/kernel/libkernel.a(poll.c.obj)
 .text.k_work_poll_cancel
                0x00000000       0x50 zephyr/kernel/libkernel.a(poll.c.obj)
 .text          0x00000000        0x0 zephyr/kernel/libkernel.a(mempool.c.obj)
 .data          0x00000000        0x0 zephyr/kernel/libkernel.a(mempool.c.obj)
 .bss           0x00000000        0x0 zephyr/kernel/libkernel.a(mempool.c.obj)
 .text.k_mem_pool_free
                0x00000000        0x4 zephyr/kernel/libkernel.a(mempool.c.obj)
 .text.k_free   0x00000000        0xa zephyr/kernel/libkernel.a(mempool.c.obj)
 .text.k_malloc
                0x00000000        0xc zephyr/kernel/libkernel.a(mempool.c.obj)
 .text.k_calloc
                0x00000000       0x24 zephyr/kernel/libkernel.a(mempool.c.obj)
 .text.k_thread_system_pool_assign
                0x00000000        0xc zephyr/kernel/libkernel.a(mempool.c.obj)
 .text          0x00000000        0x0 zephyr/kernel/libkernel.a(kheap.c.obj)
 .data          0x00000000        0x0 zephyr/kernel/libkernel.a(kheap.c.obj)
 .bss           0x00000000        0x0 zephyr/kernel/libkernel.a(kheap.c.obj)
 .text.k_heap_free
                0x00000000       0x3a zephyr/kernel/libkernel.a(kheap.c.obj)
 .text.k_mem_pool_free_id
                0x00000000        0x8 zephyr/kernel/libkernel.a(kheap.c.obj)
 .text          0x00000000        0x0 zephyr/CMakeFiles/offsets.dir/arch/arm/core/offsets/offsets.c.obj
 .data          0x00000000        0x0 zephyr/CMakeFiles/offsets.dir/arch/arm/core/offsets/offsets.c.obj
 .bss           0x00000000        0x0 zephyr/CMakeFiles/offsets.dir/arch/arm/core/offsets/offsets.c.obj
 .text          0x00000000       0xe8 c:/users/pablo/ncs/v1.4.99-dev1/toolchain/opt/bin/../lib/gcc/arm-none-eabi/9.2.1/thumb/v8-m.main/nofp\libgcc.a(cmse.o)
 .data          0x00000000        0x0 c:/users/pablo/ncs/v1.4.99-dev1/toolchain/opt/bin/../lib/gcc/arm-none-eabi/9.2.1/thumb/v8-m.main/nofp\libgcc.a(cmse.o)
 .bss           0x00000000        0x0 c:/users/pablo/ncs/v1.4.99-dev1/toolchain/opt/bin/../lib/gcc/arm-none-eabi/9.2.1/thumb/v8-m.main/nofp\libgcc.a(cmse.o)
 .debug_frame   0x00000000       0x34 c:/users/pablo/ncs/v1.4.99-dev1/toolchain/opt/bin/../lib/gcc/arm-none-eabi/9.2.1/thumb/v8-m.main/nofp\libgcc.a(cmse.o)
 .data          0x00000000        0x0 c:/users/pablo/ncs/v1.4.99-dev1/toolchain/opt/bin/../lib/gcc/arm-none-eabi/9.2.1/thumb/v8-m.main/nofp\libgcc.a(_aeabi_ldivmod.o)
 .bss           0x00000000        0x0 c:/users/pablo/ncs/v1.4.99-dev1/toolchain/opt/bin/../lib/gcc/arm-none-eabi/9.2.1/thumb/v8-m.main/nofp\libgcc.a(_aeabi_ldivmod.o)
 .data          0x00000000        0x0 c:/users/pablo/ncs/v1.4.99-dev1/toolchain/opt/bin/../lib/gcc/arm-none-eabi/9.2.1/thumb/v8-m.main/nofp\libgcc.a(_aeabi_uldivmod.o)
 .bss           0x00000000        0x0 c:/users/pablo/ncs/v1.4.99-dev1/toolchain/opt/bin/../lib/gcc/arm-none-eabi/9.2.1/thumb/v8-m.main/nofp\libgcc.a(_aeabi_uldivmod.o)
 .data          0x00000000        0x0 c:/users/pablo/ncs/v1.4.99-dev1/toolchain/opt/bin/../lib/gcc/arm-none-eabi/9.2.1/thumb/v8-m.main/nofp\libgcc.a(_udivmoddi4.o)
 .bss           0x00000000        0x0 c:/users/pablo/ncs/v1.4.99-dev1/toolchain/opt/bin/../lib/gcc/arm-none-eabi/9.2.1/thumb/v8-m.main/nofp\libgcc.a(_udivmoddi4.o)
 .ARM.extab     0x00000000        0x0 c:/users/pablo/ncs/v1.4.99-dev1/toolchain/opt/bin/../lib/gcc/arm-none-eabi/9.2.1/thumb/v8-m.main/nofp\libgcc.a(_udivmoddi4.o)
 .data          0x00000000        0x0 c:/users/pablo/ncs/v1.4.99-dev1/toolchain/opt/bin/../lib/gcc/arm-none-eabi/9.2.1/thumb/v8-m.main/nofp\libgcc.a(_dvmd_tls.o)
 .bss           0x00000000        0x0 c:/users/pablo/ncs/v1.4.99-dev1/toolchain/opt/bin/../lib/gcc/arm-none-eabi/9.2.1/thumb/v8-m.main/nofp\libgcc.a(_dvmd_tls.o)
 .data          0x00000000        0x0 ../mylib/src/libblst.a(server.o)
 .bss           0x00000000        0x0 ../mylib/src/libblst.a(server.o)

Memory Configuration

Name             Origin             Length             Attributes
FLASH            0x0000c000         0x000f4000         xr
SRAM             0x20010000         0x00030000         xw
IDT_LIST         0x20040000         0x00000800         xw
*default*        0x00000000         0xffffffff

Linker script and memory map

LOAD zephyr/CMakeFiles/zephyr_final.dir/misc/empty_file.c.obj
LOAD zephyr/CMakeFiles/zephyr_final.dir/isr_tables.c.obj
                0x00000020                _region_min_align = 0x20

.rel.plt        0x0000c000        0x0
 *(SORT_BY_ALIGNMENT(.rel.plt))
                [!provide]                PROVIDE (__rel_iplt_start = .)
 *(SORT_BY_ALIGNMENT(.rel.iplt))
 .rel.iplt      0x0000c000        0x0 zephyr/CMakeFiles/zephyr_final.dir/isr_tables.c.obj
                [!provide]                PROVIDE (__rel_iplt_end = .)

.rela.plt       0x00000000        0x0
 *(SORT_BY_ALIGNMENT(.rela.plt))
                [!provide]                PROVIDE (__rela_iplt_start = .)
 *(SORT_BY_ALIGNMENT(.rela.iplt))
                [!provide]                PROVIDE (__rela_iplt_end = .)

.rel.dyn
 *(SORT_BY_ALIGNMENT(.rel.*))

.rela.dyn
 *(SORT_BY_ALIGNMENT(.rela.*))

/DISCARD/
 *(SORT_BY_ALIGNMENT(.plt))
 *(SORT_BY_ALIGNMENT(.iplt))
 *(SORT_BY_ALIGNMENT(.got.plt))
 *(SORT_BY_ALIGNMENT(.igot.plt))
 *(SORT_BY_ALIGNMENT(.got))
 *(SORT_BY_ALIGNMENT(.igot))
 *(SORT_BY_ALIGNMENT(.irq_info*))
 *(SORT_BY_ALIGNMENT(.intList*))
 *(SORT_BY_ALIGNMENT(.note.GNU-stack))
                0x0000c000                _image_rom_start = 0xc000

rom_start       0x0000c000      0x23c
                0x00000000                . = 0x0
                0x00000000                . = ALIGN (0x4)
                0x00000000                . = ALIGN (0x80)
                0x00000000                . = ALIGN (0x200)
                0x0000c000                _vector_start = .
 *(SORT_BY_ALIGNMENT(.exc_vector_table))
 *(SORT_BY_ALIGNMENT(.exc_vector_table.*))
 .exc_vector_table._vector_table_section
                0x0000c000       0x40 zephyr/arch/arch/arm/core/aarch32/cortex_m/libarch__arm__core__aarch32__cortex_m.a(vector_table.S.obj)
                0x0000c000                _vector_table
 *(SORT_BY_ALIGNMENT(.gnu.linkonce.irq_vector_table*))
 .gnu.linkonce.irq_vector_table*
                0x0000c040      0x104 zephyr/CMakeFiles/zephyr_final.dir/isr_tables.c.obj
                0x0000c040                _irq_vector_table
 *(SORT_BY_ALIGNMENT(.vectors))
                0x0000c144                _vector_end = .
 *(SORT_BY_ALIGNMENT(.openocd_dbg))
 *(SORT_BY_ALIGNMENT(.openocd_dbg.*))
                0x00000200                . = 0x200
 *fill*         0x0000c144       0xbc 
                0x0000c200                _fw_info_start = .
 *(SORT_BY_NAME(SORT_BY_ALIGNMENT(.firmware_info*)))
 .firmware_info
                0x0000c200       0x3c modules/nrf/subsys/fw_info/lib..__nrf__subsys__fw_info.a(fw_info.c.obj)
                0x0000c200                m_firmware_info
                0x0000003c                _fw_info_size = ABSOLUTE ((. - _fw_info_start))

text            0x0000c240    0x17aec
                0x0000c240                _image_text_start = .
 *(SORT_BY_ALIGNMENT(.text))
 .text          0x0000c240       0xa0 c:/users/pablo/ncs/v1.4.99-dev1/toolchain/opt/bin/../lib/gcc/arm-none-eabi/9.2.1/thumb/v8-m.main/nofp\libgcc.a(_aeabi_ldivmod.o)
                0x0000c240                __aeabi_ldivmod
 .text          0x0000c2e0       0x30 c:/users/pablo/ncs/v1.4.99-dev1/toolchain/opt/bin/../lib/gcc/arm-none-eabi/9.2.1/thumb/v8-m.main/nofp\libgcc.a(_aeabi_uldivmod.o)
                0x0000c2e0                __aeabi_uldivmod
 .text          0x0000c310      0x2c8 c:/users/pablo/ncs/v1.4.99-dev1/toolchain/opt/bin/../lib/gcc/arm-none-eabi/9.2.1/thumb/v8-m.main/nofp\libgcc.a(_udivmoddi4.o)
                0x0000c310                __udivmoddi4
 .text          0x0000c5d8        0x4 c:/users/pablo/ncs/v1.4.99-dev1/toolchain/opt/bin/../lib/gcc/arm-none-eabi/9.2.1/thumb/v8-m.main/nofp\libgcc.a(_dvmd_tls.o)
                0x0000c5d8                __aeabi_idiv0
                0x0000c5d8                __aeabi_ldiv0
 .text          0x0000c5dc     0xcb94 ../mylib/src/libblst.a(server.o)
                0x0000fbe8                blst_p1_cneg
                0x0000fbfa                blst_p1_from_affine
                0x0000fc5c                blst_p1_affine_on_curve
                0x0000fc64                blst_p1_on_curve
                0x0000fd68                blst_p1_affine_serialize
                0x0000fd9e                blst_p1_affine_compress
                0x0000fde8                blst_p1_is_equal
                0x0000fdf0                blst_p1_is_inf
                0x0000fe0e                blst_p1_generator
                0x0000fe18                blst_p1_affine_is_inf
                0x0000fe34                blst_p1_affine_generator
                0x0000fe3c                blst_p1_in_g1
                0x0000fe44                blst_p1_affine_in_g1
                0x0000feac                blst_p2_cneg
                0x0000febe                blst_p2_from_affine
                0x0000ff14                blst_p2_affine_serialize
                0x0000ff4a                blst_p2_affine_compress
                0x0000ff94                blst_p2_is_inf
                0x0000ffb2                blst_p2_generator
                0x0000ffbc                blst_p2_affine_is_inf
                0x0000ffd8                blst_p2_affine_generator
                0x0000ffe0                blst_fp12_conjugate
                0x0000ffe8                blst_fp12_is_equal
                0x00010010                blst_fp12_is_one
                0x00010064                blst_fp12_one
                0x0001006c                blst_pairing_sizeof
                0x00010072                blst_pairing_init
                0x00010090                blst_pairing_get_dst
                0x0001009e                mul_mont_sparse_256
                0x000100b2                sqr_mont_sparse_256
                0x000100c8                mul_mont_384
                0x000100dc                sqr_mont_384
                0x000100f2                add_mod_256
                0x00010102                add_mod_384
                0x00010112                sub_mod_256
                0x00010122                sub_mod_384
                0x00010132                mul_by_3_mod_256
                0x0001013c                mul_by_3_mod_384
                0x00010146                lshift_mod_256
                0x00010156                lshift_mod_384
                0x00010166                cneg_mod_256
                0x00010176                cneg_mod_384
                0x00010186                check_mod_256
                0x00010190                from_mont_256
                0x000101a0                from_mont_384
                0x000101b0                redc_mont_256
                0x000101c0                redc_mont_384
                0x000101d0                rshift_mod_256
                0x000101e0                rshift_mod_384
                0x000101f0                div_by_2_mod_384
                0x00010206                eucl_inverse_mod_256
                0x00010216                sgn0_pty_mod_384
                0x00010220                sgn0_pty_mont_384
                0x00010244                sgn0_pty_mod_384x
                0x000102be                sgn0_pty_mont_384x
                0x00010354                mul_mont_384x
                0x00010634                blst_fp12_frobenius_map
                0x00010a78                blst_fp12_mul
                0x00010c20                blst_fp12_sqr
                0x00010f64                blst_fp12_mul_by_xy00z0
                0x000110a0                blst_miller_loop_lines
                0x000110a8                sqr_n_mul_mont_383
                0x00011850                blst_p1_from_jacobian
                0x00011858                blst_p1_to_affine
                0x000118ec                blst_p1_serialize
                0x00011924                blst_p1_compress
                0x00011a30                blst_fp2_inverse
                0x00011a38                blst_fp2_eucl_inverse
                0x00011a40                blst_fp_inverse
                0x00011a48                blst_fp_eucl_inverse
                0x00012274                blst_p1_uncompress
                0x0001227c                blst_p1_deserialize
                0x000122e0                blst_aggregate_in_g1
                0x00012380                blst_fp_sqrt
                0x0001271c                blst_map_to_g1
                0x00012724                sqr_mont_382x
                0x00012828                ct_inverse_mod_383
                0x00012838                div_3_limbs
                0x00012a7c                blst_sk_to_pk_in_g1
                0x00012a8c                blst_sign_pk_in_g2
                0x00012a94                blst_sk_to_pk2_in_g1
                0x00012af4                blst_sign_pk2_in_g2
                0x00012b52                blst_p1_mult
                0x00012c30                quot_rem_128
                0x00012c3a                quot_rem_64
                0x00012c44                blst_sha256_block_data_order
                0x00012e58                blst_sha256_hcopy
                0x00012e6c                blst_sha256_emit
                0x00012f4c                blst_sha256_bcopy
                0x00013374                blst_encode_to_g1
                0x0001339e                blst_hash_to_g1
                0x00013500                blst_keygen
                0x00013754                mul_by_8_mod_384
                0x0001376a                mul_by_3_mod_384x
                0x0001378a                mul_by_8_mod_384x
                0x000137b6                mul_by_1_plus_i_mod_384x
                0x00013804                add_mod_384x
                0x0001383a                sub_mod_384x
                0x00013870                sqr_mont_384x
                0x00013980                blst_p2_from_jacobian
                0x000139d8                blst_p2_to_affine
                0x00013a2c                blst_p2_serialize
                0x00013ab0                blst_p2_compress
                0x00013bb8                blst_p2_affine_on_curve
                0x00013ed0                blst_p2_on_curve
                0x000141bc                blst_fp2_sqrt
                0x00014460                blst_p2_uncompress
                0x00014468                blst_p2_deserialize
                0x000145d4                blst_p2_is_equal
                0x000152d0                blst_p2_mult
                0x00015436                blst_p2_in_g2
                0x0001543e                blst_p2_affine_in_g2
                0x000154a4                blst_pairing_merge
                0x000156f0                blst_sk_to_pk_in_g2
                0x00015700                blst_sign_pk_in_g1
                0x00015708                blst_sk_to_pk2_in_g2
                0x00015768                blst_sign_pk2_in_g1
                0x00015fe0                blst_map_to_g2
                0x00015fe8                blst_encode_to_g2
                0x00016012                blst_hash_to_g2
                0x00016400                blst_fp12_cyclotomic_sqr
                0x00016978                blst_fp12_inverse
                0x00016ae4                blst_final_exp
                0x00017414                blst_miller_loop
                0x000176d4                blst_pairing_aggregate_pk_in_g2
                0x000176fe                blst_pairing_mul_n_aggregate_pk_in_g2
                0x0001773e                blst_pairing_chk_n_aggr_pk_in_g2
                0x00017764                blst_pairing_chk_n_mul_n_aggr_pk_in_g2
                0x000177fc                blst_pairing_commit
                0x00017900                blst_pairing_finalverify
                0x00017908                blst_core_verify_pk_in_g2
                0x00017970                blst_aggregated_in_g1
                0x00017984                blst_aggregated_in_g2
                0x00017a50                blst_precompute_lines
                0x000180d0                blst_pairing_aggregate_pk_in_g1
                0x000180fa                blst_pairing_mul_n_aggregate_pk_in_g1
                0x0001813a                blst_pairing_chk_n_aggr_pk_in_g1
                0x00018160                blst_pairing_chk_n_mul_n_aggr_pk_in_g1
                0x000181a6                blst_core_verify_pk_in_g1
                0x0001820e                blst_aggregate_in_g2
                0x000185ac                blst_fr_add
                0x000185c4                blst_fr_sub
                0x000185dc                blst_fr_mul_by_3
                0x000185ec                blst_fr_lshift
                0x00018604                blst_fr_rshift
                0x0001861c                blst_fr_mul
                0x0001863c                blst_fr_sqr
                0x0001865c                blst_fr_cneg
                0x00018680                blst_fr_to
                0x000186a8                blst_fr_from
                0x000186c4                blst_fr_eucl_inverse
                0x000186e4                blst_fp_add
                0x000186fc                blst_fp_sub
                0x00018714                blst_fp_mul_by_3
                0x00018724                blst_fp_mul_by_8
                0x00018740                blst_fp_lshift
                0x00018758                blst_fp_mul
                0x00018778                blst_fp_sqr
                0x0001879c                blst_fp_cneg
                0x000187c0                blst_fp_to
                0x000187e4                blst_fp_from
                0x00018804                blst_fp_from_uint32
                0x00018828                blst_uint32_from_fp
                0x00018848                blst_fp_from_uint64
                0x0001886c                blst_uint64_from_fp
                0x0001888c                blst_fp_from_bendian
                0x000188d8                blst_bendian_from_fp
                0x00018924                blst_fp_from_lendian
                0x00018970                blst_lendian_from_fp
                0x000189b8                blst_fp2_add
                0x000189f4                blst_fp2_sub
                0x00018a30                blst_fp2_mul_by_3
                0x00018a58                blst_fp2_mul_by_8
                0x00018a88                blst_fp2_lshift
                0x00018ac4                blst_fp2_mul
                0x00018ae0                blst_fp2_sqr
                0x00018af4                blst_fp2_cneg
                0x00018b38                blst_p1_add
                0x00018b40                blst_p1_add_or_double
                0x00018b4a                blst_p1_add_affine
                0x00018b52                blst_p1_add_or_double_affine
                0x00018b5a                blst_p1_double
                0x00018b62                blst_p1_affine_is_equal
                0x00018b8a                blst_p2_add
                0x00018b92                blst_p2_add_or_double
                0x00018b9c                blst_p2_add_affine
                0x00018ba4                blst_p2_add_or_double_affine
                0x00018bac                blst_p2_double
                0x00018bb4                blst_p2_affine_is_equal
                0x00018bdc                blst_scalar_from_uint32
                0x00018c0c                blst_uint32_from_scalar
                0x00018c46                blst_scalar_from_uint64
                0x00018c9a                blst_uint64_from_scalar
                0x00018cf4                blst_scalar_from_bendian
                0x00018d62                blst_bendian_from_scalar
                0x00018dcc                blst_scalar_from_lendian
                0x00018de6                blst_lendian_from_scalar
                0x00018e00                blst_scalar_fr_check
                0x00018e90                blst_sk_check
                0x00018ea0                blst_fr_from_uint64
                0x00018ec8                blst_uint64_from_fr
                0x00018ee4                blst_fr_from_scalar
                0x00018f2c                blst_scalar_from_fr
                0x00018f84                blst_scalar_from_hexascii
                0x00018f90                blst_fp_from_hexascii
                0x00018fc0                blst_uniq_sizeof
                0x00018fc6                blst_uniq_init
                0x00018fce                blst_uniq_test
 *(SORT_BY_ALIGNMENT(.text.*))
 .text.clock_settime
                0x00019170       0x94 zephyr/lib/posix/liblib__posix.a(clock.c.obj)
                0x00019170                clock_settime
 .text.cmd_public_key
                0x00019204       0x54 app/libapp.a(main.c.obj)
 .text.cmd_get_keys
                0x00019258       0x6c app/libapp.a(main.c.obj)
 .text.cmd_keygen
                0x000192c4      0x158 app/libapp.a(main.c.obj)
 .text.cmd_signature_verification
                0x0001941c       0x6c app/libapp.a(main.c.obj)
 .text.k_timer_remaining_get.constprop.0
                0x00019488       0x1c app/libapp.a(main.c.obj)
 .text.cmd_benchmark
                0x000194a4      0x2a4 app/libapp.a(main.c.obj)
 .text.public_key_to_sk
                0x00019748       0x68 app/libapp.a(main.c.obj)
                0x00019748                public_key_to_sk
 .text.cmd_signature_message
                0x000197b0      0x110 app/libapp.a(main.c.obj)
 .text.dynamic_cmd_get
                0x000198c0       0x30 app/libapp.a(dynamic_cmd.c.obj)
 .text.cmd_dynamic_show
                0x000198f0       0x64 app/libapp.a(dynamic_cmd.c.obj)
 .text.cmd_dynamic_execute
                0x00019954       0x6c app/libapp.a(dynamic_cmd.c.obj)
 .text.cmd_dynamic_remove
                0x000199c0       0x9c app/libapp.a(dynamic_cmd.c.obj)
 .text.cmd_dynamic_add
                0x00019a5c       0xd0 app/libapp.a(dynamic_cmd.c.obj)
 .text.char_out
                0x00019b2c       0x10 zephyr/libzephyr.a(printk.c.obj)
 .text.__printk_hook_install
                0x00019b3c        0xc zephyr/libzephyr.a(printk.c.obj)
                0x00019b3c                __printk_hook_install
 .text.vprintk  0x00019b48       0x1c zephyr/libzephyr.a(printk.c.obj)
                0x00019b48                vprintk
 .text.vsnprintk
                0x00019b64       0x28 zephyr/libzephyr.a(printk.c.obj)
                0x00019b64                vsnprintk
 .text.process_event
                0x00019b8c      0x1cc zephyr/libzephyr.a(onoff.c.obj)
 .text.timeutil_timegm64
                0x00019d58      0x104 zephyr/libzephyr.a(timeutil.c.obj)
                0x00019d58                timeutil_timegm64
 .text.extract_conversion
                0x00019e5c      0x2b0 zephyr/libzephyr.a(cbprintf_complete.c.obj)
 .text.cbvprintf
                0x0001a10c      0x408 zephyr/libzephyr.a(cbprintf_complete.c.obj)
                0x0001a10c                cbvprintf
 .text.nordicsemi_nrf91_init
                0x0001a514       0x28 zephyr/libzephyr.a(soc.c.obj)
 .text.arch_busy_wait
                0x0001a53c       0x14 zephyr/libzephyr.a(soc.c.obj)
                0x0001a53c                arch_busy_wait
 .text.enable_logger
                0x0001a550       0x5c zephyr/libzephyr.a(log_core.c.obj)
 .text.log_process_thread_timer_expiry_fn
                0x0001a5ac        0xc zephyr/libzephyr.a(log_core.c.obj)
 .text.log_core_init
                0x0001a5b8       0x74 zephyr/libzephyr.a(log_core.c.obj)
                0x0001a5b8                log_core_init
 .text.dropped_notify
                0x0001a62c       0x44 zephyr/libzephyr.a(log_core.c.obj)
                0x0001a62c                dropped_notify
 .text.log_dropped
                0x0001a670       0x18 zephyr/libzephyr.a(log_core.c.obj)
                0x0001a670                log_dropped
 .text.log_source_name_get
                0x0001a688       0x1c zephyr/libzephyr.a(log_core.c.obj)
                0x0001a688                log_source_name_get
 .text.z_impl_log_filter_set
                0x0001a6a4       0xa4 zephyr/libzephyr.a(log_core.c.obj)
                0x0001a6a4                z_impl_log_filter_set
 .text.backend_filter_set
                0x0001a748       0x30 zephyr/libzephyr.a(log_core.c.obj)
 .text.log_backend_enable
                0x0001a778       0x40 zephyr/libzephyr.a(log_core.c.obj)
                0x0001a778                log_backend_enable
 .text.log_init
                0x0001a7b8       0x4c zephyr/libzephyr.a(log_core.c.obj)
                0x0001a7b8                log_init
 .text.log_filter_get
                0x0001a804       0x2c zephyr/libzephyr.a(log_core.c.obj)
                0x0001a804                log_filter_get
 .text.log_strdup
                0x0001a830       0x64 zephyr/libzephyr.a(log_core.c.obj)
                0x0001a830                log_strdup
 .text.log_is_strdup
                0x0001a894       0x1c zephyr/libzephyr.a(log_core.c.obj)
                0x0001a894                log_is_strdup
 .text.z_impl_log_process
                0x0001a8b0      0x19c zephyr/libzephyr.a(log_core.c.obj)
                0x0001a8b0                z_impl_log_process
 .text.msg_finalize
                0x0001aa4c       0xbc zephyr/libzephyr.a(log_core.c.obj)
 .text.log_process_thread_func
                0x0001ab08       0x48 zephyr/libzephyr.a(log_core.c.obj)
 .text.z_impl_log_panic
                0x0001ab50       0x48 zephyr/libzephyr.a(log_core.c.obj)
                0x0001ab50                z_impl_log_panic
 .text.log_free
                0x0001ab98       0x2c zephyr/libzephyr.a(log_core.c.obj)
                0x0001ab98                log_free
 .text.log_msg_pool_init
                0x0001abc4       0x14 zephyr/libzephyr.a(log_msg.c.obj)
                0x0001abc4                log_msg_pool_init
 .text.log_msg_no_space_handle
                0x0001abd8       0x30 zephyr/libzephyr.a(log_msg.c.obj)
                0x0001abd8                log_msg_no_space_handle
 .text.log_msg_chunk_alloc
                0x0001ac08       0x28 zephyr/libzephyr.a(log_msg.c.obj)
                0x0001ac08                log_msg_chunk_alloc
 .text.msg_free
                0x0001ac30       0x7c zephyr/libzephyr.a(log_msg.c.obj)
 .text.print_formatted
                0x0001acac       0x24 zephyr/libzephyr.a(log_output.c.obj)
 .text.prefix_print
                0x0001acd0      0x11c zephyr/libzephyr.a(log_output.c.obj)
 .text.postfix_print
                0x0001adec       0x3c zephyr/libzephyr.a(log_output.c.obj)
 .text.hexdump_line_print
                0x0001ae28       0xdc zephyr/libzephyr.a(log_output.c.obj)
 .text.log_output_msg_process
                0x0001af04       0xf8 zephyr/libzephyr.a(log_output.c.obj)
                0x0001af04                log_output_msg_process
 .text.log_output_dropped_process
                0x0001affc       0x58 zephyr/libzephyr.a(log_output.c.obj)
                0x0001affc                log_output_dropped_process
 .text.log_output_timestamp_freq_set
                0x0001b054       0x30 zephyr/libzephyr.a(log_output.c.obj)
                0x0001b054                log_output_timestamp_freq_set
 .text.severity_lvl_get
                0x0001b084       0x24 zephyr/libzephyr.a(log_cmds.c.obj)
 .text.backend_name_get
                0x0001b0a8       0x30 zephyr/libzephyr.a(log_cmds.c.obj)
 .text.cmd_log_backends_list
                0x0001b0d8       0x60 zephyr/libzephyr.a(log_cmds.c.obj)
 .text.log_status
                0x0001b138       0xac zephyr/libzephyr.a(log_cmds.c.obj)
 .text.module_name_get
                0x0001b1e4       0x20 zephyr/libzephyr.a(log_cmds.c.obj)
 .text.shell_backend_cmd_execute
                0x0001b204       0x78 zephyr/libzephyr.a(log_cmds.c.obj)
 .text.cmd_log_backend_status
                0x0001b27c       0x10 zephyr/libzephyr.a(log_cmds.c.obj)
 .text.cmd_log_backend_halt
                0x0001b28c        0xc zephyr/libzephyr.a(log_cmds.c.obj)
 .text.cmd_log_backend_go
                0x0001b298        0xc zephyr/libzephyr.a(log_cmds.c.obj)
 .text.cmd_log_backend_enable
                0x0001b2a4        0xc zephyr/libzephyr.a(log_cmds.c.obj)
 .text.cmd_log_backend_disable
                0x0001b2b0        0xc zephyr/libzephyr.a(log_cmds.c.obj)
 .text.shell_state_precheck
                0x0001b2bc       0x20 zephyr/libzephyr.a(log_cmds.c.obj)
 .text.filters_set
                0x0001b2dc       0xd0 zephyr/libzephyr.a(log_cmds.c.obj)
 .text.log_enable
                0x0001b3ac       0x60 zephyr/libzephyr.a(log_cmds.c.obj)
 .text.cmd_kernel_version
                0x0001b40c       0x2c zephyr/libzephyr.a(kernel_service.c.obj)
 .text.cmd_kernel_uptime
                0x0001b438       0x34 zephyr/libzephyr.a(kernel_service.c.obj)
 .text.cmd_kernel_threads
                0x0001b46c       0x38 zephyr/libzephyr.a(kernel_service.c.obj)
 .text.cmd_kernel_stacks
                0x0001b4a4       0x5c zephyr/libzephyr.a(kernel_service.c.obj)
 .text.shell_tdata_dump
                0x0001b500       0xc0 zephyr/libzephyr.a(kernel_service.c.obj)
 .text.cmd_kernel_cycles
                0x0001b5c0       0x1c zephyr/libzephyr.a(kernel_service.c.obj)
 .text.shell_stack_dump
                0x0001b5dc       0x68 zephyr/libzephyr.a(kernel_service.c.obj)
 .text.cmd_device_list
                0x0001b644       0x58 zephyr/libzephyr.a(device_service.c.obj)
 .text.device_get_config_level
                0x0001b69c       0x48 zephyr/libzephyr.a(device_service.c.obj)
 .text.cmd_device_levels
                0x0001b6e4       0x94 zephyr/libzephyr.a(device_service.c.obj)
 .text.date_print
                0x0001b778       0x30 zephyr/libzephyr.a(date_service.c.obj)
 .text.get_h_m_s
                0x0001b7a8       0xa8 zephyr/libzephyr.a(date_service.c.obj)
 .text.cmd_date_set
                0x0001b850      0x124 zephyr/libzephyr.a(date_service.c.obj)
 .text.shell_internal_help_print
                0x0001b974       0x20 zephyr/libzephyr.a(shell.c.obj)
 .text.state_set.part.0
                0x0001b994       0x44 zephyr/libzephyr.a(shell.c.obj)
 .text.history_handle
                0x0001b9d8       0xa4 zephyr/libzephyr.a(shell.c.obj)
 .text.execute  0x0001ba7c      0x368 zephyr/libzephyr.a(shell.c.obj)
 .text.shell_process
                0x0001bde4      0x6bc zephyr/libzephyr.a(shell.c.obj)
                0x0001bde4                shell_process
 .text.shell_init
                0x0001c4a0      0x100 zephyr/libzephyr.a(shell.c.obj)
                0x0001c4a0                shell_init
 .text.shell_start
                0x0001c5a0       0x50 zephyr/libzephyr.a(shell.c.obj)
                0x0001c5a0                shell_start
 .text.shell_thread
                0x0001c5f0       0xc8 zephyr/libzephyr.a(shell.c.obj)
                0x0001c5f0                shell_thread
 .text.shell_fprintf_fmt
                0x0001c6b8       0x28 zephyr/libzephyr.a(shell_fprintf.c.obj)
                0x0001c6b8                shell_fprintf_fmt
 .text.shell_cmd_get
                0x0001c6e0       0x4c zephyr/libzephyr.a(shell_utils.c.obj)
                0x0001c6e0                shell_cmd_get
 .text.clear_eos.isra.0
                0x0001c72c       0x10 zephyr/libzephyr.a(shell_ops.c.obj)
 .text.shell_op_cursor_vert_move
                0x0001c73c       0x20 zephyr/libzephyr.a(shell_ops.c.obj)
                0x0001c73c                shell_op_cursor_vert_move
 .text.shell_op_cursor_horiz_move
                0x0001c75c       0x20 zephyr/libzephyr.a(shell_ops.c.obj)
                0x0001c75c                shell_op_cursor_horiz_move
 .text.shell_op_cond_next_line
                0x0001c77c       0x28 zephyr/libzephyr.a(shell_ops.c.obj)
                0x0001c77c                shell_op_cond_next_line
 .text.shell_op_cursor_position_synchronize
                0x0001c7a4       0x54 zephyr/libzephyr.a(shell_ops.c.obj)
                0x0001c7a4                shell_op_cursor_position_synchronize
 .text.shell_print_cmd
                0x0001c7f8       0x10 zephyr/libzephyr.a(shell_ops.c.obj)
                0x0001c7f8                shell_print_cmd
 .text.shell_vt100_color_set
                0x0001c808       0x48 zephyr/libzephyr.a(shell_ops.c.obj)
                0x0001c808                shell_vt100_color_set
 .text.shell_vt100_colors_restore
                0x0001c850       0x4c zephyr/libzephyr.a(shell_ops.c.obj)
                0x0001c850                shell_vt100_colors_restore
 .text.shell_op_word_remove
                0x0001c89c       0xa8 zephyr/libzephyr.a(shell_ops.c.obj)
                0x0001c89c                shell_op_word_remove
 .text.reprint_from_cursor
                0x0001c944       0x54 zephyr/libzephyr.a(shell_ops.c.obj)
 .text.shell_op_char_insert
                0x0001c998       0x64 zephyr/libzephyr.a(shell_ops.c.obj)
                0x0001c998                shell_op_char_insert
 .text.shell_print_prompt_and_cmd
                0x0001c9fc       0x30 zephyr/libzephyr.a(shell_ops.c.obj)
                0x0001c9fc                shell_print_prompt_and_cmd
 .text.init     0x0001ca2c       0x30 zephyr/libzephyr.a(shell_uart.c.obj)
 .text.enable_shell_uart
                0x0001ca5c       0x30 zephyr/libzephyr.a(shell_uart.c.obj)
 .text.uart_callback
                0x0001ca8c      0x10c zephyr/libzephyr.a(shell_uart.c.obj)
 .text.formatted_text_print.constprop.0
                0x0001cb98       0xf4 zephyr/libzephyr.a(shell_help.c.obj)
 .text.shell_help_subcmd_print
                0x0001cc8c       0xb8 zephyr/libzephyr.a(shell_help.c.obj)
                0x0001cc8c                shell_help_subcmd_print
 .text.shell_help_cmd_print
                0x0001cd44       0x48 zephyr/libzephyr.a(shell_help.c.obj)
                0x0001cd44                shell_help_cmd_print
 .text.cmd_clear
                0x0001cd8c       0x2c zephyr/libzephyr.a(shell_cmds.c.obj)
 .text.cmd_resize_default
                0x0001cdb8       0x24 zephyr/libzephyr.a(shell_cmds.c.obj)
 .text.cmd_shell_stats_show
                0x0001cddc       0x18 zephyr/libzephyr.a(shell_cmds.c.obj)
 .text.cmd_help
                0x0001cdf4       0x30 zephyr/libzephyr.a(shell_cmds.c.obj)
 .text.cmd_history
                0x0001ce24       0x48 zephyr/libzephyr.a(shell_cmds.c.obj)
 .text.cmd_echo
                0x0001ce6c       0x54 zephyr/libzephyr.a(shell_cmds.c.obj)
 .text.cmd_resize
                0x0001cec0      0x17c zephyr/libzephyr.a(shell_cmds.c.obj)
 .text.shell_wildcard_process
                0x0001d03c       0xe8 zephyr/libzephyr.a(shell_wildcard.c.obj)
                0x0001d03c                shell_wildcard_process
 .text.sys_reboot
                0x0001d124       0x30 zephyr/libzephyr.a(reboot.c.obj)
                0x0001d124                sys_reboot
 .text.uart_console_init
                0x0001d154       0x2c zephyr/libzephyr.a(uart_console.c.obj)
 .text.console_out
                0x0001d180       0x28 zephyr/libzephyr.a(uart_console.c.obj)
 .text.onoff_stop
                0x0001d1a8       0x48 zephyr/libzephyr.a(clock_control_nrf.c.obj)
 .text.onoff_start
                0x0001d1f0       0x54 zephyr/libzephyr.a(clock_control_nrf.c.obj)
 .text.clk_init
                0x0001d244       0x60 zephyr/libzephyr.a(clock_control_nrf.c.obj)
 .text.clkstarted_handle.constprop.0
                0x0001d2a4       0x34 zephyr/libzephyr.a(clock_control_nrf.c.obj)
 .text.clock_event_handler
                0x0001d2d8       0x1c zephyr/libzephyr.a(clock_control_nrf.c.obj)
 .text.hfclk_start
                0x0001d2f4       0x30 zephyr/libzephyr.a(clock_control_nrf.c.obj)
 .text.generic_hfclk_start
                0x0001d324       0x64 zephyr/libzephyr.a(clock_control_nrf.c.obj)
 .text.hfclk_stop
                0x0001d388       0x30 zephyr/libzephyr.a(clock_control_nrf.c.obj)
 .text.generic_hfclk_stop
                0x0001d3b8       0x20 zephyr/libzephyr.a(clock_control_nrf.c.obj)
 .text.cmd_status
                0x0001d3d8       0xfc zephyr/libzephyr.a(clock_control_nrf.c.obj)
 .text.api_blocking_start
                0x0001d4d4       0x3c zephyr/libzephyr.a(clock_control_nrf.c.obj)
 .text.z_nrf_clock_control_lf_on
                0x0001d510      0x104 zephyr/libzephyr.a(clock_control_nrf.c.obj)
                0x0001d510                z_nrf_clock_control_lf_on
 .text.handle_next_cycle_case
                0x0001d614       0x28 zephyr/libzephyr.a(nrf_rtc_timer.c.obj)
 .text.rtc_nrf_isr
                0x0001d63c       0x2c zephyr/libzephyr.a(nrf_rtc_timer.c.obj)
                0x0001d63c                rtc_nrf_isr
 .text.z_clock_driver_init
                0x0001d668       0x54 zephyr/libzephyr.a(nrf_rtc_timer.c.obj)
                0x0001d668                z_clock_driver_init
 .text.z_clock_set_timeout
                0x0001d6bc       0xd0 zephyr/libzephyr.a(nrf_rtc_timer.c.obj)
                0x0001d6bc                z_clock_set_timeout
 .text.z_clock_elapsed
                0x0001d78c       0x34 zephyr/libzephyr.a(nrf_rtc_timer.c.obj)
                0x0001d78c                z_clock_elapsed
 .text.z_timer_cycle_get_32
                0x0001d7c0       0x34 zephyr/libzephyr.a(nrf_rtc_timer.c.obj)
                0x0001d7c0                z_timer_cycle_get_32
 .text.arch_swap
                0x0001d7f4       0x38 zephyr/arch/arch/arm/core/aarch32/libarch__arm__core__aarch32.a(swap.c.obj)
                0x0001d7f4                arch_swap
 .text.arch_irq_enable
                0x0001d82c       0x20 zephyr/arch/arch/arm/core/aarch32/libarch__arm__core__aarch32.a(irq_manage.c.obj)
                0x0001d82c                arch_irq_enable
 .text.arch_irq_is_enabled
                0x0001d84c       0x1c zephyr/arch/arch/arm/core/aarch32/libarch__arm__core__aarch32.a(irq_manage.c.obj)
                0x0001d84c                arch_irq_is_enabled
 .text.z_arm_irq_priority_set
                0x0001d868       0x2c zephyr/arch/arch/arm/core/aarch32/libarch__arm__core__aarch32.a(irq_manage.c.obj)
                0x0001d868                z_arm_irq_priority_set
 .text.arch_new_thread
                0x0001d894       0x38 zephyr/arch/arch/arm/core/aarch32/libarch__arm__core__aarch32.a(thread.c.obj)
                0x0001d894                arch_new_thread
 .text.arch_switch_to_main_thread
                0x0001d8cc       0x38 zephyr/arch/arch/arm/core/aarch32/libarch__arm__core__aarch32.a(thread.c.obj)
                0x0001d8cc                arch_switch_to_main_thread
 .text.z_arm_fatal_error
                0x0001d904       0x90 zephyr/arch/arch/arm/core/aarch32/libarch__arm__core__aarch32.a(fatal.c.obj)
                0x0001d904                z_arm_fatal_error
 .text.z_arm_prep_c
                0x0001d994       0x44 zephyr/arch/arch/arm/core/aarch32/libarch__arm__core__aarch32.a(prep_c.c.obj)
                0x0001d994                z_arm_prep_c
 .text.z_arm_pendsv
                0x0001d9d8       0x5c zephyr/arch/arch/arm/core/aarch32/libarch__arm__core__aarch32.a(swap_helper.S.obj)
                0x0001d9d8                z_arm_pendsv
 .text.z_arm_svc
                0x0001da34       0x20 zephyr/arch/arch/arm/core/aarch32/libarch__arm__core__aarch32.a(swap_helper.S.obj)
                0x0001da34                z_arm_svc
 .text.z_arm_cpu_idle_init
                0x0001da54        0xc zephyr/arch/arch/arm/core/aarch32/libarch__arm__core__aarch32.a(cpu_idle.S.obj)
                0x0001da54                z_arm_cpu_idle_init
 .text.arch_cpu_idle
                0x0001da60       0x1c zephyr/arch/arch/arm/core/aarch32/libarch__arm__core__aarch32.a(cpu_idle.S.obj)
                0x0001da60                arch_cpu_idle
 .text.arch_cpu_atomic_idle
                0x0001da7c       0x14 zephyr/arch/arch/arm/core/aarch32/libarch__arm__core__aarch32.a(cpu_idle.S.obj)
                0x0001da7c                arch_cpu_atomic_idle
 .text.z_SysNmiOnReset
                0x0001da90        0x8 zephyr/arch/arch/arm/core/aarch32/libarch__arm__core__aarch32.a(nmi_on_reset.S.obj)
                0x0001da90                z_SysNmiOnReset
 .text._isr_wrapper
                0x0001da98       0x40 zephyr/arch/arch/arm/core/aarch32/libarch__arm__core__aarch32.a(isr_wrapper.S.obj)
                0x0001da98                _isr_wrapper
 .text._reset_section
                0x0001dad8       0x3c zephyr/arch/arch/arm/core/aarch32/cortex_m/libarch__arm__core__aarch32__cortex_m.a(reset.S.obj)
                0x0001dad8                __start
                0x0001dad8                z_arm_reset
 .text.__fault  0x0001db14       0x14 zephyr/arch/arch/arm/core/aarch32/cortex_m/libarch__arm__core__aarch32__cortex_m.a(fault_s.S.obj)
                0x0001db14                z_arm_usage_fault
                0x0001db14                z_arm_mpu_fault
                0x0001db14                z_arm_exc_spurious
                0x0001db14                z_arm_debug_monitor
                0x0001db14                z_arm_hard_fault
                0x0001db14                z_arm_bus_fault
 .text._HandlerModeExit
                0x0001db28       0x1c zephyr/arch/arch/arm/core/aarch32/cortex_m/libarch__arm__core__aarch32__cortex_m.a(exc_exit.S.obj)
                0x0001db28                z_arm_int_exit
                0x0001db28                z_arm_exc_exit
 .text.usage_fault.isra.0
                0x0001db44      0x154 zephyr/arch/arch/arm/core/aarch32/cortex_m/libarch__arm__core__aarch32__cortex_m.a(fault.c.obj)
 .text.mem_manage_fault.isra.0
                0x0001dc98      0x13c zephyr/arch/arch/arm/core/aarch32/cortex_m/libarch__arm__core__aarch32__cortex_m.a(fault.c.obj)
 .text.bus_fault.isra.0
                0x0001ddd4      0x15c zephyr/arch/arch/arm/core/aarch32/cortex_m/libarch__arm__core__aarch32__cortex_m.a(fault.c.obj)
 .text.z_arm_fault
                0x0001df30      0x1f8 zephyr/arch/arch/arm/core/aarch32/cortex_m/libarch__arm__core__aarch32__cortex_m.a(fault.c.obj)
                0x0001df30                z_arm_fault
 .text.z_arm_fault_init
                0x0001e128       0x18 zephyr/arch/arch/arm/core/aarch32/cortex_m/libarch__arm__core__aarch32__cortex_m.a(fault.c.obj)
                0x0001e128                z_arm_fault_init
 .text.sys_arch_reboot
                0x0001e140       0x24 zephyr/arch/arch/arm/core/aarch32/cortex_m/libarch__arm__core__aarch32__cortex_m.a(scb.c.obj)
                0x0001e140                sys_arch_reboot
 .text.z_arm_interrupt_init
                0x0001e164       0x18 zephyr/arch/arch/arm/core/aarch32/cortex_m/libarch__arm__core__aarch32__cortex_m.a(irq_init.c.obj)
                0x0001e164                z_arm_interrupt_init
 .text.z_impl_k_thread_abort
                0x0001e17c       0x44 zephyr/arch/arch/arm/core/aarch32/cortex_m/libarch__arm__core__aarch32__cortex_m.a(thread_abort.c.obj)
                0x0001e17c                z_impl_k_thread_abort
 .text.z_arm_configure_static_mpu_regions
                0x0001e1c0       0x54 zephyr/arch/arch/arm/core/aarch32/cortex_m/mpu/libarch__arm__core__aarch32__cortex_m__mpu.a(arm_core_mpu.c.obj)
                0x0001e1c0                z_arm_configure_static_mpu_regions
 .text.region_init
                0x0001e214       0x30 zephyr/arch/arch/arm/core/aarch32/cortex_m/mpu/libarch__arm__core__aarch32__cortex_m__mpu.a(arm_mpu.c.obj)
 .text.region_allocate_and_init
                0x0001e244       0x40 zephyr/arch/arch/arm/core/aarch32/cortex_m/mpu/libarch__arm__core__aarch32__cortex_m__mpu.a(arm_mpu.c.obj)
 .text.mpu_configure_regions_and_partition.constprop.0
                0x0001e284      0x17c zephyr/arch/arch/arm/core/aarch32/cortex_m/mpu/libarch__arm__core__aarch32__cortex_m__mpu.a(arm_mpu.c.obj)
 .text.arm_core_mpu_enable
                0x0001e400       0x14 zephyr/arch/arch/arm/core/aarch32/cortex_m/mpu/libarch__arm__core__aarch32__cortex_m__mpu.a(arm_mpu.c.obj)
                0x0001e400                arm_core_mpu_enable
 .text.arm_core_mpu_disable
                0x0001e414       0x10 zephyr/arch/arch/arm/core/aarch32/cortex_m/mpu/libarch__arm__core__aarch32__cortex_m__mpu.a(arm_mpu.c.obj)
                0x0001e414                arm_core_mpu_disable
 .text.arm_mpu_init
                0x0001e424       0x4c zephyr/arch/arch/arm/core/aarch32/cortex_m/mpu/libarch__arm__core__aarch32__cortex_m__mpu.a(arm_mpu.c.obj)
 .text.arm_core_mpu_configure_static_mpu_regions
                0x0001e470       0x14 zephyr/arch/arch/arm/core/aarch32/cortex_m/mpu/libarch__arm__core__aarch32__cortex_m__mpu.a(arm_mpu.c.obj)
                0x0001e470                arm_core_mpu_configure_static_mpu_regions
 .text.arm_core_mpu_mark_areas_for_dynamic_regions
                0x0001e484       0xac zephyr/arch/arch/arm/core/aarch32/cortex_m/mpu/libarch__arm__core__aarch32__cortex_m__mpu.a(arm_mpu.c.obj)
                0x0001e484                arm_core_mpu_mark_areas_for_dynamic_regions
 .text.__stdout_hook_install
                0x0001e530        0xc zephyr/lib/libc/minimal/liblib__libc__minimal.a(stdout_console.c.obj)
                0x0001e530                __stdout_hook_install
 .text.z_impl_zephyr_fputc
                0x0001e53c       0x18 zephyr/lib/libc/minimal/liblib__libc__minimal.a(stdout_console.c.obj)
                0x0001e53c                z_impl_zephyr_fputc
 .text.sprintf  0x0001e554       0x30 zephyr/lib/libc/minimal/liblib__libc__minimal.a(sprintf.c.obj)
                0x0001e554                sprintf
 .text.printf   0x0001e584       0x24 zephyr/lib/libc/minimal/liblib__libc__minimal.a(fprintf.c.obj)
                0x0001e584                printf
 .text.gmtime_r
                0x0001e5a8      0x1c4 zephyr/lib/libc/minimal/liblib__libc__minimal.a(gmtime.c.obj)
                0x0001e5a8                gmtime_r
 .text.z_impl_clock_gettime
                0x0001e76c       0xa4 zephyr/lib/posix/liblib__posix.a(clock.c.obj)
                0x0001e76c                z_impl_clock_gettime
 .text.nrf_gpio_cfg_sense_set
                0x0001e810       0x20 zephyr/drivers/gpio/libdrivers__gpio.a(gpio_nrfx.c.obj)
 .text.gpio_nrfx_init
                0x0001e830       0x30 zephyr/drivers/gpio/libdrivers__gpio.a(gpio_nrfx.c.obj)
 .text.gpio_nrfx_config
                0x0001e860       0xb4 zephyr/drivers/gpio/libdrivers__gpio.a(gpio_nrfx.c.obj)
 .text.gpio_nrfx_pin_interrupt_configure
                0x0001e914      0x1e4 zephyr/drivers/gpio/libdrivers__gpio.a(gpio_nrfx.c.obj)
 .text.gpiote_event_handler
                0x0001eaf8      0x11c zephyr/drivers/gpio/libdrivers__gpio.a(gpio_nrfx.c.obj)
 .text.uarte_nrfx_configure
                0x0001ec14      0x16c zephyr/drivers/serial/libdrivers__serial.a(uart_nrfx_uarte.c.obj)
 .text.uarte_nrfx_poll_out
                0x0001ed80       0xb8 zephyr/drivers/serial/libdrivers__serial.a(uart_nrfx_uarte.c.obj)
 .text.uarte_instance_init.isra.0
                0x0001ee38      0x14c zephyr/drivers/serial/libdrivers__serial.a(uart_nrfx_uarte.c.obj)
 .text.uarte_0_init
                0x0001ef84       0x30 zephyr/drivers/serial/libdrivers__serial.a(uart_nrfx_uarte.c.obj)
 .text.uarte_1_init
                0x0001efb4       0x30 zephyr/drivers/serial/libdrivers__serial.a(uart_nrfx_uarte.c.obj)
 .text.k_sys_fatal_error_handler
                0x0001efe4       0x38 modules/nrf/lib/fatal_error/lib..__nrf__lib__fatal_error.a(fatal_error.c.obj)
                0x0001efe4                k_sys_fatal_error_handler
 .text.check_ext_api_requests
                0x0001f01c       0x9c modules/nrf/subsys/fw_info/lib..__nrf__subsys__fw_info.a(fw_info.c.obj)
 .text.SystemInit
                0x0001f0b8       0x10 modules/nordic/lib..__modules__hal__nordic.a(system_nrf9160.c.obj)
                0x0001f0b8                SystemInit
 .text.nrfx_clock_init
                0x0001f0c8       0x20 modules/nordic/lib..__modules__hal__nordic.a(nrfx_clock.c.obj)
                0x0001f0c8                nrfx_clock_init
 .text.nrfx_clock_start
                0x0001f0e8       0x64 modules/nordic/lib..__modules__hal__nordic.a(nrfx_clock.c.obj)
                0x0001f0e8                nrfx_clock_start
 .text.nrfx_clock_stop
                0x0001f14c       0x80 modules/nordic/lib..__modules__hal__nordic.a(nrfx_clock.c.obj)
                0x0001f14c                nrfx_clock_stop
 .text.nrfx_power_clock_irq_handler
                0x0001f1cc       0x68 modules/nordic/lib..__modules__hal__nordic.a(nrfx_clock.c.obj)
                0x0001f1cc                nrfx_power_clock_irq_handler
 .text.nrfx_dppi_channel_alloc
                0x0001f234       0x3c modules/nordic/lib..__modules__hal__nordic.a(nrfx_dppi.c.obj)
                0x0001f234                nrfx_dppi_channel_alloc
 .text.z_sys_init_run_level
                0x0001f270       0x50 zephyr/kernel/libkernel.a(device.c.obj)
                0x0001f270                z_sys_init_run_level
 .text.z_device_ready
                0x0001f2c0       0x2c zephyr/kernel/libkernel.a(device.c.obj)
                0x0001f2c0                z_device_ready
 .text.z_impl_device_get_binding
                0x0001f2ec       0x50 zephyr/kernel/libkernel.a(device.c.obj)
                0x0001f2ec                z_impl_device_get_binding
 .text.z_impl_z_errno
                0x0001f33c        0xc zephyr/kernel/libkernel.a(errno.c.obj)
                0x0001f33c                z_impl_z_errno
 .text.z_fatal_error
                0x0001f348       0xfc zephyr/kernel/libkernel.a(fatal.c.obj)
                0x0001f348                z_fatal_error
 .text.idle     0x0001f444       0x78 zephyr/kernel/libkernel.a(idle.c.obj)
                0x0001f444                idle
 .text.z_bss_zero
                0x0001f4bc       0x14 zephyr/kernel/libkernel.a(init.c.obj)
                0x0001f4bc                z_bss_zero
 .text.z_data_copy
                0x0001f4d0       0x34 zephyr/kernel/libkernel.a(init.c.obj)
                0x0001f4d0                z_data_copy
 .text.bg_thread_main
                0x0001f504       0x30 zephyr/kernel/libkernel.a(init.c.obj)
 .text.z_cstart
                0x0001f534      0x11c zephyr/kernel/libkernel.a(init.c.obj)
                0x0001f534                z_cstart
 .text.init_mem_slab_module
                0x0001f650       0x44 zephyr/kernel/libkernel.a(mem_slab.c.obj)
 .text.k_mem_slab_alloc
                0x0001f694       0x64 zephyr/kernel/libkernel.a(mem_slab.c.obj)
                0x0001f694                k_mem_slab_alloc
 .text.k_mem_slab_free
                0x0001f6f8       0x54 zephyr/kernel/libkernel.a(mem_slab.c.obj)
                0x0001f6f8                k_mem_slab_free
 .text.z_impl_k_msgq_put
                0x0001f74c       0xa8 zephyr/kernel/libkernel.a(msg_q.c.obj)
                0x0001f74c                z_impl_k_msgq_put
 .text.z_impl_k_msgq_get
                0x0001f7f4       0xc0 zephyr/kernel/libkernel.a(msg_q.c.obj)
                0x0001f7f4                z_impl_k_msgq_get
 .text.z_impl_k_mutex_lock
                0x0001f8b4       0xf0 zephyr/kernel/libkernel.a(mutex.c.obj)
                0x0001f8b4                z_impl_k_mutex_lock
 .text.z_impl_k_mutex_unlock
                0x0001f9a4       0x90 zephyr/kernel/libkernel.a(mutex.c.obj)
                0x0001f9a4                z_impl_k_mutex_unlock
 .text.z_reset_time_slice
                0x0001fa34       0x2c zephyr/kernel/libkernel.a(sched.c.obj)
                0x0001fa34                z_reset_time_slice
 .text.k_sched_time_slice_set
                0x0001fa60       0x58 zephyr/kernel/libkernel.a(sched.c.obj)
                0x0001fa60                k_sched_time_slice_set
 .text.z_reschedule
                0x0001fab8       0x24 zephyr/kernel/libkernel.a(sched.c.obj)
                0x0001fab8                z_reschedule
 .text.k_sched_lock
                0x0001fadc       0x28 zephyr/kernel/libkernel.a(sched.c.obj)
                0x0001fadc                k_sched_lock
 .text.z_priq_dumb_remove
                0x0001fb04       0x2c zephyr/kernel/libkernel.a(sched.c.obj)
                0x0001fb04                z_priq_dumb_remove
 .text.update_cache
                0x0001fb30       0x50 zephyr/kernel/libkernel.a(sched.c.obj)
 .text.k_sched_unlock
                0x0001fb80       0x38 zephyr/kernel/libkernel.a(sched.c.obj)
                0x0001fb80                k_sched_unlock
 .text.ready_thread
                0x0001fbb8       0x70 zephyr/kernel/libkernel.a(sched.c.obj)
 .text.z_sched_start
                0x0001fc28       0x3c zephyr/kernel/libkernel.a(sched.c.obj)
                0x0001fc28                z_sched_start
 .text.move_thread_to_end_of_prio_q
                0x0001fc64       0x74 zephyr/kernel/libkernel.a(sched.c.obj)
 .text.z_time_slice
                0x0001fcd8       0x84 zephyr/kernel/libkernel.a(sched.c.obj)
                0x0001fcd8                z_time_slice
 .text.z_impl_k_thread_suspend
                0x0001fd5c       0x68 zephyr/kernel/libkernel.a(sched.c.obj)
                0x0001fd5c                z_impl_k_thread_suspend
 .text.z_thread_single_abort
                0x0001fdc4      0x10c zephyr/kernel/libkernel.a(sched.c.obj)
                0x0001fdc4                z_thread_single_abort
 .text.unready_thread
                0x0001fed0       0x34 zephyr/kernel/libkernel.a(sched.c.obj)
 .text.pend     0x0001ff04       0x4c zephyr/kernel/libkernel.a(sched.c.obj)
 .text.z_pend_curr
                0x0001ff50       0x28 zephyr/kernel/libkernel.a(sched.c.obj)
                0x0001ff50                z_pend_curr
 .text.z_tick_sleep.part.0
                0x0001ff78       0x5c zephyr/kernel/libkernel.a(sched.c.obj)
 .text.z_set_prio
                0x0001ffd4       0x88 zephyr/kernel/libkernel.a(sched.c.obj)
                0x0001ffd4                z_set_prio
 .text.z_sched_init
                0x0002005c       0x18 zephyr/kernel/libkernel.a(sched.c.obj)
                0x0002005c                z_sched_init
 .text.z_impl_k_yield
                0x00020074       0x9c zephyr/kernel/libkernel.a(sched.c.obj)
                0x00020074                z_impl_k_yield
 .text.z_impl_k_sleep
                0x00020110       0x40 zephyr/kernel/libkernel.a(sched.c.obj)
                0x00020110                z_impl_k_sleep
 .text.z_impl_k_current_get
                0x00020150        0xc zephyr/kernel/libkernel.a(sched.c.obj)
                0x00020150                z_impl_k_current_get
 .text.z_impl_k_sem_give
                0x0002015c       0x4c zephyr/kernel/libkernel.a(sem.c.obj)
                0x0002015c                z_impl_k_sem_give
 .text.z_impl_k_sem_take
                0x000201a8       0x54 zephyr/kernel/libkernel.a(sem.c.obj)
                0x000201a8                z_impl_k_sem_take
 .text.k_thread_foreach
                0x000201fc       0x34 zephyr/kernel/libkernel.a(thread.c.obj)
                0x000201fc                k_thread_foreach
 .text.z_thread_monitor_exit
                0x00020230       0x3c zephyr/kernel/libkernel.a(thread.c.obj)
                0x00020230                z_thread_monitor_exit
 .text.z_impl_k_thread_name_set
                0x0002026c       0x20 zephyr/kernel/libkernel.a(thread.c.obj)
                0x0002026c                z_impl_k_thread_name_set
 .text.k_thread_state_str
                0x0002028c       0x74 zephyr/kernel/libkernel.a(thread.c.obj)
                0x0002028c                k_thread_state_str
 .text.z_setup_new_thread
                0x00020300       0xc0 zephyr/kernel/libkernel.a(thread.c.obj)
                0x00020300                z_setup_new_thread
 .text.z_impl_k_thread_create
                0x000203c0       0x58 zephyr/kernel/libkernel.a(thread.c.obj)
                0x000203c0                z_impl_k_thread_create
 .text.z_init_static_threads
                0x00020418       0xbc zephyr/kernel/libkernel.a(thread.c.obj)
                0x00020418                z_init_static_threads
 .text.z_self_abort
                0x000204d4       0x28 zephyr/kernel/libkernel.a(thread_abort.c.obj)
                0x000204d4                z_self_abort
 .text.sys_kernel_version_get
                0x000204fc        0x8 zephyr/kernel/libkernel.a(version.c.obj)
                0x000204fc                sys_kernel_version_get
 .text.elapsed  0x00020504       0x14 zephyr/kernel/libkernel.a(timeout.c.obj)
 .text.remove_timeout
                0x00020518       0x34 zephyr/kernel/libkernel.a(timeout.c.obj)
 .text.next_timeout
                0x0002054c       0x58 zephyr/kernel/libkernel.a(timeout.c.obj)
 .text.timeout_rem
                0x000205a4       0x4c zephyr/kernel/libkernel.a(timeout.c.obj)
 .text.z_add_timeout
                0x000205f0      0x110 zephyr/kernel/libkernel.a(timeout.c.obj)
                0x000205f0                z_add_timeout
 .text.z_clock_announce
                0x00020700       0xd4 zephyr/kernel/libkernel.a(timeout.c.obj)
                0x00020700                z_clock_announce
 .text.z_tick_get
                0x000207d4       0x34 zephyr/kernel/libkernel.a(timeout.c.obj)
                0x000207d4                z_tick_get
 .text.z_timer_expiration_handler
                0x00020808       0x4c zephyr/kernel/libkernel.a(timer.c.obj)
                0x00020808                z_timer_expiration_handler
 .text.z_impl_k_timer_start
                0x00020854       0xb8 zephyr/kernel/libkernel.a(timer.c.obj)
                0x00020854                z_impl_k_timer_start
 .text.z_impl_k_poll
                0x0002090c       0xb8 zephyr/kernel/libkernel.a(poll.c.obj)
                0x0002090c                z_impl_k_poll
 .text.z_impl_k_poll_signal_raise
                0x000209c4       0x50 zephyr/kernel/libkernel.a(poll.c.obj)
                0x000209c4                z_impl_k_poll_signal_raise
 .text.z_thread_malloc
                0x00020a14       0x30 zephyr/kernel/libkernel.a(mempool.c.obj)
                0x00020a14                z_thread_malloc
 .text.statics_init
                0x00020a44       0x24 zephyr/kernel/libkernel.a(kheap.c.obj)
 .text.main     0x00020a68        0x2 app/libapp.a(main.c.obj)
                0x00020a68                main
 .text.string_cmp
                0x00020a6a        0x4 app/libapp.a(dynamic_cmd.c.obj)
 .text.swapfunc
                0x00020a6e       0x16 app/libapp.a(qsort.c.obj)
 .text.med3.isra.0
                0x00020a84       0x40 app/libapp.a(qsort.c.obj)
 .text.qsort    0x00020ac4      0x1e8 app/libapp.a(qsort.c.obj)
                0x00020ac4                qsort
 .text.foldcase
                0x00020cac       0x10 zephyr/libzephyr.a(fnmatch.c.obj)
 .text.fnmatchx
                0x00020cbc      0x260 zephyr/libzephyr.a(fnmatch.c.obj)
 .text.fnmatch  0x00020f1c        0x6 zephyr/libzephyr.a(fnmatch.c.obj)
                0x00020f1c                fnmatch
 .text.char2hex
                0x00020f22       0x30 zephyr/libzephyr.a(hex.c.obj)
                0x00020f22                char2hex
 .text.hex2char
                0x00020f52       0x1a zephyr/libzephyr.a(hex.c.obj)
                0x00020f52                hex2char
 .text.bin2hex  0x00020f6c       0x56 zephyr/libzephyr.a(hex.c.obj)
                0x00020f6c                bin2hex
 .text.hex2bin  0x00020fc2       0x74 zephyr/libzephyr.a(hex.c.obj)
                0x00020fc2                hex2bin
 .text.sys_notify_validate
                0x00021036       0x28 zephyr/libzephyr.a(notify.c.obj)
                0x00021036                sys_notify_validate
 .text.sys_notify_finalize
                0x0002105e       0x32 zephyr/libzephyr.a(notify.c.obj)
                0x0002105e                sys_notify_finalize
 .text.arch_printk_char_out
                0x00021090        0x4 zephyr/libzephyr.a(printk.c.obj)
                0x00021090                arch_printk_char_out
 .text.str_out  0x00021094       0x26 zephyr/libzephyr.a(printk.c.obj)
 .text.printk   0x000210ba       0x1a zephyr/libzephyr.a(printk.c.obj)
                0x000210ba                printk
 .text.snprintk
                0x000210d4       0x1a zephyr/libzephyr.a(printk.c.obj)
                0x000210d4                snprintk
 .text.process_recheck
                0x000210ee       0x38 zephyr/libzephyr.a(onoff.c.obj)
 .text.notify_one
                0x00021126       0x2c zephyr/libzephyr.a(onoff.c.obj)
 .text.transition_complete
                0x00021152       0x1c zephyr/libzephyr.a(onoff.c.obj)
 .text.validate_args
                0x0002116e       0x1e zephyr/libzephyr.a(onoff.c.obj)
 .text.onoff_manager_init
                0x0002118c       0x26 zephyr/libzephyr.a(onoff.c.obj)
                0x0002118c                onoff_manager_init
 .text.onoff_request
                0x000211b2       0x92 zephyr/libzephyr.a(onoff.c.obj)
                0x000211b2                onoff_request
 .text.z_thread_entry
                0x00021244       0x14 zephyr/libzephyr.a(thread_entry.c.obj)
                0x00021244                z_thread_entry
 .text.timeutil_timegm
                0x00021258       0x18 zephyr/libzephyr.a(timeutil.c.obj)
                0x00021258                timeutil_timegm
 .text.chunk_field
                0x00021270       0x16 zephyr/libzephyr.a(heap.c.obj)
 .text.chunk_set
                0x00021286       0x16 zephyr/libzephyr.a(heap.c.obj)
 .text.chunk_size
                0x0002129c        0xc zephyr/libzephyr.a(heap.c.obj)
 .text.set_chunk_used
                0x000212a8       0x30 zephyr/libzephyr.a(heap.c.obj)
 .text.set_chunk_size
                0x000212d8        0x8 zephyr/libzephyr.a(heap.c.obj)
 .text.bucket_idx
                0x000212e0       0x1a zephyr/libzephyr.a(heap.c.obj)
 .text.split_chunks
                0x000212fa       0x4e zephyr/libzephyr.a(heap.c.obj)
 .text.free_list_remove_bidx
                0x00021348       0x5e zephyr/libzephyr.a(heap.c.obj)
 .text.alloc_chunk
                0x000213a6       0x82 zephyr/libzephyr.a(heap.c.obj)
 .text.free_list_add
                0x00021428       0x8a zephyr/libzephyr.a(heap.c.obj)
 .text.sys_heap_alloc
                0x000214b2       0x68 zephyr/libzephyr.a(heap.c.obj)
                0x000214b2                sys_heap_alloc
 .text.sys_heap_init
                0x0002151a       0xa4 zephyr/libzephyr.a(heap.c.obj)
                0x0002151a                sys_heap_init
 .text.encode_uint
                0x000215be       0x96 zephyr/libzephyr.a(cbprintf_complete.c.obj)
 .text.outs     0x00021654       0x2c zephyr/libzephyr.a(cbprintf_complete.c.obj)
 .text.ring_buf_get_rewind_threshold
                0x00021680        0x6 zephyr/libzephyr.a(ring_buffer.c.obj)
                0x00021680                ring_buf_get_rewind_threshold
 .text.ring_buf_put_claim
                0x00021686       0x38 zephyr/libzephyr.a(ring_buffer.c.obj)
                0x00021686                ring_buf_put_claim
 .text.ring_buf_put_finish
                0x000216be       0x1a zephyr/libzephyr.a(ring_buffer.c.obj)
                0x000216be                ring_buf_put_finish
 .text.ring_buf_put
                0x000216d8       0x3e zephyr/libzephyr.a(ring_buffer.c.obj)
                0x000216d8                ring_buf_put
 .text.ring_buf_get_claim
                0x00021716       0x38 zephyr/libzephyr.a(ring_buffer.c.obj)
                0x00021716                ring_buf_get_claim
 .text.ring_buf_get_finish
                0x0002174e       0x5e zephyr/libzephyr.a(ring_buffer.c.obj)
                0x0002174e                ring_buf_get_finish
 .text.ring_buf_get
                0x000217ac       0x3e zephyr/libzephyr.a(ring_buffer.c.obj)
                0x000217ac                ring_buf_get
 .text._ConfigAbsSyms
                0x000217ea        0x2 zephyr/libzephyr.a(configs.c.obj)
                0x000217ea                _ConfigAbsSyms
 .text.z_platform_init
                0x000217ec        0x4 zephyr/libzephyr.a(soc.c.obj)
                0x000217ec                z_platform_init
 .text.log_list_init
                0x000217f0        0x8 zephyr/libzephyr.a(log_list.c.obj)
                0x000217f0                log_list_init
 .text.log_list_add_tail
                0x000217f8       0x14 zephyr/libzephyr.a(log_list.c.obj)
                0x000217f8                log_list_add_tail
 .text.log_list_head_peek
                0x0002180c        0x4 zephyr/libzephyr.a(log_list.c.obj)
                0x0002180c                log_list_head_peek
 .text.log_list_head_get
                0x00021810        0xc zephyr/libzephyr.a(log_list.c.obj)
                0x00021810                log_list_head_get
 .text.z_log_msg_std_alloc
                0x0002181c       0x12 zephyr/libzephyr.a(log_core.c.obj)
 .text.k_cycle_get_32_wrapper
                0x0002182e        0x4 zephyr/libzephyr.a(log_core.c.obj)
 .text.dummy_timestamp
                0x00021832        0x4 zephyr/libzephyr.a(log_core.c.obj)
 .text.z_log_get_s_mask
                0x00021836       0x40 zephyr/libzephyr.a(log_core.c.obj)
                0x00021836                z_log_get_s_mask
 .text.log_backend_disable
                0x00021876        0xa zephyr/libzephyr.a(log_core.c.obj)
                0x00021876                log_backend_disable
 .text.log_0    0x00021880       0x1a zephyr/libzephyr.a(log_core.c.obj)
                0x00021880                log_0
 .text.log_1    0x0002189a       0x28 zephyr/libzephyr.a(log_core.c.obj)
                0x0002189a                log_1
 .text.log_2    0x000218c2       0x32 zephyr/libzephyr.a(log_core.c.obj)
                0x000218c2                log_2
 .text.log_3    0x000218f4       0x38 zephyr/libzephyr.a(log_core.c.obj)
                0x000218f4                log_3
 .text.log_msg_hexdump_data_op
                0x0002192c       0xac zephyr/libzephyr.a(log_msg.c.obj)
 .text.log_msg_get
                0x000219d8       0x12 zephyr/libzephyr.a(log_msg.c.obj)
                0x000219d8                log_msg_get
 .text.log_msg_nargs_get
                0x000219ea        0x6 zephyr/libzephyr.a(log_msg.c.obj)
                0x000219ea                log_msg_nargs_get
 .text.log_msg_arg_get
                0x000219f0       0x3e zephyr/libzephyr.a(log_msg.c.obj)
                0x000219f0                log_msg_arg_get
 .text.log_msg_put
                0x00021a2e       0x1e zephyr/libzephyr.a(log_msg.c.obj)
                0x00021a2e                log_msg_put
 .text.log_msg_str_get
                0x00021a4c        0x4 zephyr/libzephyr.a(log_msg.c.obj)
                0x00021a4c                log_msg_str_get
 .text.log_msg_hexdump_data_get
                0x00021a50        0xe zephyr/libzephyr.a(log_msg.c.obj)
                0x00021a50                log_msg_hexdump_data_get
 .text.buffer_write
                0x00021a5e       0x1a zephyr/libzephyr.a(log_output.c.obj)
 .text.std_print
                0x00021a78      0x2ba zephyr/libzephyr.a(log_output.c.obj)
 .text.log_output_flush
                0x00021d32       0x1a zephyr/libzephyr.a(log_output.c.obj)
                0x00021d32                log_output_flush
 .text.out_func
                0x00021d4c       0x2e zephyr/libzephyr.a(log_output.c.obj)
 .text.log_halt
                0x00021d7a        0x8 zephyr/libzephyr.a(log_cmds.c.obj)
 .text.log_go   0x00021d82        0xa zephyr/libzephyr.a(log_cmds.c.obj)
 .text.cmd_log_self_halt
                0x00021d8c       0x18 zephyr/libzephyr.a(log_cmds.c.obj)
 .text.cmd_log_self_go
                0x00021da4       0x18 zephyr/libzephyr.a(log_cmds.c.obj)
 .text.cmd_log_self_status
                0x00021dbc       0x20 zephyr/libzephyr.a(log_cmds.c.obj)
 .text.cmd_log_self_enable
                0x00021ddc       0x22 zephyr/libzephyr.a(log_cmds.c.obj)
 .text.log_disable
                0x00021dfe       0x14 zephyr/libzephyr.a(log_cmds.c.obj)
 .text.cmd_log_self_disable
                0x00021e12       0x22 zephyr/libzephyr.a(log_cmds.c.obj)
 .text.cmd_kernel_reboot_warm
                0x00021e34        0xc zephyr/libzephyr.a(kernel_service.c.obj)
 .text.cmd_kernel_reboot_cold
                0x00021e40        0xc zephyr/libzephyr.a(kernel_service.c.obj)
 .text.cmd_date_get
                0x00021e4c       0x24 zephyr/libzephyr.a(date_service.c.obj)
 .text.shell_signal_handle
                0x00021e70       0x2a zephyr/libzephyr.a(shell.c.obj)
 .text.kill_handler
                0x00021e9a       0x36 zephyr/libzephyr.a(shell.c.obj)
 .text.k_mutex_unlock
                0x00021ed0        0x4 zephyr/libzephyr.a(shell.c.obj)
 .text.shell_strlen
                0x00021ed4        0xc zephyr/libzephyr.a(shell.c.obj)
 .text.shell_raw_fprintf
                0x00021ee0       0x1a zephyr/libzephyr.a(shell.c.obj)
 .text.transport_evt_handler
                0x00021efa       0x14 zephyr/libzephyr.a(shell.c.obj)
 .text.k_mutex_lock.constprop.0
                0x00021f0e        0x4 zephyr/libzephyr.a(shell.c.obj)
 .text.shell_log_process
                0x00021f12       0x48 zephyr/libzephyr.a(shell.c.obj)
 .text.shell_vfprintf
                0x00021f5a       0x70 zephyr/libzephyr.a(shell.c.obj)
                0x00021f5a                shell_vfprintf
 .text.shell_fprintf
                0x00021fca       0x1a zephyr/libzephyr.a(shell.c.obj)
                0x00021fca                shell_fprintf
 .text.shell_help
                0x00021fe4       0x2a zephyr/libzephyr.a(shell.c.obj)
                0x00021fe4                shell_help
 .text.shell_fprintf_buffer_flush
                0x0002200e       0x18 zephyr/libzephyr.a(shell_fprintf.c.obj)
                0x0002200e                shell_fprintf_buffer_flush
 .text.out_func
                0x00022026       0x38 zephyr/libzephyr.a(shell_fprintf.c.obj)
 .text.isspace  0x0002205e       0x14 zephyr/libzephyr.a(shell_utils.c.obj)
 .text.shell_strlen
                0x00022072        0xc zephyr/libzephyr.a(shell_utils.c.obj)
 .text.column_span_with_buffer_offsets_get
                0x0002207e       0x1e zephyr/libzephyr.a(shell_utils.c.obj)
                0x0002207e                column_span_with_buffer_offsets_get
 .text.row_span_with_buffer_offsets_get
                0x0002209c       0x16 zephyr/libzephyr.a(shell_utils.c.obj)
                0x0002209c                row_span_with_buffer_offsets_get
 .text.shell_multiline_data_calc
                0x000220b2       0x2c zephyr/libzephyr.a(shell_utils.c.obj)
                0x000220b2                shell_multiline_data_calc
 .text.shell_make_argv
                0x000220de      0x188 zephyr/libzephyr.a(shell_utils.c.obj)
                0x000220de                shell_make_argv
 .text.shell_pattern_remove
                0x00022266       0x4e zephyr/libzephyr.a(shell_utils.c.obj)
                0x00022266                shell_pattern_remove
 .text.shell_find_cmd
                0x000222b4       0x2e zephyr/libzephyr.a(shell_utils.c.obj)
                0x000222b4                shell_find_cmd
 .text.shell_get_last_command
                0x000222e2       0x5c zephyr/libzephyr.a(shell_utils.c.obj)
                0x000222e2                shell_get_last_command
 .text.shell_spaces_trim
                0x0002233e       0x6c zephyr/libzephyr.a(shell_utils.c.obj)
                0x0002233e                shell_spaces_trim
 .text.shell_cmd_trim
                0x000223aa       0x64 zephyr/libzephyr.a(shell_utils.c.obj)
                0x000223aa                shell_cmd_trim
 .text.shell_raw_fprintf
                0x0002240e       0x1a zephyr/libzephyr.a(shell_ops.c.obj)
 .text.full_line_cmd.isra.0
                0x00022428       0x28 zephyr/libzephyr.a(shell_ops.c.obj)
 .text.shell_cursor_in_empty_line
                0x00022450       0x28 zephyr/libzephyr.a(shell_ops.c.obj)
                0x00022450                shell_cursor_in_empty_line
 .text.shell_op_cursor_move
                0x00022478       0x48 zephyr/libzephyr.a(shell_ops.c.obj)
                0x00022478                shell_op_cursor_move
 .text.shell_op_cursor_word_move
                0x000224c0       0x74 zephyr/libzephyr.a(shell_ops.c.obj)
                0x000224c0                shell_op_cursor_word_move
 .text.shell_op_cursor_home_move
                0x00022534        0xc zephyr/libzephyr.a(shell_ops.c.obj)
                0x00022534                shell_op_cursor_home_move
 .text.shell_op_cursor_end_move
                0x00022540        0xe zephyr/libzephyr.a(shell_ops.c.obj)
                0x00022540                shell_op_cursor_end_move
 .text.shell_op_left_arrow
                0x0002254e       0x10 zephyr/libzephyr.a(shell_ops.c.obj)
                0x0002254e                shell_op_left_arrow
 .text.shell_op_right_arrow
                0x0002255e       0x12 zephyr/libzephyr.a(shell_ops.c.obj)
                0x0002255e                shell_op_right_arrow
 .text.shell_op_delete_from_cursor
                0x00022570       0x14 zephyr/libzephyr.a(shell_ops.c.obj)
                0x00022570                shell_op_delete_from_cursor
 .text.shell_cmd_line_erase
                0x00022584       0x34 zephyr/libzephyr.a(shell_ops.c.obj)
                0x00022584                shell_cmd_line_erase
 .text.shell_write
                0x000225b8       0x6a zephyr/libzephyr.a(shell_ops.c.obj)
                0x000225b8                shell_write
 .text.shell_print_stream
                0x00022622        0x4 zephyr/libzephyr.a(shell_ops.c.obj)
                0x00022622                shell_print_stream
 .text.shell_internal_vfprintf
                0x00022626       0x50 zephyr/libzephyr.a(shell_ops.c.obj)
                0x00022626                shell_internal_vfprintf
 .text.shell_internal_fprintf
                0x00022676       0x1a zephyr/libzephyr.a(shell_ops.c.obj)
                0x00022676                shell_internal_fprintf
 .text.data_insert
                0x00022690       0x64 zephyr/libzephyr.a(shell_ops.c.obj)
 .text.shell_op_completion_insert
                0x000226f4        0x4 zephyr/libzephyr.a(shell_ops.c.obj)
                0x000226f4                shell_op_completion_insert
 .text.shell_op_char_delete
                0x000226f8       0x36 zephyr/libzephyr.a(shell_ops.c.obj)
                0x000226f8                shell_op_char_delete
 .text.shell_op_char_backspace
                0x0002272e       0x22 zephyr/libzephyr.a(shell_ops.c.obj)
                0x0002272e                shell_op_char_backspace
 .text.z_impl_uart_irq_tx_disable
                0x00022750        0xa zephyr/libzephyr.a(shell_uart.c.obj)
 .text.uninit   0x0002275a       0x14 zephyr/libzephyr.a(shell_uart.c.obj)
 .text.read     0x0002276e       0x12 zephyr/libzephyr.a(shell_uart.c.obj)
 .text.write    0x00022780       0x64 zephyr/libzephyr.a(shell_uart.c.obj)
 .text.enable   0x000227e4       0x14 zephyr/libzephyr.a(shell_uart.c.obj)
 .text.shell_raw_fprintf
                0x000227f8       0x1a zephyr/libzephyr.a(shell_help.c.obj)
 .text.cmd_bacskpace_mode_backspace
                0x00022812       0x12 zephyr/libzephyr.a(shell_cmds.c.obj)
 .text.cmd_bacskpace_mode_delete
                0x00022824       0x12 zephyr/libzephyr.a(shell_cmds.c.obj)
 .text.cmd_colors_off
                0x00022836       0x12 zephyr/libzephyr.a(shell_cmds.c.obj)
 .text.cmd_colors_on
                0x00022848       0x12 zephyr/libzephyr.a(shell_cmds.c.obj)
 .text.cmd_echo_off
                0x0002285a       0x12 zephyr/libzephyr.a(shell_cmds.c.obj)
 .text.cmd_echo_on
                0x0002286c       0x12 zephyr/libzephyr.a(shell_cmds.c.obj)
 .text.cmd_shell_stats_reset
                0x0002287e        0x8 zephyr/libzephyr.a(shell_cmds.c.obj)
 .text.shell_raw_fprintf
                0x00022886       0x1a zephyr/libzephyr.a(shell_cmds.c.obj)
 .text.remove_from_tail.part.0
                0x000228a0       0x24 zephyr/libzephyr.a(shell_history.c.obj)
 .text.shell_history_mode_exit
                0x000228c4        0x6 zephyr/libzephyr.a(shell_history.c.obj)
                0x000228c4                shell_history_mode_exit
 .text.shell_history_get
                0x000228ca       0x56 zephyr/libzephyr.a(shell_history.c.obj)
                0x000228ca                shell_history_get
 .text.shell_history_purge
                0x00022920       0x18 zephyr/libzephyr.a(shell_history.c.obj)
                0x00022920                shell_history_purge
 .text.shell_history_put
                0x00022938       0xd8 zephyr/libzephyr.a(shell_history.c.obj)
                0x00022938                shell_history_put
 .text.shell_history_init
                0x00022a10        0xc zephyr/libzephyr.a(shell_history.c.obj)
                0x00022a10                shell_history_init
 .text.msg_from_fifo.isra.0
                0x00022a1c       0x1a zephyr/libzephyr.a(shell_log_backend.c.obj)
 .text.dropped  0x00022a36       0x2a zephyr/libzephyr.a(shell_log_backend.c.obj)
 .text.put      0x00022a60      0x10e zephyr/libzephyr.a(shell_log_backend.c.obj)
 .text.shell_log_backend_output_func
                0x00022b6e       0x14 zephyr/libzephyr.a(shell_log_backend.c.obj)
                0x00022b6e                shell_log_backend_output_func
 .text.shell_log_backend_enable
                0x00022b82       0x1e zephyr/libzephyr.a(shell_log_backend.c.obj)
                0x00022b82                shell_log_backend_enable
 .text.shell_log_backend_disable
                0x00022ba0       0x20 zephyr/libzephyr.a(shell_log_backend.c.obj)
                0x00022ba0                shell_log_backend_disable
 .text.shell_log_backend_process
                0x00022bc0       0x7e zephyr/libzephyr.a(shell_log_backend.c.obj)
                0x00022bc0                shell_log_backend_process
 .text.panic    0x00022c3e       0x52 zephyr/libzephyr.a(shell_log_backend.c.obj)
 .text.shell_wildcard_character_exist
                0x00022c90       0x28 zephyr/libzephyr.a(shell_wildcard.c.obj)
                0x00022c90                shell_wildcard_character_exist
 .text.shell_wildcard_prepare
                0x00022cb8       0x48 zephyr/libzephyr.a(shell_wildcard.c.obj)
                0x00022cb8                shell_wildcard_prepare
 .text.shell_wildcard_finalize
                0x00022d00       0x1a zephyr/libzephyr.a(shell_wildcard.c.obj)
                0x00022d00                shell_wildcard_finalize
 .text.get_status
                0x00022d1a       0x12 zephyr/libzephyr.a(clock_control_nrf.c.obj)
 .text.set_off_state
                0x00022d2c       0x32 zephyr/libzephyr.a(clock_control_nrf.c.obj)
 .text.set_starting_state
                0x00022d5e       0x3c zephyr/libzephyr.a(clock_control_nrf.c.obj)
 .text.set_on_state
                0x00022d9a       0x26 zephyr/libzephyr.a(clock_control_nrf.c.obj)
 .text.onoff_started_callback
                0x00022dc0       0x12 zephyr/libzephyr.a(clock_control_nrf.c.obj)
 .text.blocking_start_callback
                0x00022dd2        0x6 zephyr/libzephyr.a(clock_control_nrf.c.obj)
 .text.lfclk_stop
                0x00022dd8        0x6 zephyr/libzephyr.a(clock_control_nrf.c.obj)
 .text.lfclk_start
                0x00022dde        0x6 zephyr/libzephyr.a(clock_control_nrf.c.obj)
 .text.api_stop
                0x00022de4       0x28 zephyr/libzephyr.a(clock_control_nrf.c.obj)
 .text.api_start
                0x00022e0c       0x34 zephyr/libzephyr.a(clock_control_nrf.c.obj)
 .text.z_clock_isr
                0x00022e40        0x2 zephyr/libzephyr.a(sys_clock_init.c.obj)
                0x00022e40                z_clock_isr
 .text.z_clock_idle_exit
                0x00022e42        0x2 zephyr/libzephyr.a(sys_clock_init.c.obj)
                0x00022e42                z_clock_idle_exit
 .text.sys_clock_disable
                0x00022e44        0x2 zephyr/libzephyr.a(sys_clock_init.c.obj)
                0x00022e44                sys_clock_disable
 .text.spm_request_random_number
                0x00022e46       0x18 zephyr/libzephyr.a(secure_services_ns.c.obj)
                0x00022e46                spm_request_random_number
 .text.z_irq_spurious
                0x00022e5e        0x8 zephyr/arch/arch/arm/core/aarch32/libarch__arm__core__aarch32.a(irq_manage.c.obj)
                0x00022e5e                z_irq_spurious
 .text.configure_builtin_stack_guard
                0x00022e66        0xa zephyr/arch/arch/arm/core/aarch32/libarch__arm__core__aarch32.a(thread.c.obj)
                0x00022e66                configure_builtin_stack_guard
 .text.z_do_kernel_oops
                0x00022e70        0x8 zephyr/arch/arch/arm/core/aarch32/libarch__arm__core__aarch32.a(fatal.c.obj)
                0x00022e70                z_do_kernel_oops
 .text.z_arm_nmi
                0x00022e78        0xe zephyr/arch/arch/arm/core/aarch32/libarch__arm__core__aarch32.a(nmi.c.obj)
                0x00022e78                z_arm_nmi
 .text.mpu_configure_region
                0x00022e86       0x32 zephyr/arch/arch/arm/core/aarch32/cortex_m/mpu/libarch__arm__core__aarch32__cortex_m__mpu.a(arm_mpu.c.obj)
 .text.arm_cmse_mpu_region_get
                0x00022eb8       0x12 zephyr/arch/arch/arm/core/aarch32/cortex_m/cmse/libarch__arm__core__aarch32__cortex_m__cmse.a(arm_core_cmse.c.obj)
                0x00022eb8                arm_cmse_mpu_region_get
 .text.strtol   0x00022eca       0xec zephyr/lib/libc/minimal/liblib__libc__minimal.a(strtol.c.obj)
                0x00022eca                strtol
 .text.strstr   0x00022fb6       0x40 zephyr/lib/libc/minimal/liblib__libc__minimal.a(strstr.c.obj)
                0x00022fb6                strstr
 .text.strcpy   0x00022ff6       0x14 zephyr/lib/libc/minimal/liblib__libc__minimal.a(string.c.obj)
                0x00022ff6                strcpy
 .text.strncpy  0x0002300a       0x26 zephyr/lib/libc/minimal/liblib__libc__minimal.a(string.c.obj)
                0x0002300a                strncpy
 .text.strchr   0x00023030       0x1c zephyr/lib/libc/minimal/liblib__libc__minimal.a(string.c.obj)
                0x00023030                strchr
 .text.strlen   0x0002304c        0xe zephyr/lib/libc/minimal/liblib__libc__minimal.a(string.c.obj)
                0x0002304c                strlen
 .text.strcmp   0x0002305a       0x18 zephyr/lib/libc/minimal/liblib__libc__minimal.a(string.c.obj)
                0x0002305a                strcmp
 .text.strncmp  0x00023072       0x1e zephyr/lib/libc/minimal/liblib__libc__minimal.a(string.c.obj)
                0x00023072                strncmp
 .text.memcmp   0x00023090       0x20 zephyr/lib/libc/minimal/liblib__libc__minimal.a(string.c.obj)
                0x00023090                memcmp
 .text.memmove  0x000230b0       0x2e zephyr/lib/libc/minimal/liblib__libc__minimal.a(string.c.obj)
                0x000230b0                memmove
 .text.memcpy   0x000230de       0x56 zephyr/lib/libc/minimal/liblib__libc__minimal.a(string.c.obj)
                0x000230de                memcpy
 .text.memset   0x00023134       0x46 zephyr/lib/libc/minimal/liblib__libc__minimal.a(string.c.obj)
                0x00023134                memset
 .text._stdout_hook_default
                0x0002317a        0x6 zephyr/lib/libc/minimal/liblib__libc__minimal.a(stdout_console.c.obj)
 .text.fputc    0x00023180        0x4 zephyr/lib/libc/minimal/liblib__libc__minimal.a(stdout_console.c.obj)
                0x00023180                fputc
 .text.sprintf_out
                0x00023184       0x1a zephyr/lib/libc/minimal/liblib__libc__minimal.a(sprintf.c.obj)
 .text.gpio_nrfx_port_get_raw
                0x0002319e        0xc zephyr/drivers/gpio/libdrivers__gpio.a(gpio_nrfx.c.obj)
 .text.gpio_nrfx_port_set_masked_raw
                0x000231aa       0x12 zephyr/drivers/gpio/libdrivers__gpio.a(gpio_nrfx.c.obj)
 .text.gpio_nrfx_port_set_bits_raw
                0x000231bc        0xa zephyr/drivers/gpio/libdrivers__gpio.a(gpio_nrfx.c.obj)
 .text.gpio_nrfx_port_clear_bits_raw
                0x000231c6        0xa zephyr/drivers/gpio/libdrivers__gpio.a(gpio_nrfx.c.obj)
 .text.gpio_nrfx_port_toggle_bits
                0x000231d0        0xe zephyr/drivers/gpio/libdrivers__gpio.a(gpio_nrfx.c.obj)
 .text.gpio_nrfx_manage_callback
                0x000231de       0x56 zephyr/drivers/gpio/libdrivers__gpio.a(gpio_nrfx.c.obj)
 .text.uarte_nrfx_isr_int
                0x00023234       0x7e zephyr/drivers/serial/libdrivers__serial.a(uart_nrfx_uarte.c.obj)
 .text.uarte_nrfx_config_get
                0x000232b2       0x10 zephyr/drivers/serial/libdrivers__serial.a(uart_nrfx_uarte.c.obj)
 .text.uarte_nrfx_err_check
                0x000232c2        0xe zephyr/drivers/serial/libdrivers__serial.a(uart_nrfx_uarte.c.obj)
 .text.is_tx_ready
                0x000232d0       0x1e zephyr/drivers/serial/libdrivers__serial.a(uart_nrfx_uarte.c.obj)
 .text.uarte_nrfx_poll_in
                0x000232ee       0x26 zephyr/drivers/serial/libdrivers__serial.a(uart_nrfx_uarte.c.obj)
 .text.uarte_nrfx_fifo_fill
                0x00023314       0x90 zephyr/drivers/serial/libdrivers__serial.a(uart_nrfx_uarte.c.obj)
 .text.uarte_nrfx_fifo_read
                0x000233a4       0x22 zephyr/drivers/serial/libdrivers__serial.a(uart_nrfx_uarte.c.obj)
 .text.uarte_nrfx_irq_tx_enable
                0x000233c6       0x2e zephyr/drivers/serial/libdrivers__serial.a(uart_nrfx_uarte.c.obj)
 .text.uarte_nrfx_irq_tx_disable
                0x000233f4        0xa zephyr/drivers/serial/libdrivers__serial.a(uart_nrfx_uarte.c.obj)
 .text.uarte_nrfx_irq_tx_ready_complete
                0x000233fe       0x20 zephyr/drivers/serial/libdrivers__serial.a(uart_nrfx_uarte.c.obj)
 .text.uarte_nrfx_irq_rx_ready
                0x0002341e       0x10 zephyr/drivers/serial/libdrivers__serial.a(uart_nrfx_uarte.c.obj)
 .text.uarte_nrfx_irq_rx_enable
                0x0002342e        0xc zephyr/drivers/serial/libdrivers__serial.a(uart_nrfx_uarte.c.obj)
 .text.uarte_nrfx_irq_rx_disable
                0x0002343a        0xc zephyr/drivers/serial/libdrivers__serial.a(uart_nrfx_uarte.c.obj)
 .text.uarte_nrfx_irq_err_enable
                0x00023446        0xe zephyr/drivers/serial/libdrivers__serial.a(uart_nrfx_uarte.c.obj)
 .text.uarte_nrfx_irq_err_disable
                0x00023454        0xe zephyr/drivers/serial/libdrivers__serial.a(uart_nrfx_uarte.c.obj)
 .text.uarte_nrfx_irq_update
                0x00023462        0x4 zephyr/drivers/serial/libdrivers__serial.a(uart_nrfx_uarte.c.obj)
 .text.uarte_nrfx_irq_callback_set
                0x00023466        0xa zephyr/drivers/serial/libdrivers__serial.a(uart_nrfx_uarte.c.obj)
 .text.uarte_nrfx_irq_is_pending
                0x00023470       0x36 zephyr/drivers/serial/libdrivers__serial.a(uart_nrfx_uarte.c.obj)
 .text.nrfx_isr
                0x000234a6        0x2 modules/nordic/lib..__modules__hal__nordic.a(nrfx_glue.c.obj)
                0x000234a6                nrfx_isr
 .text.nrfx_busy_wait
                0x000234a8        0x4 modules/nordic/lib..__modules__hal__nordic.a(nrfx_glue.c.obj)
                0x000234a8                nrfx_busy_wait
 .text.nrfx_clock_enable
                0x000234ac       0x16 modules/nordic/lib..__modules__hal__nordic.a(nrfx_clock.c.obj)
                0x000234ac                nrfx_clock_enable
 .text.z_sys_power_save_idle_exit
                0x000234c2        0x4 zephyr/kernel/libkernel.a(idle.c.obj)
                0x000234c2                z_sys_power_save_idle_exit
 .text.k_mem_slab_init
                0x000234c6       0x36 zephyr/kernel/libkernel.a(mem_slab.c.obj)
                0x000234c6                k_mem_slab_init
 .text.z_impl_k_msgq_peek
                0x000234fc       0x34 zephyr/kernel/libkernel.a(msg_q.c.obj)
                0x000234fc                z_impl_k_msgq_peek
 .text.z_impl_k_mutex_init
                0x00023530        0xe zephyr/kernel/libkernel.a(mutex.c.obj)
                0x00023530                z_impl_k_mutex_init
 .text.queue_insert
                0x0002353e       0xca zephyr/kernel/libkernel.a(queue.c.obj)
 .text.k_queue_append
                0x00023608       0x16 zephyr/kernel/libkernel.a(queue.c.obj)
                0x00023608                k_queue_append
 .text.z_is_t1_higher_prio_than_t2
                0x0002361e       0x12 zephyr/kernel/libkernel.a(sched.c.obj)
                0x0002361e                z_is_t1_higher_prio_than_t2
 .text.z_find_first_thread_to_unpend
                0x00023630       0x20 zephyr/kernel/libkernel.a(sched.c.obj)
                0x00023630                z_find_first_thread_to_unpend
 .text.z_unpend_thread_no_timeout
                0x00023650       0x20 zephyr/kernel/libkernel.a(sched.c.obj)
                0x00023650                z_unpend_thread_no_timeout
 .text.z_reschedule_irqlock
                0x00023670       0x18 zephyr/kernel/libkernel.a(sched.c.obj)
                0x00023670                z_reschedule_irqlock
 .text.z_reschedule_unlocked
                0x00023688       0x14 zephyr/kernel/libkernel.a(sched.c.obj)
 .text.unpend_thread_no_timeout
                0x0002369c       0x18 zephyr/kernel/libkernel.a(sched.c.obj)
 .text.z_unpend_thread
                0x000236b4       0x2c zephyr/kernel/libkernel.a(sched.c.obj)
                0x000236b4                z_unpend_thread
 .text.z_priq_dumb_best
                0x000236e0       0x14 zephyr/kernel/libkernel.a(sched.c.obj)
                0x000236e0                z_priq_dumb_best
 .text.z_ready_thread
                0x000236f4       0x20 zephyr/kernel/libkernel.a(sched.c.obj)
                0x000236f4                z_ready_thread
 .text.z_thread_timeout
                0x00023714       0x40 zephyr/kernel/libkernel.a(sched.c.obj)
                0x00023714                z_thread_timeout
 .text.add_to_waitq_locked
                0x00023754       0x56 zephyr/kernel/libkernel.a(sched.c.obj)
 .text.z_unpend_first_thread
                0x000237aa       0x4a zephyr/kernel/libkernel.a(sched.c.obj)
                0x000237aa                z_unpend_first_thread
 .text.k_is_in_isr
                0x000237f4        0xc zephyr/kernel/libkernel.a(thread.c.obj)
                0x000237f4                k_is_in_isr
 .text.z_impl_k_busy_wait
                0x00023800        0x8 zephyr/kernel/libkernel.a(thread.c.obj)
                0x00023800                z_impl_k_busy_wait
 .text.k_thread_name_get
                0x00023808        0x4 zephyr/kernel/libkernel.a(thread.c.obj)
                0x00023808                k_thread_name_get
 .text.z_impl_k_thread_stack_space_get
                0x0002380c       0x1c zephyr/kernel/libkernel.a(thread.c.obj)
                0x0002380c                z_impl_k_thread_stack_space_get
 .text.z_abort_timeout
                0x00023828       0x2c zephyr/kernel/libkernel.a(timeout.c.obj)
                0x00023828                z_abort_timeout
 .text.z_timeout_remaining
                0x00023854       0x20 zephyr/kernel/libkernel.a(timeout.c.obj)
                0x00023854                z_timeout_remaining
 .text.z_get_next_timeout_expiry
                0x00023874       0x20 zephyr/kernel/libkernel.a(timeout.c.obj)
                0x00023874                z_get_next_timeout_expiry
 .text.z_set_timeout_expiry
                0x00023894       0x34 zephyr/kernel/libkernel.a(timeout.c.obj)
                0x00023894                z_set_timeout_expiry
 .text.z_tick_get_32
                0x000238c8        0x8 zephyr/kernel/libkernel.a(timeout.c.obj)
                0x000238c8                z_tick_get_32
 .text.z_impl_k_uptime_ticks
                0x000238d0        0x4 zephyr/kernel/libkernel.a(timeout.c.obj)
                0x000238d0                z_impl_k_uptime_ticks
 .text.z_timeout_end_calc
                0x000238d4       0x52 zephyr/kernel/libkernel.a(timeout.c.obj)
                0x000238d4                z_timeout_end_calc
 .text.k_timer_init
                0x00023926       0x18 zephyr/kernel/libkernel.a(timer.c.obj)
                0x00023926                k_timer_init
 .text.z_impl_k_timer_stop
                0x0002393e       0x44 zephyr/kernel/libkernel.a(timer.c.obj)
                0x0002393e                z_impl_k_timer_stop
 .text.clear_event_registrations
                0x00023982       0x56 zephyr/kernel/libkernel.a(poll.c.obj)
 .text.k_work_submit_to_queue
                0x000239d8       0x28 zephyr/kernel/libkernel.a(poll.c.obj)
 .text.signal_poll_event
                0x00023a00       0xb8 zephyr/kernel/libkernel.a(poll.c.obj)
 .text.add_event
                0x00023ab8       0x6a zephyr/kernel/libkernel.a(poll.c.obj)
 .text.register_events
                0x00023b22       0xc2 zephyr/kernel/libkernel.a(poll.c.obj)
 .text.k_poll_event_init
                0x00023be4       0x1e zephyr/kernel/libkernel.a(poll.c.obj)
                0x00023be4                k_poll_event_init
 .text.z_handle_obj_poll_events
                0x00023c02       0x1c zephyr/kernel/libkernel.a(poll.c.obj)
                0x00023c02                z_handle_obj_poll_events
 .text.z_impl_k_poll_signal_init
                0x00023c1e        0xa zephyr/kernel/libkernel.a(poll.c.obj)
                0x00023c1e                z_impl_k_poll_signal_init
 .text.z_impl_k_poll_signal_check
                0x00023c28        0xa zephyr/kernel/libkernel.a(poll.c.obj)
                0x00023c28                z_impl_k_poll_signal_check
 .text.k_mem_pool_malloc
                0x00023c32       0x30 zephyr/kernel/libkernel.a(mempool.c.obj)
                0x00023c32                k_mem_pool_malloc
 .text.k_heap_init
                0x00023c62       0x10 zephyr/kernel/libkernel.a(kheap.c.obj)
                0x00023c62                k_heap_init
 .text.k_heap_alloc
                0x00023c72       0x86 zephyr/kernel/libkernel.a(kheap.c.obj)
                0x00023c72                k_heap_alloc
 .text.k_mem_pool_alloc
                0x00023cf8       0x32 zephyr/kernel/libkernel.a(kheap.c.obj)
                0x00023cf8                k_mem_pool_alloc
 .text._OffsetAbsSyms
                0x00023d2a        0x2 zephyr/CMakeFiles/offsets.dir/arch/arm/core/offsets/offsets.c.obj
                0x00023d2a                _OffsetAbsSyms
 *(SORT_BY_ALIGNMENT(.TEXT.*))
 *(SORT_BY_ALIGNMENT(.gnu.linkonce.t.*))
 *(SORT_BY_ALIGNMENT(.glue_7t))
 .glue_7t       0x00023d2c        0x0 linker stubs
 *(SORT_BY_ALIGNMENT(.glue_7))
 .glue_7        0x00023d2c        0x0 linker stubs
 *(SORT_BY_ALIGNMENT(.vfp11_veneer))
 .vfp11_veneer  0x00023d2c        0x0 linker stubs
 *(SORT_BY_ALIGNMENT(.v4_bx))
 .v4_bx         0x00023d2c        0x0 linker stubs
                0x00023d2c                _image_text_end = .

.ARM.exidx      0x00023d2c        0x8
                0x00023d2c                __exidx_start = .
 *(SORT_BY_ALIGNMENT(.ARM.exidx*) SORT_BY_ALIGNMENT(gnu.linkonce.armexidx.*))
 .ARM.exidx     0x00023d2c        0x8 c:/users/pablo/ncs/v1.4.99-dev1/toolchain/opt/bin/../lib/gcc/arm-none-eabi/9.2.1/thumb/v8-m.main/nofp\libgcc.a(_udivmoddi4.o)
                0x00023d34                __exidx_end = .
                0x00023d34                _image_rodata_start = .

initlevel       0x00023d34       0x68
                0x00023d34                __init_start = .
                0x00023d34                __init_PRE_KERNEL_1_start = .
 *(SORT_BY_NAME(SORT_BY_ALIGNMENT(.init_PRE_KERNEL_1[0-9]*)))
 .init_PRE_KERNEL_10
                0x00023d34        0x8 zephyr/libzephyr.a(soc.c.obj)
 .init_PRE_KERNEL_130
                0x00023d3c        0x8 zephyr/kernel/libkernel.a(mem_slab.c.obj)
 .init_PRE_KERNEL_130
                0x00023d44        0x8 zephyr/kernel/libkernel.a(kheap.c.obj)
 .init_PRE_KERNEL_140
                0x00023d4c        0x8 zephyr/arch/arch/arm/core/aarch32/cortex_m/mpu/libarch__arm__core__aarch32__cortex_m__mpu.a(arm_mpu.c.obj)
 .init_PRE_KERNEL_150
                0x00023d54        0x8 zephyr/libzephyr.a(clock_control_nrf.c.obj)
 .init_PRE_KERNEL_150
                0x00023d5c       0x10 zephyr/drivers/serial/libdrivers__serial.a(uart_nrfx_uarte.c.obj)
 *(SORT_BY_NAME(SORT_BY_ALIGNMENT(.init_PRE_KERNEL_1[1-9][0-9]*)))
                0x00023d6c                __init_PRE_KERNEL_2_start = .
 *(SORT_BY_NAME(SORT_BY_ALIGNMENT(.init_PRE_KERNEL_2[0-9]*)))
 .init_PRE_KERNEL_20
                0x00023d6c        0x8 zephyr/libzephyr.a(sys_clock_init.c.obj)
 *(SORT_BY_NAME(SORT_BY_ALIGNMENT(.init_PRE_KERNEL_2[1-9][0-9]*)))
                0x00023d74                __init_POST_KERNEL_start = .
 *(SORT_BY_NAME(SORT_BY_ALIGNMENT(.init_POST_KERNEL[0-9]*)))
 .init_POST_KERNEL0
                0x00023d74        0x8 zephyr/libzephyr.a(log_core.c.obj)
 .init_POST_KERNEL0
                0x00023d7c        0x8 zephyr/libzephyr.a(shell_uart.c.obj)
 .init_POST_KERNEL40
                0x00023d84        0x8 zephyr/drivers/gpio/libdrivers__gpio.a(gpio_nrfx.c.obj)
 .init_POST_KERNEL60
                0x00023d8c        0x8 zephyr/libzephyr.a(uart_console.c.obj)
 .init_POST_KERNEL90
                0x00023d94        0x8 modules/nrf/subsys/fw_info/lib..__nrf__subsys__fw_info.a(fw_info.c.obj)
 *(SORT_BY_NAME(SORT_BY_ALIGNMENT(.init_POST_KERNEL[1-9][0-9]*)))
                0x00023d9c                __init_APPLICATION_start = .
 *(SORT_BY_NAME(SORT_BY_ALIGNMENT(.init_APPLICATION[0-9]*)))
 *(SORT_BY_NAME(SORT_BY_ALIGNMENT(.init_APPLICATION[1-9][0-9]*)))
                0x00023d9c                __init_SMP_start = .
 *(SORT_BY_NAME(SORT_BY_ALIGNMENT(.init_SMP[0-9]*)))
 *(SORT_BY_NAME(SORT_BY_ALIGNMENT(.init_SMP[1-9][0-9]*)))
                0x00023d9c                __init_end = .

sw_isr_table    0x00023d9c      0x208
                0x00023d9c                . = ALIGN (0x0)
 *(SORT_BY_ALIGNMENT(.gnu.linkonce.sw_isr_table*))
 .gnu.linkonce.sw_isr_table*
                0x00023d9c      0x208 zephyr/CMakeFiles/zephyr_final.dir/isr_tables.c.obj
                0x00023d9c                _sw_isr_table

initlevel_error
                0x00023d34        0x0
 *(SORT_BY_NAME(SORT_BY_ALIGNMENT(.init_[_A-Z0-9]*)))
                0x00000001                ASSERT ((SIZEOF (initlevel_error) == 0x0), Undefined initialization levels used.)

app_shmem_regions
                0x00023fa4        0x0
                0x00023fa4                __app_shmem_regions_start = .
 *(SORT_BY_NAME(SORT_BY_ALIGNMENT(.app_regions.*)))
                0x00023fa4                __app_shmem_regions_end = .

bt_l2cap_fixed_chan_area
                0x00023fa4        0x0
                0x00023fa4                _bt_l2cap_fixed_chan_list_start = .
 *(SORT_BY_NAME(SORT_BY_ALIGNMENT(._bt_l2cap_fixed_chan.static.*)))
                0x00023fa4                _bt_l2cap_fixed_chan_list_end = .

bt_gatt_service_static_area
                0x00023fa4        0x0
                0x00023fa4                _bt_gatt_service_static_list_start = .
 *(SORT_BY_NAME(SORT_BY_ALIGNMENT(._bt_gatt_service_static.static.*)))
                0x00023fa4                _bt_gatt_service_static_list_end = .

log_const_sections
                0x00023fa4       0x60
                0x00023fa4                __log_const_start = .
 *(SORT_BY_NAME(SORT_BY_ALIGNMENT(.log_const_*)))
 .log_const_app
                0x00023fa4        0x8 app/libapp.a(main.c.obj)
                0x00023fa4                log_const_app
 .log_const_app_test
                0x00023fac        0x8 app/libapp.a(test_module.c.obj)
                0x00023fac                log_const_app_test
 .log_const_clock_control
                0x00023fb4        0x8 zephyr/libzephyr.a(clock_control_nrf.c.obj)
                0x00023fb4                log_const_clock_control
 .log_const_fatal_error
                0x00023fbc        0x8 modules/nrf/lib/fatal_error/lib..__nrf__lib__fatal_error.a(fatal_error.c.obj)
                0x00023fbc                log_const_fatal_error
 .log_const_log
                0x00023fc4        0x8 zephyr/libzephyr.a(log_core.c.obj)
                0x00023fc4                log_const_log
 .log_const_mpu
                0x00023fcc        0x8 zephyr/arch/arch/arm/core/aarch32/cortex_m/mpu/libarch__arm__core__aarch32__cortex_m__mpu.a(arm_core_mpu.c.obj)
                0x00023fcc                log_const_mpu
 .log_const_os  0x00023fd4        0x8 zephyr/kernel/libkernel.a(init.c.obj)
                0x00023fd4                log_const_os
 .log_const_power
                0x00023fdc        0x8 zephyr/libzephyr.a(power.c.obj)
                0x00023fdc                log_const_power
 .log_const_shell_shell_uart
                0x00023fe4        0x8 zephyr/libzephyr.a(shell_uart.c.obj)
                0x00023fe4                log_const_shell_shell_uart
 .log_const_shell_uart
                0x00023fec        0x8 zephyr/libzephyr.a(shell_uart.c.obj)
                0x00023fec                log_const_shell_uart
 .log_const_soc
                0x00023ff4        0x8 zephyr/libzephyr.a(soc.c.obj)
                0x00023ff4                log_const_soc
 .log_const_uart_nrfx_uarte
                0x00023ffc        0x8 zephyr/drivers/serial/libdrivers__serial.a(uart_nrfx_uarte.c.obj)
                0x00023ffc                log_const_uart_nrfx_uarte
                0x00024004                __log_const_end = .

log_backends_sections
                0x00024004       0x10
                0x00024004                __log_backends_start = .
 *(SORT_BY_ALIGNMENT(._log_backend.*))
 ._log_backend.static.shell_uart_backend
                0x00024004       0x10 zephyr/libzephyr.a(shell_uart.c.obj)
                0x00024014                __log_backends_end = .

shell_area      0x00024014       0x30
                0x00024014                _shell_list_start = .
 *(SORT_BY_NAME(SORT_BY_ALIGNMENT(._shell.static.*)))
 ._shell.static.shell_uart
                0x00024014       0x30 zephyr/libzephyr.a(shell_uart.c.obj)
                0x00024044                _shell_list_end = .

shell_root_cmds_sections
                0x00024044       0x88
                0x00024044                __shell_root_cmds_start = .
 *(SORT_BY_NAME(SORT_BY_ALIGNMENT(.shell_root_cmd_*)))
 .shell_root_cmd_benchmark
                0x00024044        0x8 app/libapp.a(main.c.obj)
 .shell_root_cmd_clear
                0x0002404c        0x8 zephyr/libzephyr.a(shell_cmds.c.obj)
 .shell_root_cmd_date
                0x00024054        0x8 zephyr/libzephyr.a(date_service.c.obj)
 .shell_root_cmd_device
                0x0002405c        0x8 zephyr/libzephyr.a(device_service.c.obj)
 .shell_root_cmd_dynamic
                0x00024064        0x8 app/libapp.a(dynamic_cmd.c.obj)
 .shell_root_cmd_getkeys
                0x0002406c        0x8 app/libapp.a(main.c.obj)
 .shell_root_cmd_help
                0x00024074        0x8 zephyr/libzephyr.a(shell_cmds.c.obj)
 .shell_root_cmd_history
                0x0002407c        0x8 zephyr/libzephyr.a(shell_cmds.c.obj)
 .shell_root_cmd_kernel
                0x00024084        0x8 zephyr/libzephyr.a(kernel_service.c.obj)
 .shell_root_cmd_keygen
                0x0002408c        0x8 app/libapp.a(main.c.obj)
 .shell_root_cmd_log
                0x00024094        0x8 zephyr/libzephyr.a(log_cmds.c.obj)
 .shell_root_cmd_nrf_clock_control
                0x0002409c        0x8 zephyr/libzephyr.a(clock_control_nrf.c.obj)
 .shell_root_cmd_publickey
                0x000240a4        0x8 app/libapp.a(main.c.obj)
 .shell_root_cmd_resize
                0x000240ac        0x8 zephyr/libzephyr.a(shell_cmds.c.obj)
 .shell_root_cmd_shell
                0x000240b4        0x8 zephyr/libzephyr.a(shell_cmds.c.obj)
 .shell_root_cmd_signature
                0x000240bc        0x8 app/libapp.a(main.c.obj)
 .shell_root_cmd_verify
                0x000240c4        0x8 app/libapp.a(main.c.obj)
                0x000240cc                __shell_root_cmds_end = .

font_entry_sections
                0x000240cc        0x0
                0x000240cc                __font_entry_start = .
 *(SORT_BY_NAME(SORT_BY_ALIGNMENT(._cfb_font.*)))
                0x000240cc                __font_entry_end = .

tracing_backend_area
                0x000240cc        0x0
                0x000240cc                _tracing_backend_list_start = .
 *(SORT_BY_NAME(SORT_BY_ALIGNMENT(._tracing_backend.static.*)))
                0x000240cc                _tracing_backend_list_end = .

tdata           0x000240cc        0x0
 *(SORT_BY_ALIGNMENT(.tdata) SORT_BY_ALIGNMENT(.tdata.*) SORT_BY_ALIGNMENT(.gnu.linkonce.td.*))

tbss            0x000240cc        0x0
 *(SORT_BY_ALIGNMENT(.tbss) SORT_BY_ALIGNMENT(.tbss.*) SORT_BY_ALIGNMENT(.gnu.linkonce.tb.*) SORT_BY_ALIGNMENT(.tcommon))
                [!provide]                PROVIDE (__tdata_start = LOADADDR (tdata))
                [!provide]                PROVIDE (__tdata_size = SIZEOF (tdata))
                [!provide]                PROVIDE (__tdata_end = (__tdata_start + __tdata_size))
                [!provide]                PROVIDE (__tbss_start = LOADADDR (tbss))
                [!provide]                PROVIDE (__tbss_size = SIZEOF (tbss))
                [!provide]                PROVIDE (__tbss_end = (__tbss_start + __tbss_size))
                [!provide]                PROVIDE (__tls_start = __tdata_start)
                [!provide]                PROVIDE (__tls_end = __tbss_end)
                [!provide]                PROVIDE (__tls_size = (__tbss_end - __tdata_start))

rodata          0x000240d0     0x4580
 *(SORT_BY_ALIGNMENT(.rodata))
 .rodata        0x000240d0       0x20 zephyr/drivers/serial/libdrivers__serial.a(uart_nrfx_uarte.c.obj)
 .rodata        0x000240f0       0x18 modules/nrf/subsys/fw_info/lib..__nrf__subsys__fw_info.a(fw_info.c.obj)
 .rodata        0x00024108     0x200c ../mylib/src/libblst.a(server.o)
                0x00024108                BLS12_381_P
                0x00024198                BLS12_381_Rx
                0x000243d8                BLS12_381_RR
                0x00024df8                BLS12_381_G1
                0x00024e88                BLS12_381_G2
                0x000254c8                BLS12_381_r
                0x00025640                BLS12_381_rRR
                0x00025f60                BLS12_381_p0
                0x00025f64                BLS12_381_NEG_G2
                0x00026084                BLS12_381_NEG_G1
 .rodata        0x00026114       0x20 app/libapp.a(main.c.obj)
 *(SORT_BY_ALIGNMENT(.rodata.*))
 *fill*         0x00026134        0xc 
 .rodata.delay_machine_code.8516
                0x00026140        0x6 zephyr/libzephyr.a(soc.c.obj)
 *fill*         0x00026146        0x2 
 .rodata._shell_benchmark
                0x00026148       0x14 app/libapp.a(main.c.obj)
 .rodata._shell_getkeys
                0x0002615c       0x14 app/libapp.a(main.c.obj)
 .rodata._shell_keygen
                0x00026170       0x14 app/libapp.a(main.c.obj)
 .rodata._shell_publickey
                0x00026184       0x14 app/libapp.a(main.c.obj)
 .rodata._shell_signature
                0x00026198       0x14 app/libapp.a(main.c.obj)
 .rodata._shell_verify
                0x000261ac       0x14 app/libapp.a(main.c.obj)
 .rodata._shell_dynamic
                0x000261c0       0x14 app/libapp.a(dynamic_cmd.c.obj)
 .rodata.m_sub_dynamic
                0x000261d4        0x8 app/libapp.a(dynamic_cmd.c.obj)
 .rodata.m_sub_dynamic_set
                0x000261dc        0x8 app/libapp.a(dynamic_cmd.c.obj)
 .rodata.shell_m_sub_dynamic
                0x000261e4       0x64 app/libapp.a(dynamic_cmd.c.obj)
 .rodata.colors
                0x00026248       0x14 zephyr/libzephyr.a(log_output.c.obj)
 .rodata.severity
                0x0002625c       0x14 zephyr/libzephyr.a(log_output.c.obj)
 .rodata._shell_log
                0x00026270       0x14 zephyr/libzephyr.a(log_cmds.c.obj)
 .rodata.dsub_backend_name_dynamic
                0x00026284        0x8 zephyr/libzephyr.a(log_cmds.c.obj)
 .rodata.dsub_module_name
                0x0002628c        0x8 zephyr/libzephyr.a(log_cmds.c.obj)
 .rodata.dsub_severity_lvl
                0x00026294        0x8 zephyr/libzephyr.a(log_cmds.c.obj)
 .rodata.severity_lvls
                0x0002629c       0x14 zephyr/libzephyr.a(log_cmds.c.obj)
 .rodata.severity_lvls_sorted
                0x000262b0       0x14 zephyr/libzephyr.a(log_cmds.c.obj)
 .rodata.shell_sub_log_backend
                0x000262c4       0x78 zephyr/libzephyr.a(log_cmds.c.obj)
 .rodata.shell_sub_log_stat
                0x0002633c       0xb4 zephyr/libzephyr.a(log_cmds.c.obj)
 .rodata.sub_log_backend
                0x000263f0        0x8 zephyr/libzephyr.a(log_cmds.c.obj)
 .rodata.sub_log_stat
                0x000263f8        0x8 zephyr/libzephyr.a(log_cmds.c.obj)
 .rodata._shell_kernel
                0x00026400       0x14 zephyr/libzephyr.a(kernel_service.c.obj)
 .rodata.shell_sub_kernel
                0x00026414       0x8c zephyr/libzephyr.a(kernel_service.c.obj)
 .rodata.shell_sub_kernel_reboot
                0x000264a0       0x3c zephyr/libzephyr.a(kernel_service.c.obj)
 .rodata.sub_kernel
                0x000264dc        0x8 zephyr/libzephyr.a(kernel_service.c.obj)
 .rodata.sub_kernel_reboot
                0x000264e4        0x8 zephyr/libzephyr.a(kernel_service.c.obj)
 .rodata._shell_device
                0x000264ec       0x14 zephyr/libzephyr.a(device_service.c.obj)
 .rodata.levels
                0x00026500       0x14 zephyr/libzephyr.a(device_service.c.obj)
 .rodata.shell_sub_device
                0x00026514       0x3c zephyr/libzephyr.a(device_service.c.obj)
 .rodata.sub_device
                0x00026550        0x8 zephyr/libzephyr.a(device_service.c.obj)
 .rodata._shell_date
                0x00026558       0x14 zephyr/libzephyr.a(date_service.c.obj)
 .rodata.shell_sub_date
                0x0002656c       0x3c zephyr/libzephyr.a(date_service.c.obj)
 .rodata.sub_date
                0x000265a8        0x8 zephyr/libzephyr.a(date_service.c.obj)
 .rodata.shell_transport_uart_shell_uart
                0x000265b0       0x10 zephyr/libzephyr.a(shell_uart.c.obj)
 .rodata.shell_uart_fprintf
                0x000265c0       0x14 zephyr/libzephyr.a(shell_uart.c.obj)
 .rodata.shell_uart_log_backend
                0x000265d4       0x14 zephyr/libzephyr.a(shell_uart.c.obj)
 .rodata.shell_uart_log_output
                0x000265e8       0x10 zephyr/libzephyr.a(shell_uart.c.obj)
 .rodata.shell_uart_transport_api
                0x000265f8       0x18 zephyr/libzephyr.a(shell_uart.c.obj)
                0x000265f8                shell_uart_transport_api
 .rodata._shell_clear
                0x00026610       0x14 zephyr/libzephyr.a(shell_cmds.c.obj)
 .rodata._shell_help
                0x00026624       0x14 zephyr/libzephyr.a(shell_cmds.c.obj)
 .rodata._shell_history
                0x00026638       0x14 zephyr/libzephyr.a(shell_cmds.c.obj)
 .rodata._shell_resize
                0x0002664c       0x14 zephyr/libzephyr.a(shell_cmds.c.obj)
 .rodata._shell_shell
                0x00026660       0x14 zephyr/libzephyr.a(shell_cmds.c.obj)
 .rodata.m_sub_backspace_mode
                0x00026674        0x8 zephyr/libzephyr.a(shell_cmds.c.obj)
 .rodata.m_sub_colors
                0x0002667c        0x8 zephyr/libzephyr.a(shell_cmds.c.obj)
 .rodata.m_sub_echo
                0x00026684        0x8 zephyr/libzephyr.a(shell_cmds.c.obj)
 .rodata.m_sub_resize
                0x0002668c        0x8 zephyr/libzephyr.a(shell_cmds.c.obj)
 .rodata.m_sub_shell
                0x00026694        0x8 zephyr/libzephyr.a(shell_cmds.c.obj)
 .rodata.m_sub_shell_stats
                0x0002669c        0x8 zephyr/libzephyr.a(shell_cmds.c.obj)
 .rodata.shell_m_sub_backspace_mode
                0x000266a4       0x3c zephyr/libzephyr.a(shell_cmds.c.obj)
 .rodata.shell_m_sub_colors
                0x000266e0       0x3c zephyr/libzephyr.a(shell_cmds.c.obj)
 .rodata.shell_m_sub_echo
                0x0002671c       0x3c zephyr/libzephyr.a(shell_cmds.c.obj)
 .rodata.shell_m_sub_resize
                0x00026758       0x28 zephyr/libzephyr.a(shell_cmds.c.obj)
 .rodata.shell_m_sub_shell
                0x00026780       0x64 zephyr/libzephyr.a(shell_cmds.c.obj)
 .rodata.shell_m_sub_shell_stats
                0x000267e4       0x3c zephyr/libzephyr.a(shell_cmds.c.obj)
 .rodata.log_backend_shell_api
                0x00026820       0x18 zephyr/libzephyr.a(shell_log_backend.c.obj)
                0x00026820                log_backend_shell_api
 .rodata._shell_nrf_clock_control
                0x00026838       0x14 zephyr/libzephyr.a(clock_control_nrf.c.obj)
 .rodata.clock_control_api
                0x0002684c       0x14 zephyr/libzephyr.a(clock_control_nrf.c.obj)
 .rodata.config
                0x00026860       0x18 zephyr/libzephyr.a(clock_control_nrf.c.obj)
 .rodata.shell_subcmds
                0x00026878       0x28 zephyr/libzephyr.a(clock_control_nrf.c.obj)
 .rodata.subcmds
                0x000268a0        0x8 zephyr/libzephyr.a(clock_control_nrf.c.obj)
 .rodata.transitions.10080
                0x000268a8        0xc zephyr/libzephyr.a(clock_control_nrf.c.obj)
 .rodata.mpu_config
                0x000268b4        0x8 zephyr/soc/arm/common/cortex_m/libsoc__arm__common__cortex_m.a(arm_mpu_regions.c.obj)
                0x000268b4                mpu_config
 .rodata.mpu_regions
                0x000268bc       0x20 zephyr/soc/arm/common/cortex_m/libsoc__arm__common__cortex_m.a(arm_mpu_regions.c.obj)
 .rodata.gpio_nrfx_drv_api_funcs
                0x000268dc       0x24 zephyr/drivers/gpio/libdrivers__gpio.a(gpio_nrfx.c.obj)
 .rodata.gpio_nrfx_p0_cfg
                0x00026900        0xc zephyr/drivers/gpio/libdrivers__gpio.a(gpio_nrfx.c.obj)
 .rodata.uart_nrfx_uarte_driver_api
                0x0002690c       0x4c zephyr/drivers/serial/libdrivers__serial.a(uart_nrfx_uarte.c.obj)
 .rodata.uarte_0z_config
                0x00026958        0x8 zephyr/drivers/serial/libdrivers__serial.a(uart_nrfx_uarte.c.obj)
 .rodata.uarte_1z_config
                0x00026960        0x8 zephyr/drivers/serial/libdrivers__serial.a(uart_nrfx_uarte.c.obj)
 .rodata.levels.8636
                0x00026968       0x14 zephyr/kernel/libkernel.a(device.c.obj)
 .rodata._k_neg_eagain
                0x0002697c        0x4 zephyr/kernel/libkernel.a(errno.c.obj)
                0x0002697c                _k_neg_eagain
 .rodata.CSWTCH.21
                0x00026980       0x14 zephyr/kernel/libkernel.a(fatal.c.obj)
 .rodata.str1.4
                0x00026994       0x12 ../mylib/src/libblst.a(server.o)
 .rodata.cmd_public_key.str1.1
                0x000269a6       0x11 app/libapp.a(main.c.obj)
                                 0x16 (size before relaxing)
 .rodata.cmd_get_keys.str1.1
                0x000269b7       0x14 app/libapp.a(main.c.obj)
 .rodata.cmd_keygen.str1.1
                0x000269cb       0x45 app/libapp.a(main.c.obj)
                                 0x49 (size before relaxing)
 .rodata.cmd_signature_verification.str1.1
                0x00026a10       0x3b app/libapp.a(main.c.obj)
 .rodata.cmd_benchmark.str1.1
                0x00026a4b       0xde app/libapp.a(main.c.obj)
 .rodata.cmd_signature_message.str1.1
                0x00026b29       0xde app/libapp.a(main.c.obj)
                                 0x10 (size before relaxing)
 .rodata.str1.1
                0x00026b29      0x136 app/libapp.a(main.c.obj)
                                0x140 (size before relaxing)
 .rodata.str1.1
                0x00026c5f        0x9 app/libapp.a(test_module.c.obj)
 .rodata.dynamic_cmd_get.str1.1
                0x00026c68       0x1b app/libapp.a(dynamic_cmd.c.obj)
 .rodata.cmd_dynamic_show.str1.1
                0x00026c83       0x42 app/libapp.a(dynamic_cmd.c.obj)
 .rodata.cmd_dynamic_execute.str1.1
                0x00026cc5       0x2f app/libapp.a(dynamic_cmd.c.obj)
 .rodata.cmd_dynamic_remove.str1.1
                0x00026cf4       0x38 app/libapp.a(dynamic_cmd.c.obj)
 .rodata.cmd_dynamic_add.str1.1
                0x00026d2c       0x97 app/libapp.a(dynamic_cmd.c.obj)
                                 0x9a (size before relaxing)
 .rodata.str1.1
                0x00026dc3      0x18d app/libapp.a(dynamic_cmd.c.obj)
 .rodata.cbvprintf.str1.1
                0x00026f50        0x6 zephyr/libzephyr.a(cbprintf_complete.c.obj)
 .rodata.str1.1
                0x00026f56        0x4 zephyr/libzephyr.a(soc.c.obj)
 .rodata.enable_logger.str1.1
                0x00026f5a        0x4 zephyr/libzephyr.a(log_core.c.obj)
                                  0x8 (size before relaxing)
 .rodata.log_strdup.str1.1
                0x00026f5a       0x1a zephyr/libzephyr.a(log_core.c.obj)
 .rodata.z_impl_log_process.str1.1
                0x00026f74       0x3f zephyr/libzephyr.a(log_core.c.obj)
 .rodata.str1.1
                0x00026fb3        0x4 zephyr/libzephyr.a(log_core.c.obj)
 .rodata.prefix_print.str1.1
                0x00026fb7       0x39 zephyr/libzephyr.a(log_output.c.obj)
                                 0x3c (size before relaxing)
 .rodata.postfix_print.str1.1
                0x00026ff0       0x39 zephyr/libzephyr.a(log_output.c.obj)
                                  0x5 (size before relaxing)
 .rodata.hexdump_line_print.str1.1
                0x00026ff0        0xc zephyr/libzephyr.a(log_output.c.obj)
                                 0x11 (size before relaxing)
 .rodata.log_output_msg_process.str1.1
                0x00026ffc        0x2 zephyr/libzephyr.a(log_output.c.obj)
 .rodata.log_output_dropped_process.str1.1
                0x00026ffe        0x2 zephyr/libzephyr.a(log_output.c.obj)
                                  0x3 (size before relaxing)
 .rodata.str1.1
                0x00026ffe       0x20 zephyr/libzephyr.a(log_output.c.obj)
 .rodata.postfix.9410
                0x0002701e       0x18 zephyr/libzephyr.a(log_output.c.obj)
 .rodata.prefix.9409
                0x00027036        0x5 zephyr/libzephyr.a(log_output.c.obj)
 .rodata.cmd_log_backends_list.str1.1
                0x0002703b       0x32 zephyr/libzephyr.a(log_cmds.c.obj)
 .rodata.log_status.str1.1
                0x0002706d       0x8d zephyr/libzephyr.a(log_cmds.c.obj)
 .rodata.shell_backend_cmd_execute.str1.1
                0x000270fa       0x15 zephyr/libzephyr.a(log_cmds.c.obj)
 .rodata.shell_state_precheck.str1.1
                0x0002710f       0x24 zephyr/libzephyr.a(log_cmds.c.obj)
 .rodata.filters_set.str1.1
                0x00027133       0x45 zephyr/libzephyr.a(log_cmds.c.obj)
 .rodata.log_enable.str1.1
                0x00027178       0x16 zephyr/libzephyr.a(log_cmds.c.obj)
 .rodata.str1.1
                0x0002718e      0x191 zephyr/libzephyr.a(log_cmds.c.obj)
                                0x1b5 (size before relaxing)
 .rodata.cmd_kernel_version.str1.1
                0x0002731f       0x19 zephyr/libzephyr.a(kernel_service.c.obj)
 .rodata.cmd_kernel_uptime.str1.1
                0x00027338        0xf zephyr/libzephyr.a(kernel_service.c.obj)
 .rodata.cmd_kernel_threads.str1.1
                0x00027347       0x29 zephyr/libzephyr.a(kernel_service.c.obj)
 .rodata.cmd_kernel_stacks.str1.1
                0x00027370       0x46 zephyr/libzephyr.a(kernel_service.c.obj)
 .rodata.shell_tdata_dump.str1.1
                0x000273b6       0xa9 zephyr/libzephyr.a(kernel_service.c.obj)
                                 0xad (size before relaxing)
 .rodata.cmd_kernel_cycles.str1.1
                0x0002745f       0x16 zephyr/libzephyr.a(kernel_service.c.obj)
 .rodata.shell_stack_dump.str1.1
                0x00027475       0x3a zephyr/libzephyr.a(kernel_service.c.obj)
 .rodata.str1.1
                0x000274af       0xcc zephyr/libzephyr.a(kernel_service.c.obj)
 .rodata.cmd_device_list.str1.1
                0x0002757b        0xf zephyr/libzephyr.a(device_service.c.obj)
                                 0x11 (size before relaxing)
 .rodata.device_get_config_level.str1.1
                0x0002758a        0x6 zephyr/libzephyr.a(device_service.c.obj)
 .rodata.cmd_device_levels.str1.1
                0x00027590       0x42 zephyr/libzephyr.a(device_service.c.obj)
 .rodata.str1.1
                0x000275d2       0x56 zephyr/libzephyr.a(device_service.c.obj)
                                 0x5d (size before relaxing)
 .rodata.date_print.str1.1
                0x00027628       0x21 zephyr/libzephyr.a(date_service.c.obj)
 .rodata.get_h_m_s.str1.1
                0x00027649       0x2e zephyr/libzephyr.a(date_service.c.obj)
 .rodata.cmd_date_set.str1.1
                0x00027677       0x5c zephyr/libzephyr.a(date_service.c.obj)
 .rodata.str1.1
                0x000276d3       0x2e zephyr/libzephyr.a(date_service.c.obj)
                                 0x32 (size before relaxing)
 .rodata.shell_internal_help_print.str1.1
                0x00027701        0xe zephyr/libzephyr.a(shell.c.obj)
 .rodata.state_set.part.0.str1.1
                0x0002770f       0x44 zephyr/libzephyr.a(shell.c.obj)
                                 0x47 (size before relaxing)
 .rodata.execute.str1.1
                0x00027753       0xbe zephyr/libzephyr.a(shell.c.obj)
                                 0xca (size before relaxing)
 .rodata.shell_process.str1.1
                0x00027811        0x6 zephyr/libzephyr.a(shell.c.obj)
                                  0x9 (size before relaxing)
 .rodata.shell_start.str1.1
                0x00027817        0x3 zephyr/libzephyr.a(shell.c.obj)
 .rodata.shell_thread.str1.1
                0x00027817       0x17 zephyr/libzephyr.a(shell.c.obj)
 .rodata.cmd.9482
                0x0002782e        0x4 zephyr/libzephyr.a(shell.c.obj)
 .rodata.cmd.9888
                0x00027832        0x4 zephyr/libzephyr.a(shell.c.obj)
 .rodata.cmd.9889
                0x00027836        0x5 zephyr/libzephyr.a(shell.c.obj)
 .rodata.clear_eos.isra.0.str1.1
                0x0002783b        0x3 zephyr/libzephyr.a(shell_ops.c.obj)
 .rodata.shell_op_cursor_vert_move.str1.1
                0x0002783b        0x7 zephyr/libzephyr.a(shell_ops.c.obj)
 .rodata.shell_op_cond_next_line.str1.1
                0x00027842        0x2 zephyr/libzephyr.a(shell_ops.c.obj)
 .rodata.shell_op_char_insert.str1.1
                0x00027842        0x3 zephyr/libzephyr.a(shell_ops.c.obj)
 .rodata.cmd.9429
                0x00027842        0x4 zephyr/libzephyr.a(shell_ops.c.obj)
 .rodata.cmd.9433
                0x00027846        0x3 zephyr/libzephyr.a(shell_ops.c.obj)
 .rodata.cmd.9437
                0x00027849        0x3 zephyr/libzephyr.a(shell_ops.c.obj)
 .rodata.cmd.9743
                0x0002784c        0x4 zephyr/libzephyr.a(shell_ops.c.obj)
 .rodata.enable_shell_uart.str1.1
                0x00027850        0x7 zephyr/libzephyr.a(shell_uart.c.obj)
 .rodata.uart_callback.str1.1
                0x00027857       0x15 zephyr/libzephyr.a(shell_uart.c.obj)
 .rodata.str1.1
                0x0002786c       0x2d zephyr/libzephyr.a(shell_uart.c.obj)
                                 0x38 (size before relaxing)
 .rodata.formatted_text_print.constprop.0.str1.1
                0x00027899        0x2 zephyr/libzephyr.a(shell_help.c.obj)
 .rodata.shell_help_subcmd_print.str1.1
                0x00027899        0xa zephyr/libzephyr.a(shell_help.c.obj)
 .rodata.shell_help_cmd_print.str1.1
                0x000278a3        0xa zephyr/libzephyr.a(shell_help.c.obj)
                                  0x5 (size before relaxing)
 .rodata.cmd_sep.9653
                0x000278a3        0x4 zephyr/libzephyr.a(shell_help.c.obj)
 .rodata.tabulator.9623
                0x000278a7        0x3 zephyr/libzephyr.a(shell_help.c.obj)
 .rodata.cmd_clear.str1.1
                0x000278aa        0x3 zephyr/libzephyr.a(shell_cmds.c.obj)
 .rodata.cmd_shell_stats_show.str1.1
                0x000278aa        0xf zephyr/libzephyr.a(shell_cmds.c.obj)
 .rodata.cmd_help.str1.1
                0x000278b9      0x1ce zephyr/libzephyr.a(shell_cmds.c.obj)
 .rodata.cmd_history.str1.1
                0x00027a87        0xa zephyr/libzephyr.a(shell_cmds.c.obj)
 .rodata.cmd_echo.str1.1
                0x00027a87       0x33 zephyr/libzephyr.a(shell_cmds.c.obj)
                                 0x36 (size before relaxing)
 .rodata.cmd_resize.str1.1
                0x00027aba       0x3a zephyr/libzephyr.a(shell_cmds.c.obj)
 .rodata.str1.1
                0x00027af4      0x3d4 zephyr/libzephyr.a(shell_cmds.c.obj)
                                0x3de (size before relaxing)
 .rodata.cmd.9409
                0x00027ec8        0x3 zephyr/libzephyr.a(shell_cmds.c.obj)
 .rodata.cmd.9413
                0x00027ecb        0x3 zephyr/libzephyr.a(shell_cmds.c.obj)
 .rodata.cmd.9597
                0x00027ece        0x4 zephyr/libzephyr.a(shell_cmds.c.obj)
 .rodata.cmd.9598
                0x00027ed2        0x5 zephyr/libzephyr.a(shell_cmds.c.obj)
 .rodata.cmd.9668
                0x00027ed7        0x6 zephyr/libzephyr.a(shell_cmds.c.obj)
 .rodata.cmd_get_terminal_size.9572
                0x00027edd        0x5 zephyr/libzephyr.a(shell_cmds.c.obj)
 .rodata.shell_wildcard_process.str1.1
                0x00027ee2       0x52 zephyr/libzephyr.a(shell_wildcard.c.obj)
 .rodata.str1.1
                0x00027f34        0x6 zephyr/libzephyr.a(power.c.obj)
 .rodata.sys_reboot.str1.1
                0x00027f3a       0x29 zephyr/libzephyr.a(reboot.c.obj)
 .rodata.uart_console_init.str1.1
                0x00027f63        0x7 zephyr/libzephyr.a(uart_console.c.obj)
 .rodata.cmd_status.str1.1
                0x00027f63       0x78 zephyr/libzephyr.a(clock_control_nrf.c.obj)
                                 0x79 (size before relaxing)
 .rodata.str1.1
                0x00027fdb       0x43 zephyr/libzephyr.a(clock_control_nrf.c.obj)
                                 0x58 (size before relaxing)
 .rodata.str1.1
                0x0002801e        0xa zephyr/libzephyr.a(sys_clock_init.c.obj)
 .rodata.z_arm_fatal_error.str1.1
                0x00028028       0x9b zephyr/arch/arch/arm/core/aarch32/libarch__arm__core__aarch32.a(fatal.c.obj)
 .rodata.usage_fault.isra.0.str1.1
                0x000280c3       0xf7 zephyr/arch/arch/arm/core/aarch32/cortex_m/libarch__arm__core__aarch32__cortex_m.a(fault.c.obj)
 .rodata.mem_manage_fault.isra.0.str1.1
                0x000281ba       0xd8 zephyr/arch/arch/arm/core/aarch32/cortex_m/libarch__arm__core__aarch32__cortex_m.a(fault.c.obj)
 .rodata.bus_fault.isra.0.str1.1
                0x00028292       0x88 zephyr/arch/arch/arm/core/aarch32/cortex_m/libarch__arm__core__aarch32__cortex_m.a(fault.c.obj)
 .rodata.z_arm_fault.str1.1
                0x0002831a       0xf1 zephyr/arch/arch/arm/core/aarch32/cortex_m/libarch__arm__core__aarch32__cortex_m.a(fault.c.obj)
 .rodata.str1.1
                0x0002840b        0x4 zephyr/arch/arch/arm/core/aarch32/cortex_m/mpu/libarch__arm__core__aarch32__cortex_m__mpu.a(arm_core_mpu.c.obj)
 .rodata.region_allocate_and_init.str1.1
                0x0002840f       0x26 zephyr/arch/arch/arm/core/aarch32/cortex_m/mpu/libarch__arm__core__aarch32__cortex_m__mpu.a(arm_mpu.c.obj)
 .rodata.mpu_configure_regions_and_partition.constprop.0.str1.1
                0x00028435       0x46 zephyr/arch/arch/arm/core/aarch32/cortex_m/mpu/libarch__arm__core__aarch32__cortex_m__mpu.a(arm_mpu.c.obj)
 .rodata.str1.1
                0x0002847b        0xf zephyr/soc/arm/common/cortex_m/libsoc__arm__common__cortex_m.a(arm_mpu_regions.c.obj)
 .rodata.str1.1
                0x0002848a        0x7 zephyr/drivers/gpio/libdrivers__gpio.a(gpio_nrfx.c.obj)
 .rodata.uarte_instance_init.isra.0.str1.1
                0x00028491       0x1f zephyr/drivers/serial/libdrivers__serial.a(uart_nrfx_uarte.c.obj)
 .rodata.str1.1
                0x000284b0       0x17 zephyr/drivers/serial/libdrivers__serial.a(uart_nrfx_uarte.c.obj)
                                 0x1e (size before relaxing)
 .rodata.k_sys_fatal_error_handler.str1.1
                0x000284c7       0x11 modules/nrf/lib/fatal_error/lib..__nrf__lib__fatal_error.a(fatal_error.c.obj)
 .rodata.str1.1
                0x000284d8        0xc modules/nrf/lib/fatal_error/lib..__nrf__lib__fatal_error.a(fatal_error.c.obj)
 .rodata.check_ext_api_requests.str1.1
                0x000284e4       0x5c modules/nrf/subsys/fw_info/lib..__nrf__subsys__fw_info.a(fw_info.c.obj)
 .rodata.z_fatal_error.str1.1
                0x00028540       0x77 zephyr/kernel/libkernel.a(fatal.c.obj)
 .rodata.str1.1
                0x000285b7       0x4a zephyr/kernel/libkernel.a(fatal.c.obj)
 .rodata.z_cstart.str1.1
                0x00028601        0xf zephyr/kernel/libkernel.a(init.c.obj)
 .rodata.str1.1
                0x00028610        0x3 zephyr/kernel/libkernel.a(init.c.obj)
 .rodata.k_thread_state_str.str1.1
                0x00028613       0x36 zephyr/kernel/libkernel.a(thread.c.obj)
                                 0x3f (size before relaxing)
 *(SORT_BY_ALIGNMENT(.gnu.linkonce.r.*))
                0x0002864c                . = ALIGN (0x4)
 *fill*         0x00028649        0x3 
                0x0002864c                _fw_info_images_start = .
 *(SORT_BY_ALIGNMENT(.fw_info_images))
 .fw_info_images
                0x0002864c        0x4 modules/nrf/subsys/fw_info/lib..__nrf__subsys__fw_info.a(fw_info.c.obj)
                0x0002864c                self_image
                0x00000001                _fw_info_images_size = ABSOLUTE (((. - _fw_info_images_start) / 0x4))
                0x00028650                _ext_apis_start = .
 *(SORT_BY_ALIGNMENT(.ext_apis))
                0x00000000                _ext_apis_size = ABSOLUTE ((. - _ext_apis_start))
                0x00028650                _ext_apis_req_start = .
 *(SORT_BY_ALIGNMENT(.ext_apis_req))
                0x00000000                _ext_apis_req_size = ABSOLUTE ((. - _ext_apis_req_start))
                0x00028650                . = ALIGN (0x4)
                0x00028650                _image_rodata_end = .
                0x00028660                . = ALIGN (_region_min_align)
                0x00028660                _image_rom_end = .
                0x20010000                . = 0x20010000
                0x20010000                . = ALIGN (_region_min_align)
                0x20010000                _image_ram_start = .

.ramfunc        0x20010000        0x0 load address 0x00028650
                0x20010000                . = ALIGN (_region_min_align)
                0x20010000                _ramfunc_ram_start = .
 *(SORT_BY_ALIGNMENT(.ramfunc))
 *(SORT_BY_ALIGNMENT(.ramfunc.*))
                0x20010000                . = ALIGN (_region_min_align)
                0x20010000                _ramfunc_ram_end = .
                0x00000000                _ramfunc_ram_size = (_ramfunc_ram_end - _ramfunc_ram_start)
                0x00028650                _ramfunc_rom_start = LOADADDR (.ramfunc)

datas           0x20010000       0xe0 load address 0x00028650
                0x20010000                __data_ram_start = .
 *(SORT_BY_ALIGNMENT(.data))
 *(SORT_BY_ALIGNMENT(.data.*))
 .data._char_out
                0x20010000        0x4 zephyr/libzephyr.a(printk.c.obj)
                0x20010000                _char_out
 .data.timestamp_func
                0x20010004        0x4 zephyr/libzephyr.a(log_core.c.obj)
 .data.shell_transport_uart
                0x20010008        0x8 zephyr/libzephyr.a(shell_uart.c.obj)
                0x20010008                shell_transport_uart
 .data.shell_transport_uart_rx_ringbuf
                0x20010010       0x1c zephyr/libzephyr.a(shell_uart.c.obj)
                0x20010010                shell_transport_uart_rx_ringbuf
 .data.shell_transport_uart_tx_ringbuf
                0x2001002c       0x1c zephyr/libzephyr.a(shell_uart.c.obj)
                0x2001002c                shell_transport_uart_tx_ringbuf
 .data.shell_uart_fprintf_shell_fprintf_ctx
                0x20010048        0x8 zephyr/libzephyr.a(shell_uart.c.obj)
 .data.shell_uart_history
                0x20010050       0x10 zephyr/libzephyr.a(shell_uart.c.obj)
 .data.shell_uart_history_ring_buf
                0x20010060       0x1c zephyr/libzephyr.a(shell_uart.c.obj)
 .data._stdout_hook
                0x2001007c        0x4 zephyr/lib/libc/minimal/liblib__libc__minimal.a(stdout_console.c.obj)
 .data.uarte0_int_driven
                0x20010080       0x14 zephyr/drivers/serial/libdrivers__serial.a(uart_nrfx_uarte.c.obj)
 .data.uarte1_int_driven
                0x20010094       0x14 zephyr/drivers/serial/libdrivers__serial.a(uart_nrfx_uarte.c.obj)
 .data.uarte_0_data
                0x200100a8       0x14 zephyr/drivers/serial/libdrivers__serial.a(uart_nrfx_uarte.c.obj)
 .data.uarte_1_data
                0x200100bc       0x14 zephyr/drivers/serial/libdrivers__serial.a(uart_nrfx_uarte.c.obj)
 .data.SystemCoreClock
                0x200100d0        0x4 modules/nordic/lib..__modules__hal__nordic.a(system_nrf9160.c.obj)
                0x200100d0                SystemCoreClock
 .data.timeout_list
                0x200100d4        0x8 zephyr/kernel/libkernel.a(timeout.c.obj)
 .data._heap_mem_pool
                0x200100dc        0x4 zephyr/kernel/libkernel.a(mempool.c.obj)
                0x200100dc                _heap_mem_pool
 *(SORT_BY_ALIGNMENT(.kernel.*))
                0x00028650                __data_rom_start = LOADADDR (datas)

devices         0x200100e0       0x54 load address 0x00028730
                0x200100e0                __device_start = .
                0x200100e0                __device_PRE_KERNEL_1_start = .
 *(SORT_BY_NAME(SORT_BY_ALIGNMENT(.device_PRE_KERNEL_1[0-9]*)))
 .device_PRE_KERNEL_150
                0x200100e0       0x10 zephyr/libzephyr.a(clock_control_nrf.c.obj)
 .device_PRE_KERNEL_150
                0x200100f0       0x20 zephyr/drivers/serial/libdrivers__serial.a(uart_nrfx_uarte.c.obj)
 *(SORT_BY_NAME(SORT_BY_ALIGNMENT(.device_PRE_KERNEL_1[1-9][0-9]*)))
                0x20010110                __device_PRE_KERNEL_2_start = .
 *(SORT_BY_NAME(SORT_BY_ALIGNMENT(.device_PRE_KERNEL_2[0-9]*)))
 .device_PRE_KERNEL_20
                0x20010110       0x10 zephyr/libzephyr.a(sys_clock_init.c.obj)
 *(SORT_BY_NAME(SORT_BY_ALIGNMENT(.device_PRE_KERNEL_2[1-9][0-9]*)))
                0x20010120                __device_POST_KERNEL_start = .
 *(SORT_BY_NAME(SORT_BY_ALIGNMENT(.device_POST_KERNEL[0-9]*)))
 .device_POST_KERNEL40
                0x20010120       0x10 zephyr/drivers/gpio/libdrivers__gpio.a(gpio_nrfx.c.obj)
 *(SORT_BY_NAME(SORT_BY_ALIGNMENT(.device_POST_KERNEL[1-9][0-9]*)))
                0x20010130                __device_APPLICATION_start = .
 *(SORT_BY_NAME(SORT_BY_ALIGNMENT(.device_APPLICATION[0-9]*)))
 *(SORT_BY_NAME(SORT_BY_ALIGNMENT(.device_APPLICATION[1-9][0-9]*)))
                0x20010130                __device_SMP_start = .
 *(SORT_BY_NAME(SORT_BY_ALIGNMENT(.device_SMP[0-9]*)))
 *(SORT_BY_NAME(SORT_BY_ALIGNMENT(.device_SMP[1-9][0-9]*)))
                0x20010130                __device_end = .
 FILL mask 0x00
                0x20010130                __device_init_status_start = .
                0x20010134                . = (. + (((((__device_end - __device_start) / 0x10) + 0x1f) / 0x20) * 0x4))
 *fill*         0x20010130        0x4 00
                0x20010134                __device_init_status_end = .

initshell       0x20010134        0x0 load address 0x00028784
                0x20010134                __shell_module_start = .
 *(SORT_BY_ALIGNMENT(.shell_module_*))
                0x20010134                __shell_module_end = .
                0x20010134                __shell_cmd_start = .
 *(SORT_BY_ALIGNMENT(.shell_cmd_*))
                0x20010134                __shell_cmd_end = .

log_dynamic_sections
                0x20010134       0x30 load address 0x00028784
                0x20010134                __log_dynamic_start = .
 *(SORT_BY_NAME(SORT_BY_ALIGNMENT(.log_dynamic_*)))
 .log_dynamic_app
                0x20010134        0x4 app/libapp.a(main.c.obj)
                0x20010134                log_dynamic_app
 .log_dynamic_app_test
                0x20010138        0x4 app/libapp.a(test_module.c.obj)
                0x20010138                log_dynamic_app_test
 .log_dynamic_clock_control
                0x2001013c        0x4 zephyr/libzephyr.a(clock_control_nrf.c.obj)
                0x2001013c                log_dynamic_clock_control
 .log_dynamic_fatal_error
                0x20010140        0x4 modules/nrf/lib/fatal_error/lib..__nrf__lib__fatal_error.a(fatal_error.c.obj)
                0x20010140                log_dynamic_fatal_error
 .log_dynamic_log
                0x20010144        0x4 zephyr/libzephyr.a(log_core.c.obj)
                0x20010144                log_dynamic_log
 .log_dynamic_mpu
                0x20010148        0x4 zephyr/arch/arch/arm/core/aarch32/cortex_m/mpu/libarch__arm__core__aarch32__cortex_m__mpu.a(arm_core_mpu.c.obj)
                0x20010148                log_dynamic_mpu
 .log_dynamic_os
                0x2001014c        0x4 zephyr/kernel/libkernel.a(init.c.obj)
                0x2001014c                log_dynamic_os
 .log_dynamic_power
                0x20010150        0x4 zephyr/libzephyr.a(power.c.obj)
                0x20010150                log_dynamic_power
 .log_dynamic_shell_shell_uart
                0x20010154        0x4 zephyr/libzephyr.a(shell_uart.c.obj)
                0x20010154                log_dynamic_shell_shell_uart
 .log_dynamic_shell_uart
                0x20010158        0x4 zephyr/libzephyr.a(shell_uart.c.obj)
                0x20010158                log_dynamic_shell_uart
 .log_dynamic_soc
                0x2001015c        0x4 zephyr/libzephyr.a(soc.c.obj)
                0x2001015c                log_dynamic_soc
 .log_dynamic_uart_nrfx_uarte
                0x20010160        0x4 zephyr/drivers/serial/libdrivers__serial.a(uart_nrfx_uarte.c.obj)
                0x20010160                log_dynamic_uart_nrfx_uarte
                0x20010164                __log_dynamic_end = .

_static_thread_data_area
                0x20010164        0x0 load address 0x000287b4
                0x20010164                __static_thread_data_list_start = .
 *(SORT_BY_NAME(SORT_BY_ALIGNMENT(.__static_thread_data.static.*)))
                0x20010164                __static_thread_data_list_end = .

k_timer_area    0x20010168       0x38 load address 0x000287b8
                0x20010168                _k_timer_list_start = .
 *(SORT_BY_NAME(SORT_BY_ALIGNMENT(._k_timer.static.*)))
 ._k_timer.static.my_timer
                0x20010168       0x38 app/libapp.a(main.c.obj)
                0x20010168                my_timer
                0x200101a0                _k_timer_list_end = .

k_mem_slab_area
                0x200101a0        0x0 load address 0x000287f0
                0x200101a0                _k_mem_slab_list_start = .
 *(SORT_BY_NAME(SORT_BY_ALIGNMENT(._k_mem_slab.static.*)))
                0x200101a0                _k_mem_slab_list_end = .

k_mem_pool_area
                0x200101a0        0x0 load address 0x000287f0
                0x200101a0                _k_mem_pool_list_start = .
 *(SORT_BY_NAME(SORT_BY_ALIGNMENT(._k_mem_pool.static.*)))
                0x200101a0                _k_mem_pool_list_end = .

k_heap_area     0x200101a0       0x14 load address 0x000287f0
                0x200101a0                _k_heap_list_start = .
 *(SORT_BY_NAME(SORT_BY_ALIGNMENT(._k_heap.static.*)))
 ._k_heap.static.poolheap__heap_mem_pool
                0x200101a0       0x14 zephyr/kernel/libkernel.a(mempool.c.obj)
                0x200101a0                poolheap__heap_mem_pool
                0x200101b4                _k_heap_list_end = .

k_mutex_area    0x200101b4        0x0 load address 0x00028804
                0x200101b4                _k_mutex_list_start = .
 *(SORT_BY_NAME(SORT_BY_ALIGNMENT(._k_mutex.static.*)))
                0x200101b4                _k_mutex_list_end = .

k_stack_area    0x200101b4        0x0 load address 0x00028804
                0x200101b4                _k_stack_list_start = .
 *(SORT_BY_NAME(SORT_BY_ALIGNMENT(._k_stack.static.*)))
                0x200101b4                _k_stack_list_end = .

k_msgq_area     0x200101b4       0x28 load address 0x00028804
                0x200101b4                _k_msgq_list_start = .
 *(SORT_BY_NAME(SORT_BY_ALIGNMENT(._k_msgq.static.*)))
 ._k_msgq.static.shell_uart_msgq
                0x200101b4       0x28 zephyr/libzephyr.a(shell_uart.c.obj)
                0x200101b4                shell_uart_msgq
                0x200101dc                _k_msgq_list_end = .

k_mbox_area     0x200101dc        0x0 load address 0x0002882c
                0x200101dc                _k_mbox_list_start = .
 *(SORT_BY_NAME(SORT_BY_ALIGNMENT(._k_mbox.static.*)))
                0x200101dc                _k_mbox_list_end = .

k_pipe_area     0x200101dc        0x0 load address 0x0002882c
                0x200101dc                _k_pipe_list_start = .
 *(SORT_BY_NAME(SORT_BY_ALIGNMENT(._k_pipe.static.*)))
                0x200101dc                _k_pipe_list_end = .

k_sem_area      0x200101dc       0x18 load address 0x0002882c
                0x200101dc                _k_sem_list_start = .
 *(SORT_BY_NAME(SORT_BY_ALIGNMENT(._k_sem.static.*)))
 ._k_sem.static.log_process_thread_sem
                0x200101dc       0x18 zephyr/libzephyr.a(log_core.c.obj)
                0x200101dc                log_process_thread_sem
                0x200101f4                _k_sem_list_end = .

k_queue_area    0x200101f4        0x0 load address 0x00028844
                0x200101f4                _k_queue_list_start = .
 *(SORT_BY_NAME(SORT_BY_ALIGNMENT(._k_queue.static.*)))
                0x200101f4                _k_queue_list_end = .

_net_buf_pool_area
                0x200101f4        0x0 load address 0x00028844
                0x200101f4                _net_buf_pool_list = .
 *(SORT_BY_NAME(SORT_BY_ALIGNMENT(._net_buf_pool.static.*)))
                0x200101f4                __data_ram_end = .

bss             0x200101f8     0xeac8
                0x200101f8                . = ALIGN (0x4)
                0x200101f8                __bss_start = .
                0x200101f8                __kernel_ram_start = .
 *(SORT_BY_ALIGNMENT(.bss))
 *(SORT_BY_ALIGNMENT(.bss.*))
 .bss.hash      0x200101f8      0x120 app/libapp.a(main.c.obj)
                0x200101f8                hash
 .bss.pk2       0x20010318       0x60 app/libapp.a(main.c.obj)
                0x20010318                pk2
 .bss.sig2      0x20010378       0xc0 app/libapp.a(main.c.obj)
                0x20010378                sig2
 .bss.log_process_thread_timer
                0x20010438       0x38 zephyr/libzephyr.a(log_core.c.obj)
 .bss.logging_thread
                0x20010470       0xb8 zephyr/libzephyr.a(log_core.c.obj)
                0x20010470                logging_thread
 .bss.shell_uart_thread
                0x20010528       0xb8 zephyr/libzephyr.a(shell_uart.c.obj)
 .bss.hf_start_tstamp
                0x200105e0        0x8 zephyr/libzephyr.a(clock_control_nrf.c.obj)
 .bss.hf_stop_tstamp
                0x200105e8        0x8 zephyr/libzephyr.a(clock_control_nrf.c.obj)
 .bss.rt_clock_base
                0x200105f0       0x10 zephyr/lib/posix/liblib__posix.a(clock.c.obj)
 .bss.z_idle_threads
                0x20010600       0xb8 zephyr/kernel/libkernel.a(init.c.obj)
                0x20010600                z_idle_threads
 .bss.z_main_thread
                0x200106b8       0xb8 zephyr/kernel/libkernel.a(init.c.obj)
                0x200106b8                z_main_thread
 .bss.curr_tick
                0x20010770        0x8 zephyr/kernel/libkernel.a(timeout.c.obj)
 .bss.keys_counter
                0x20010778        0x4 app/libapp.a(main.c.obj)
                0x20010778                keys_counter
 .bss.buffered_cnt
                0x2001077c        0x4 zephyr/libzephyr.a(log_core.c.obj)
 .bss.dropped_cnt
                0x20010780        0x4 zephyr/libzephyr.a(log_core.c.obj)
 .bss.initialized
                0x20010784        0x4 zephyr/libzephyr.a(log_core.c.obj)
 .bss.list      0x20010788        0x8 zephyr/libzephyr.a(log_core.c.obj)
 .bss.log_strdup_pool
                0x20010790       0x1c zephyr/libzephyr.a(log_core.c.obj)
                0x20010790                log_strdup_pool
 .bss.proc_tid  0x200107ac        0x4 zephyr/libzephyr.a(log_core.c.obj)
 .bss.log_msg_pool
                0x200107b0       0x1c zephyr/libzephyr.a(log_msg.c.obj)
                0x200107b0                log_msg_pool
 .bss.freq      0x200107cc        0x4 zephyr/libzephyr.a(log_output.c.obj)
 .bss.timestamp_div
                0x200107d0        0x4 zephyr/libzephyr.a(log_output.c.obj)
 .bss.backend_cb_shell_uart_backend
                0x200107d4        0x8 zephyr/libzephyr.a(shell_uart.c.obj)
 .bss.shell_transport_uart_ctrl_blk
                0x200107dc       0x14 zephyr/libzephyr.a(shell_uart.c.obj)
 .bss.shell_uart_control_block
                0x200107f0        0x8 zephyr/libzephyr.a(shell_uart.c.obj)
 .bss.shell_uart_ctx
                0x200107f8      0x304 zephyr/libzephyr.a(shell_uart.c.obj)
 .bss.shell_uart_log_output_control_block
                0x20010afc        0xc zephyr/libzephyr.a(shell_uart.c.obj)
 .bss.shell_uart_stats
                0x20010b08        0x4 zephyr/libzephyr.a(shell_uart.c.obj)
 .bss.uart_console_dev
                0x20010b0c        0x4 zephyr/libzephyr.a(uart_console.c.obj)
 .bss.cli.10057
                0x20010b10       0x10 zephyr/libzephyr.a(clock_control_nrf.c.obj)
 .bss.data      0x20010b20       0x50 zephyr/libzephyr.a(clock_control_nrf.c.obj)
 .bss.hfclk_users
                0x20010b70        0x4 zephyr/libzephyr.a(clock_control_nrf.c.obj)
 .bss.on.10056  0x20010b74        0x4 zephyr/libzephyr.a(clock_control_nrf.c.obj)
 .bss.last_count
                0x20010b78        0x4 zephyr/libzephyr.a(nrf_rtc_timer.c.obj)
 .bss.dyn_reg_info
                0x20010b7c       0x14 zephyr/arch/arch/arm/core/aarch32/cortex_m/mpu/libarch__arm__core__aarch32__cortex_m__mpu.a(arm_mpu.c.obj)
 .bss.gpio_nrfx_p0_data
                0x20010b90       0x1c zephyr/drivers/gpio/libdrivers__gpio.a(gpio_nrfx.c.obj)
 .bss.gpiote_alloc_mask
                0x20010bac        0x4 zephyr/drivers/gpio/libdrivers__gpio.a(gpio_nrfx.c.obj)
 .bss.m_clock_cb
                0x20010bb0        0x8 modules/nordic/lib..__modules__hal__nordic.a(nrfx_clock.c.obj)
 .bss.m_allocated_channels
                0x20010bb8        0x4 modules/nordic/lib..__modules__hal__nordic.a(nrfx_dppi.c.obj)
 .bss._kernel   0x20010bbc       0x38 zephyr/kernel/libkernel.a(sched.c.obj)
                0x20010bbc                _kernel
 .bss.pending_current
                0x20010bf4        0x4 zephyr/kernel/libkernel.a(sched.c.obj)
 .bss.slice_max_prio
                0x20010bf8        0x4 zephyr/kernel/libkernel.a(sched.c.obj)
 .bss.slice_time
                0x20010bfc        0x4 zephyr/kernel/libkernel.a(sched.c.obj)
 .bss.announce_remaining
                0x20010c00        0x4 zephyr/kernel/libkernel.a(timeout.c.obj)
 .bss.kheap_poolheap__heap_mem_pool
                0x20010c04     0xd83c zephyr/kernel/libkernel.a(mempool.c.obj)
                0x20010c04                kheap_poolheap__heap_mem_pool
 .bss.msg_bin   0x2001e440       0x20 app/libapp.a(main.c.obj)
                0x2001e440                msg_bin
 .bss.public_keys_hex_store
                0x2001e460      0x3c0 app/libapp.a(main.c.obj)
                0x2001e460                public_keys_hex_store
 .bss.secret_keys_store
                0x2001e820      0x140 app/libapp.a(main.c.obj)
                0x2001e820                secret_keys_store
 .bss.sk        0x2001e960       0x20 app/libapp.a(main.c.obj)
                0x2001e960                sk
 .bss.dynamic_cmd_buffer
                0x2001e980      0x294 app/libapp.a(dynamic_cmd.c.obj)
 .bss.dynamic_cmd_cnt
                0x2001ec14        0x1 app/libapp.a(dynamic_cmd.c.obj)
 .bss.backend_attached
                0x2001ec15        0x1 zephyr/libzephyr.a(log_core.c.obj)
 .bss.panic_mode
                0x2001ec16        0x1 zephyr/libzephyr.a(log_core.c.obj)
 .bss._ring_buffer_data_shell_transport_uart_rx_ringbuf
                0x2001ec17       0x40 zephyr/libzephyr.a(shell_uart.c.obj)
 .bss._ring_buffer_data_shell_transport_uart_tx_ringbuf
                0x2001ec57        0x8 zephyr/libzephyr.a(shell_uart.c.obj)
 .bss.shell_uart_out_buffer
                0x2001ec5f       0x1e zephyr/libzephyr.a(shell_uart.c.obj)
 .bss.static_regions_num
                0x2001ec7d        0x1 zephyr/arch/arch/arm/core/aarch32/cortex_m/mpu/libarch__arm__core__aarch32__cortex_m__mpu.a(arm_mpu.c.obj)
 .bss.gpio_initialized.9607
                0x2001ec7e        0x1 zephyr/drivers/gpio/libdrivers__gpio.a(gpio_nrfx.c.obj)
 .bss.uarte0_tx_buffer
                0x2001ec7f       0x20 zephyr/drivers/serial/libdrivers__serial.a(uart_nrfx_uarte.c.obj)
 .bss.uarte1_tx_buffer
                0x2001ec9f       0x20 zephyr/drivers/serial/libdrivers__serial.a(uart_nrfx_uarte.c.obj)
 .bss.z_sys_post_kernel
                0x2001ecbf        0x1 zephyr/kernel/libkernel.a(init.c.obj)
                0x2001ecbf                z_sys_post_kernel
 .bss.lock      0x2001ecc0        0x0 zephyr/kernel/libkernel.a(mem_slab.c.obj)
 .bss.lock      0x2001ecc0        0x0 zephyr/kernel/libkernel.a(mutex.c.obj)
 .bss.sched_spinlock
                0x2001ecc0        0x0 zephyr/kernel/libkernel.a(sched.c.obj)
 .bss.lock      0x2001ecc0        0x0 zephyr/kernel/libkernel.a(sem.c.obj)
 .bss.lock      0x2001ecc0        0x0 zephyr/kernel/libkernel.a(poll.c.obj)
 *(SORT_BY_ALIGNMENT(COMMON))
 *(SORT_BY_ALIGNMENT(.kernel_bss.*))
                0x2001ecc0                __bss_end = ALIGN (0x4)

noinit          0x2001ecc0     0xe330
 *(SORT_BY_ALIGNMENT(.noinit))
 *(SORT_BY_ALIGNMENT(.noinit.*))
 .noinit."WEST_TOPDIR/zephyr/subsys/logging/log_core.c".1
                0x2001ecc0      0x300 zephyr/libzephyr.a(log_core.c.obj)
                0x2001ecc0                logging_stack
 .noinit."WEST_TOPDIR/zephyr/subsys/shell/shell_uart.c".2
                0x2001efc0     0xc000 zephyr/libzephyr.a(shell_uart.c.obj)
 .noinit."WEST_TOPDIR/zephyr/kernel/init.c".2
                0x2002afc0     0x1000 zephyr/kernel/libkernel.a(init.c.obj)
                0x2002afc0                z_main_stack
 .noinit."WEST_TOPDIR/zephyr/kernel/init.c".3
                0x2002bfc0      0x140 zephyr/kernel/libkernel.a(init.c.obj)
 .noinit."WEST_TOPDIR/zephyr/kernel/init.c".4
                0x2002c100      0x800 zephyr/kernel/libkernel.a(init.c.obj)
                0x2002c100                z_interrupt_stacks
 .noinit."WEST_TOPDIR/zephyr/subsys/logging/log_core.c".0
                0x2002c900       0xa0 zephyr/libzephyr.a(log_core.c.obj)
 .noinit."WEST_TOPDIR/zephyr/subsys/logging/log_msg.c".0
                0x2002c9a0      0x400 zephyr/libzephyr.a(log_msg.c.obj)
 .noinit."WEST_TOPDIR/zephyr/subsys/shell/shell_uart.c".0
                0x2002cda0       0x50 zephyr/libzephyr.a(shell_uart.c.obj)
 .noinit."WEST_TOPDIR/zephyr/subsys/shell/shell_uart.c".1
                0x2002cdf0      0x200 zephyr/libzephyr.a(shell_uart.c.obj)
 *(SORT_BY_ALIGNMENT(.kernel_noinit.*))
                0x2002cff0                _image_ram_end = .
                0x2002cff0                _end = .
                0x20040000                __kernel_ram_end = 0x20040000
                0x0002fe08                __kernel_ram_size = (__kernel_ram_end - __kernel_ram_start)

.stab
 *(SORT_BY_ALIGNMENT(.stab))

.stabstr
 *(SORT_BY_ALIGNMENT(.stabstr))

.stab.excl
 *(SORT_BY_ALIGNMENT(.stab.excl))

.stab.exclstr
 *(SORT_BY_ALIGNMENT(.stab.exclstr))

.stab.index
 *(SORT_BY_ALIGNMENT(.stab.index))

.stab.indexstr
 *(SORT_BY_ALIGNMENT(.stab.indexstr))

.gnu.build.attributes
 *(SORT_BY_ALIGNMENT(.gnu.build.attributes) SORT_BY_ALIGNMENT(.gnu.build.attributes.*))

.comment        0x00000000       0xc6
 *(SORT_BY_ALIGNMENT(.comment))
 .comment       0x00000000       0x79 zephyr/CMakeFiles/zephyr_final.dir/isr_tables.c.obj
                                 0x7a (size before relaxing)
 .comment       0x00000079       0x7a app/libapp.a(main.c.obj)
 .comment       0x00000079       0x7a app/libapp.a(test_module.c.obj)
 .comment       0x00000079       0x7a app/libapp.a(dynamic_cmd.c.obj)
 .comment       0x00000079       0x7a app/libapp.a(qsort.c.obj)
 .comment       0x00000079       0x7a zephyr/libzephyr.a(fnmatch.c.obj)
 .comment       0x00000079       0x7a zephyr/libzephyr.a(hex.c.obj)
 .comment       0x00000079       0x7a zephyr/libzephyr.a(notify.c.obj)
 .comment       0x00000079       0x7a zephyr/libzephyr.a(printk.c.obj)
 .comment       0x00000079       0x7a zephyr/libzephyr.a(onoff.c.obj)
 .comment       0x00000079       0x7a zephyr/libzephyr.a(thread_entry.c.obj)
 .comment       0x00000079       0x7a zephyr/libzephyr.a(timeutil.c.obj)
 .comment       0x00000079       0x7a zephyr/libzephyr.a(heap.c.obj)
 .comment       0x00000079       0x7a zephyr/libzephyr.a(cbprintf_complete.c.obj)
 .comment       0x00000079       0x7a zephyr/libzephyr.a(ring_buffer.c.obj)
 .comment       0x00000079       0x7a zephyr/libzephyr.a(configs.c.obj)
 .comment       0x00000079       0x7a zephyr/libzephyr.a(soc.c.obj)
 .comment       0x00000079       0x7a zephyr/libzephyr.a(log_list.c.obj)
 .comment       0x00000079       0x7a zephyr/libzephyr.a(log_core.c.obj)
 .comment       0x00000079       0x7a zephyr/libzephyr.a(log_msg.c.obj)
 .comment       0x00000079       0x7a zephyr/libzephyr.a(log_output.c.obj)
 .comment       0x00000079       0x7a zephyr/libzephyr.a(log_cmds.c.obj)
 .comment       0x00000079       0x7a zephyr/libzephyr.a(kernel_service.c.obj)
 .comment       0x00000079       0x7a zephyr/libzephyr.a(device_service.c.obj)
 .comment       0x00000079       0x7a zephyr/libzephyr.a(date_service.c.obj)
 .comment       0x00000079       0x7a zephyr/libzephyr.a(shell.c.obj)
 .comment       0x00000079       0x7a zephyr/libzephyr.a(shell_fprintf.c.obj)
 .comment       0x00000079       0x7a zephyr/libzephyr.a(shell_utils.c.obj)
 .comment       0x00000079       0x7a zephyr/libzephyr.a(shell_ops.c.obj)
 .comment       0x00000079       0x7a zephyr/libzephyr.a(shell_uart.c.obj)
 .comment       0x00000079       0x7a zephyr/libzephyr.a(shell_help.c.obj)
 .comment       0x00000079       0x7a zephyr/libzephyr.a(shell_cmds.c.obj)
 .comment       0x00000079       0x7a zephyr/libzephyr.a(shell_history.c.obj)
 .comment       0x00000079       0x7a zephyr/libzephyr.a(shell_log_backend.c.obj)
 .comment       0x00000079       0x7a zephyr/libzephyr.a(shell_wildcard.c.obj)
 .comment       0x00000079       0x7a zephyr/libzephyr.a(power.c.obj)
 .comment       0x00000079       0x7a zephyr/libzephyr.a(reboot.c.obj)
 .comment       0x00000079       0x7a zephyr/libzephyr.a(uart_console.c.obj)
 .comment       0x00000079       0x7a zephyr/libzephyr.a(clock_control_nrf.c.obj)
 .comment       0x00000079       0x7a zephyr/libzephyr.a(sys_clock_init.c.obj)
 .comment       0x00000079       0x7a zephyr/libzephyr.a(nrf_rtc_timer.c.obj)
 .comment       0x00000079       0x7a zephyr/libzephyr.a(secure_services_ns.c.obj)
 .comment       0x00000079       0x7a zephyr/arch/arch/arm/core/aarch32/libarch__arm__core__aarch32.a(swap.c.obj)
 .comment       0x00000079       0x7a zephyr/arch/arch/arm/core/aarch32/libarch__arm__core__aarch32.a(irq_manage.c.obj)
 .comment       0x00000079       0x7a zephyr/arch/arch/arm/core/aarch32/libarch__arm__core__aarch32.a(thread.c.obj)
 .comment       0x00000079       0x7a zephyr/arch/arch/arm/core/aarch32/libarch__arm__core__aarch32.a(fatal.c.obj)
 .comment       0x00000079       0x7a zephyr/arch/arch/arm/core/aarch32/libarch__arm__core__aarch32.a(nmi.c.obj)
 .comment       0x00000079       0x7a zephyr/arch/arch/arm/core/aarch32/libarch__arm__core__aarch32.a(prep_c.c.obj)
 .comment       0x00000079       0x7a zephyr/arch/arch/arm/core/aarch32/cortex_m/libarch__arm__core__aarch32__cortex_m.a(fault.c.obj)
 .comment       0x00000079       0x7a zephyr/arch/arch/arm/core/aarch32/cortex_m/libarch__arm__core__aarch32__cortex_m.a(scb.c.obj)
 .comment       0x00000079       0x7a zephyr/arch/arch/arm/core/aarch32/cortex_m/libarch__arm__core__aarch32__cortex_m.a(irq_init.c.obj)
 .comment       0x00000079       0x7a zephyr/arch/arch/arm/core/aarch32/cortex_m/libarch__arm__core__aarch32__cortex_m.a(thread_abort.c.obj)
 .comment       0x00000079       0x7a zephyr/arch/arch/arm/core/aarch32/cortex_m/mpu/libarch__arm__core__aarch32__cortex_m__mpu.a(arm_core_mpu.c.obj)
 .comment       0x00000079       0x7a zephyr/arch/arch/arm/core/aarch32/cortex_m/mpu/libarch__arm__core__aarch32__cortex_m__mpu.a(arm_mpu.c.obj)
 .comment       0x00000079       0x7a zephyr/arch/arch/arm/core/aarch32/cortex_m/cmse/libarch__arm__core__aarch32__cortex_m__cmse.a(arm_core_cmse.c.obj)
 .comment       0x00000079       0x7a zephyr/lib/libc/minimal/liblib__libc__minimal.a(strtol.c.obj)
 .comment       0x00000079       0x7a zephyr/lib/libc/minimal/liblib__libc__minimal.a(strstr.c.obj)
 .comment       0x00000079       0x7a zephyr/lib/libc/minimal/liblib__libc__minimal.a(string.c.obj)
 .comment       0x00000079       0x7a zephyr/lib/libc/minimal/liblib__libc__minimal.a(stdout_console.c.obj)
 .comment       0x00000079       0x7a zephyr/lib/libc/minimal/liblib__libc__minimal.a(sprintf.c.obj)
 .comment       0x00000079       0x7a zephyr/lib/libc/minimal/liblib__libc__minimal.a(fprintf.c.obj)
 .comment       0x00000079       0x7a zephyr/lib/libc/minimal/liblib__libc__minimal.a(gmtime.c.obj)
 .comment       0x00000079       0x7a zephyr/lib/posix/liblib__posix.a(clock.c.obj)
 .comment       0x00000079       0x7a zephyr/soc/arm/common/cortex_m/libsoc__arm__common__cortex_m.a(arm_mpu_regions.c.obj)
 .comment       0x00000079       0x7a zephyr/drivers/gpio/libdrivers__gpio.a(gpio_nrfx.c.obj)
 .comment       0x00000079       0x7a zephyr/drivers/serial/libdrivers__serial.a(uart_nrfx_uarte.c.obj)
 .comment       0x00000079       0x7a modules/nrf/lib/fatal_error/lib..__nrf__lib__fatal_error.a(fatal_error.c.obj)
 .comment       0x00000079       0x7a modules/nrf/subsys/fw_info/lib..__nrf__subsys__fw_info.a(fw_info.c.obj)
 .comment       0x00000079       0x7a modules/nordic/lib..__modules__hal__nordic.a(system_nrf9160.c.obj)
 .comment       0x00000079       0x7a modules/nordic/lib..__modules__hal__nordic.a(nrfx_glue.c.obj)
 .comment       0x00000079       0x7a modules/nordic/lib..__modules__hal__nordic.a(nrfx_clock.c.obj)
 .comment       0x00000079       0x7a modules/nordic/lib..__modules__hal__nordic.a(nrfx_dppi.c.obj)
 .comment       0x00000079       0x7a zephyr/kernel/libkernel.a(device.c.obj)
 .comment       0x00000079       0x7a zephyr/kernel/libkernel.a(errno.c.obj)
 .comment       0x00000079       0x7a zephyr/kernel/libkernel.a(fatal.c.obj)
 .comment       0x00000079       0x7a zephyr/kernel/libkernel.a(idle.c.obj)
 .comment       0x00000079       0x7a zephyr/kernel/libkernel.a(init.c.obj)
 .comment       0x00000079       0x7a zephyr/kernel/libkernel.a(mem_slab.c.obj)
 .comment       0x00000079       0x7a zephyr/kernel/libkernel.a(msg_q.c.obj)
 .comment       0x00000079       0x7a zephyr/kernel/libkernel.a(mutex.c.obj)
 .comment       0x00000079       0x7a zephyr/kernel/libkernel.a(queue.c.obj)
 .comment       0x00000079       0x7a zephyr/kernel/libkernel.a(sched.c.obj)
 .comment       0x00000079       0x7a zephyr/kernel/libkernel.a(sem.c.obj)
 .comment       0x00000079       0x7a zephyr/kernel/libkernel.a(thread.c.obj)
 .comment       0x00000079       0x7a zephyr/kernel/libkernel.a(thread_abort.c.obj)
 .comment       0x00000079       0x7a zephyr/kernel/libkernel.a(version.c.obj)
 .comment       0x00000079       0x7a zephyr/kernel/libkernel.a(timeout.c.obj)
 .comment       0x00000079       0x7a zephyr/kernel/libkernel.a(timer.c.obj)
 .comment       0x00000079       0x7a zephyr/kernel/libkernel.a(poll.c.obj)
 .comment       0x00000079       0x7a zephyr/kernel/libkernel.a(mempool.c.obj)
 .comment       0x00000079       0x7a zephyr/kernel/libkernel.a(kheap.c.obj)
 .comment       0x00000079       0x7a zephyr/CMakeFiles/offsets.dir/arch/arm/core/offsets/offsets.c.obj
 .comment       0x00000079       0x4d ../mylib/src/libblst.a(server.o)
                                 0x4e (size before relaxing)

.debug
 *(SORT_BY_ALIGNMENT(.debug))

.line
 *(SORT_BY_ALIGNMENT(.line))

.debug_srcinfo
 *(SORT_BY_ALIGNMENT(.debug_srcinfo))

.debug_sfnames
 *(SORT_BY_ALIGNMENT(.debug_sfnames))

.debug_aranges  0x00000000     0x1f38
 *(SORT_BY_ALIGNMENT(.debug_aranges))
 .debug_aranges
                0x00000000       0x28 zephyr/arch/arch/arm/core/aarch32/libarch__arm__core__aarch32.a(swap_helper.S.obj)
 .debug_aranges
                0x00000028       0x30 zephyr/arch/arch/arm/core/aarch32/libarch__arm__core__aarch32.a(cpu_idle.S.obj)
 .debug_aranges
                0x00000058       0x20 zephyr/arch/arch/arm/core/aarch32/libarch__arm__core__aarch32.a(nmi_on_reset.S.obj)
 .debug_aranges
                0x00000078       0x20 zephyr/arch/arch/arm/core/aarch32/libarch__arm__core__aarch32.a(isr_wrapper.S.obj)
 .debug_aranges
                0x00000098       0x20 zephyr/arch/arch/arm/core/aarch32/cortex_m/libarch__arm__core__aarch32__cortex_m.a(reset.S.obj)
 .debug_aranges
                0x000000b8       0x20 zephyr/arch/arch/arm/core/aarch32/cortex_m/libarch__arm__core__aarch32__cortex_m.a(fault_s.S.obj)
 .debug_aranges
                0x000000d8       0x20 zephyr/arch/arch/arm/core/aarch32/cortex_m/libarch__arm__core__aarch32__cortex_m.a(exc_exit.S.obj)
 .debug_aranges
                0x000000f8       0x18 zephyr/CMakeFiles/zephyr_final.dir/isr_tables.c.obj
 .debug_aranges
                0x00000110       0x60 app/libapp.a(main.c.obj)
 .debug_aranges
                0x00000170       0x20 app/libapp.a(test_module.c.obj)
 .debug_aranges
                0x00000190       0x48 app/libapp.a(dynamic_cmd.c.obj)
 .debug_aranges
                0x000001d8       0x30 app/libapp.a(qsort.c.obj)
 .debug_aranges
                0x00000208       0x30 zephyr/libzephyr.a(fnmatch.c.obj)
 .debug_aranges
                0x00000238       0x38 zephyr/libzephyr.a(hex.c.obj)
 .debug_aranges
                0x00000270       0x28 zephyr/libzephyr.a(notify.c.obj)
 .debug_aranges
                0x00000298       0x68 zephyr/libzephyr.a(printk.c.obj)
 .debug_aranges
                0x00000300       0x88 zephyr/libzephyr.a(onoff.c.obj)
 .debug_aranges
                0x00000388       0x20 zephyr/libzephyr.a(thread_entry.c.obj)
 .debug_aranges
                0x000003a8       0x28 zephyr/libzephyr.a(timeutil.c.obj)
 .debug_aranges
                0x000003d0       0x98 zephyr/libzephyr.a(heap.c.obj)
 .debug_aranges
                0x00000468       0x40 zephyr/libzephyr.a(cbprintf_complete.c.obj)
 .debug_aranges
                0x000004a8       0x60 zephyr/libzephyr.a(ring_buffer.c.obj)
 .debug_aranges
                0x00000508       0x20 zephyr/libzephyr.a(configs.c.obj)
 .debug_aranges
                0x00000528       0x30 zephyr/libzephyr.a(soc.c.obj)
 .debug_aranges
                0x00000558       0x38 zephyr/libzephyr.a(log_list.c.obj)
 .debug_aranges
                0x00000590      0x170 zephyr/libzephyr.a(log_core.c.obj)
 .debug_aranges
                0x00000700       0x88 zephyr/libzephyr.a(log_msg.c.obj)
 .debug_aranges
                0x00000788       0x80 zephyr/libzephyr.a(log_output.c.obj)
 .debug_aranges
                0x00000808       0xc8 zephyr/libzephyr.a(log_cmds.c.obj)
 .debug_aranges
                0x000008d0       0x60 zephyr/libzephyr.a(kernel_service.c.obj)
 .debug_aranges
                0x00000930       0x30 zephyr/libzephyr.a(device_service.c.obj)
 .debug_aranges
                0x00000960       0x38 zephyr/libzephyr.a(date_service.c.obj)
 .debug_aranges
                0x00000998       0xe0 zephyr/libzephyr.a(shell.c.obj)
 .debug_aranges
                0x00000a78       0x30 zephyr/libzephyr.a(shell_fprintf.c.obj)
 .debug_aranges
                0x00000aa8       0x98 zephyr/libzephyr.a(shell_utils.c.obj)
 .debug_aranges
                0x00000b40      0x110 zephyr/libzephyr.a(shell_ops.c.obj)
 .debug_aranges
                0x00000c50       0x60 zephyr/libzephyr.a(shell_uart.c.obj)
 .debug_aranges
                0x00000cb0       0x38 zephyr/libzephyr.a(shell_help.c.obj)
 .debug_aranges
                0x00000ce8       0x90 zephyr/libzephyr.a(shell_cmds.c.obj)
 .debug_aranges
                0x00000d78       0x48 zephyr/libzephyr.a(shell_history.c.obj)
 .debug_aranges
                0x00000dc0       0x58 zephyr/libzephyr.a(shell_log_backend.c.obj)
 .debug_aranges
                0x00000e18       0x38 zephyr/libzephyr.a(shell_wildcard.c.obj)
 .debug_aranges
                0x00000e50       0x40 zephyr/libzephyr.a(power.c.obj)
 .debug_aranges
                0x00000e90       0x20 zephyr/libzephyr.a(reboot.c.obj)
 .debug_aranges
                0x00000eb0       0x28 zephyr/libzephyr.a(uart_console.c.obj)
 .debug_aranges
                0x00000ed8       0xe0 zephyr/libzephyr.a(clock_control_nrf.c.obj)
 .debug_aranges
                0x00000fb8       0x40 zephyr/libzephyr.a(sys_clock_init.c.obj)
 .debug_aranges
                0x00000ff8       0x48 zephyr/libzephyr.a(nrf_rtc_timer.c.obj)
 .debug_aranges
                0x00001040       0x30 zephyr/libzephyr.a(secure_services_ns.c.obj)
 .debug_aranges
                0x00001070       0x20 zephyr/arch/arch/arm/core/aarch32/libarch__arm__core__aarch32.a(swap.c.obj)
 .debug_aranges
                0x00001090       0x48 zephyr/arch/arch/arm/core/aarch32/libarch__arm__core__aarch32.a(irq_manage.c.obj)
 .debug_aranges
                0x000010d8       0x30 zephyr/arch/arch/arm/core/aarch32/libarch__arm__core__aarch32.a(thread.c.obj)
 .debug_aranges
                0x00001108       0x30 zephyr/arch/arch/arm/core/aarch32/libarch__arm__core__aarch32.a(fatal.c.obj)
 .debug_aranges
                0x00001138       0x20 zephyr/arch/arch/arm/core/aarch32/libarch__arm__core__aarch32.a(nmi.c.obj)
 .debug_aranges
                0x00001158       0x20 zephyr/arch/arch/arm/core/aarch32/libarch__arm__core__aarch32.a(prep_c.c.obj)
 .debug_aranges
                0x00001178       0x40 zephyr/arch/arch/arm/core/aarch32/cortex_m/libarch__arm__core__aarch32__cortex_m.a(fault.c.obj)
 .debug_aranges
                0x000011b8       0x28 zephyr/arch/arch/arm/core/aarch32/cortex_m/libarch__arm__core__aarch32__cortex_m.a(scb.c.obj)
 .debug_aranges
                0x000011e0       0x20 zephyr/arch/arch/arm/core/aarch32/cortex_m/libarch__arm__core__aarch32__cortex_m.a(irq_init.c.obj)
 .debug_aranges
                0x00001200       0x20 zephyr/arch/arch/arm/core/aarch32/cortex_m/libarch__arm__core__aarch32__cortex_m.a(thread_abort.c.obj)
 .debug_aranges
                0x00001220       0x28 zephyr/arch/arch/arm/core/aarch32/cortex_m/mpu/libarch__arm__core__aarch32__cortex_m__mpu.a(arm_core_mpu.c.obj)
 .debug_aranges
                0x00001248       0x68 zephyr/arch/arch/arm/core/aarch32/cortex_m/mpu/libarch__arm__core__aarch32__cortex_m__mpu.a(arm_mpu.c.obj)
 .debug_aranges
                0x000012b0       0x40 zephyr/arch/arch/arm/core/aarch32/cortex_m/cmse/libarch__arm__core__aarch32__cortex_m__cmse.a(arm_core_cmse.c.obj)
 .debug_aranges
                0x000012f0       0x20 zephyr/lib/libc/minimal/liblib__libc__minimal.a(strtol.c.obj)
 .debug_aranges
                0x00001310       0x20 zephyr/lib/libc/minimal/liblib__libc__minimal.a(strstr.c.obj)
 .debug_aranges
                0x00001330       0x98 zephyr/lib/libc/minimal/liblib__libc__minimal.a(string.c.obj)
 .debug_aranges
                0x000013c8       0x58 zephyr/lib/libc/minimal/liblib__libc__minimal.a(stdout_console.c.obj)
 .debug_aranges
                0x00001420       0x40 zephyr/lib/libc/minimal/liblib__libc__minimal.a(sprintf.c.obj)
 .debug_aranges
                0x00001460       0x38 zephyr/lib/libc/minimal/liblib__libc__minimal.a(fprintf.c.obj)
 .debug_aranges
                0x00001498       0x28 zephyr/lib/libc/minimal/liblib__libc__minimal.a(gmtime.c.obj)
 .debug_aranges
                0x000014c0       0x30 zephyr/lib/posix/liblib__posix.a(clock.c.obj)
 .debug_aranges
                0x000014f0       0x18 zephyr/soc/arm/common/cortex_m/libsoc__arm__common__cortex_m.a(arm_mpu_regions.c.obj)
 .debug_aranges
                0x00001508       0x70 zephyr/drivers/gpio/libdrivers__gpio.a(gpio_nrfx.c.obj)
 .debug_aranges
                0x00001578       0xd0 zephyr/drivers/serial/libdrivers__serial.a(uart_nrfx_uarte.c.obj)
 .debug_aranges
                0x00001648       0x20 modules/nrf/lib/fatal_error/lib..__nrf__lib__fatal_error.a(fatal_error.c.obj)
 .debug_aranges
                0x00001668       0x30 modules/nrf/subsys/fw_info/lib..__nrf__subsys__fw_info.a(fw_info.c.obj)
 .debug_aranges
                0x00001698       0x20 modules/nordic/lib..__modules__hal__nordic.a(system_nrf9160.c.obj)
 .debug_aranges
                0x000016b8       0x30 modules/nordic/lib..__modules__hal__nordic.a(nrfx_glue.c.obj)
 .debug_aranges
                0x000016e8       0x68 modules/nordic/lib..__modules__hal__nordic.a(nrfx_clock.c.obj)
 .debug_aranges
                0x00001750       0x78 modules/nordic/lib..__modules__hal__nordic.a(nrfx_dppi.c.obj)
 .debug_aranges
                0x000017c8       0x40 zephyr/kernel/libkernel.a(device.c.obj)
 .debug_aranges
                0x00001808       0x20 zephyr/kernel/libkernel.a(errno.c.obj)
 .debug_aranges
                0x00001828       0x50 zephyr/kernel/libkernel.a(fatal.c.obj)
 .debug_aranges
                0x00001878       0x28 zephyr/kernel/libkernel.a(idle.c.obj)
 .debug_aranges
                0x000018a0       0x40 zephyr/kernel/libkernel.a(init.c.obj)
 .debug_aranges
                0x000018e0       0x38 zephyr/kernel/libkernel.a(mem_slab.c.obj)
 .debug_aranges
                0x00001918       0x58 zephyr/kernel/libkernel.a(msg_q.c.obj)
 .debug_aranges
                0x00001970       0x30 zephyr/kernel/libkernel.a(mutex.c.obj)
 .debug_aranges
                0x000019a0       0x78 zephyr/kernel/libkernel.a(queue.c.obj)
 .debug_aranges
                0x00001a18      0x1d0 zephyr/kernel/libkernel.a(sched.c.obj)
 .debug_aranges
                0x00001be8       0x30 zephyr/kernel/libkernel.a(sem.c.obj)
 .debug_aranges
                0x00001c18       0xb8 zephyr/kernel/libkernel.a(thread.c.obj)
 .debug_aranges
                0x00001cd0       0x20 zephyr/kernel/libkernel.a(thread_abort.c.obj)
 .debug_aranges
                0x00001cf0       0x20 zephyr/kernel/libkernel.a(version.c.obj)
 .debug_aranges
                0x00001d10       0x90 zephyr/kernel/libkernel.a(timeout.c.obj)
 .debug_aranges
                0x00001da0       0x48 zephyr/kernel/libkernel.a(timer.c.obj)
 .debug_aranges
                0x00001de8       0x98 zephyr/kernel/libkernel.a(poll.c.obj)
 .debug_aranges
                0x00001e80       0x50 zephyr/kernel/libkernel.a(mempool.c.obj)
 .debug_aranges
                0x00001ed0       0x48 zephyr/kernel/libkernel.a(kheap.c.obj)
 .debug_aranges
                0x00001f18       0x20 zephyr/CMakeFiles/offsets.dir/arch/arm/core/offsets/offsets.c.obj

.debug_pubnames
 *(SORT_BY_ALIGNMENT(.debug_pubnames))

.debug_info     0x00000000    0x87f0b
 *(SORT_BY_ALIGNMENT(.debug_info) SORT_BY_ALIGNMENT(.gnu.linkonce.wi.*))
 .debug_info    0x00000000      0x21e zephyr/CMakeFiles/zephyr_final.dir/isr_tables.c.obj
 .debug_info    0x0000021e     0x377c app/libapp.a(main.c.obj)
 .debug_info    0x0000399a      0x376 app/libapp.a(test_module.c.obj)
 .debug_info    0x00003d10     0x247a app/libapp.a(dynamic_cmd.c.obj)
 .debug_info    0x0000618a      0x667 app/libapp.a(qsort.c.obj)
 .debug_info    0x000067f1      0x482 zephyr/libzephyr.a(fnmatch.c.obj)
 .debug_info    0x00006c73      0x2d6 zephyr/libzephyr.a(hex.c.obj)
 .debug_info    0x00006f49      0xbb7 zephyr/libzephyr.a(notify.c.obj)
 .debug_info    0x00007b00      0xe10 zephyr/libzephyr.a(printk.c.obj)
 .debug_info    0x00008910     0x2a36 zephyr/libzephyr.a(onoff.c.obj)
 .debug_info    0x0000b346      0xa3e zephyr/libzephyr.a(thread_entry.c.obj)
 .debug_info    0x0000bd84      0x323 zephyr/libzephyr.a(timeutil.c.obj)
 .debug_info    0x0000c0a7     0x27f4 zephyr/libzephyr.a(heap.c.obj)
 .debug_info    0x0000e89b     0x1041 zephyr/libzephyr.a(cbprintf_complete.c.obj)
 .debug_info    0x0000f8dc     0x140c zephyr/libzephyr.a(ring_buffer.c.obj)
 .debug_info    0x00010ce8       0x38 zephyr/libzephyr.a(configs.c.obj)
 .debug_info    0x00010d20      0xe8d zephyr/libzephyr.a(soc.c.obj)
 .debug_info    0x00011bad      0x4d3 zephyr/libzephyr.a(log_list.c.obj)
 .debug_info    0x00012080     0x46c2 zephyr/libzephyr.a(log_core.c.obj)
 .debug_info    0x00016742     0x1dce zephyr/libzephyr.a(log_msg.c.obj)
 .debug_info    0x00018510     0x2a1d zephyr/libzephyr.a(log_output.c.obj)
 .debug_info    0x0001af2d     0x339b zephyr/libzephyr.a(log_cmds.c.obj)
 .debug_info    0x0001e2c8     0x2874 zephyr/libzephyr.a(kernel_service.c.obj)
 .debug_info    0x00020b3c     0x217c zephyr/libzephyr.a(device_service.c.obj)
 .debug_info    0x00022cb8     0x23cf zephyr/libzephyr.a(date_service.c.obj)
 .debug_info    0x00025087     0x62bd zephyr/libzephyr.a(shell.c.obj)
 .debug_info    0x0002b344     0x1db3 zephyr/libzephyr.a(shell_fprintf.c.obj)
 .debug_info    0x0002d0f7     0x2ae3 zephyr/libzephyr.a(shell_utils.c.obj)
 .debug_info    0x0002fbda     0x34da zephyr/libzephyr.a(shell_ops.c.obj)
 .debug_info    0x000330b4     0x3613 zephyr/libzephyr.a(shell_uart.c.obj)
 .debug_info    0x000366c7     0x249a zephyr/libzephyr.a(shell_help.c.obj)
 .debug_info    0x00038b61     0x2d18 zephyr/libzephyr.a(shell_cmds.c.obj)
 .debug_info    0x0003b879     0x1322 zephyr/libzephyr.a(shell_history.c.obj)
 .debug_info    0x0003cb9b     0x2db1 zephyr/libzephyr.a(shell_log_backend.c.obj)
 .debug_info    0x0003f94c     0x21c5 zephyr/libzephyr.a(shell_wildcard.c.obj)
 .debug_info    0x00041b11      0xce7 zephyr/libzephyr.a(power.c.obj)
 .debug_info    0x000427f8      0xa26 zephyr/libzephyr.a(reboot.c.obj)
 .debug_info    0x0004321e      0xf3c zephyr/libzephyr.a(uart_console.c.obj)
 .debug_info    0x0004415a     0x4eed zephyr/libzephyr.a(clock_control_nrf.c.obj)
 .debug_info    0x00049047      0xb7c zephyr/libzephyr.a(sys_clock_init.c.obj)
 .debug_info    0x00049bc3     0x20ec zephyr/libzephyr.a(nrf_rtc_timer.c.obj)
 .debug_info    0x0004bcaf      0xb64 zephyr/libzephyr.a(secure_services_ns.c.obj)
 .debug_info    0x0004c813      0xd15 zephyr/arch/arch/arm/core/aarch32/libarch__arm__core__aarch32.a(swap.c.obj)
 .debug_info    0x0004d528     0x113a zephyr/arch/arch/arm/core/aarch32/libarch__arm__core__aarch32.a(irq_manage.c.obj)
 .debug_info    0x0004e662      0xc8d zephyr/arch/arch/arm/core/aarch32/libarch__arm__core__aarch32.a(thread.c.obj)
 .debug_info    0x0004f2ef      0xffc zephyr/arch/arch/arm/core/aarch32/libarch__arm__core__aarch32.a(fatal.c.obj)
 .debug_info    0x000502eb      0x95f zephyr/arch/arch/arm/core/aarch32/libarch__arm__core__aarch32.a(nmi.c.obj)
 .debug_info    0x00050c4a      0xf94 zephyr/arch/arch/arm/core/aarch32/libarch__arm__core__aarch32.a(prep_c.c.obj)
 .debug_info    0x00051bde       0x22 zephyr/arch/arch/arm/core/aarch32/libarch__arm__core__aarch32.a(swap_helper.S.obj)
 .debug_info    0x00051c00       0x22 zephyr/arch/arch/arm/core/aarch32/libarch__arm__core__aarch32.a(cpu_idle.S.obj)
 .debug_info    0x00051c22       0x26 zephyr/arch/arch/arm/core/aarch32/libarch__arm__core__aarch32.a(nmi_on_reset.S.obj)
 .debug_info    0x00051c48       0x26 zephyr/arch/arch/arm/core/aarch32/libarch__arm__core__aarch32.a(isr_wrapper.S.obj)
 .debug_info    0x00051c6e       0x26 zephyr/arch/arch/arm/core/aarch32/cortex_m/libarch__arm__core__aarch32__cortex_m.a(reset.S.obj)
 .debug_info    0x00051c94       0x26 zephyr/arch/arch/arm/core/aarch32/cortex_m/libarch__arm__core__aarch32__cortex_m.a(fault_s.S.obj)
 .debug_info    0x00051cba       0x26 zephyr/arch/arch/arm/core/aarch32/cortex_m/libarch__arm__core__aarch32__cortex_m.a(exc_exit.S.obj)
 .debug_info    0x00051ce0     0x2524 zephyr/arch/arch/arm/core/aarch32/cortex_m/libarch__arm__core__aarch32__cortex_m.a(fault.c.obj)
 .debug_info    0x00054204     0x102c zephyr/arch/arch/arm/core/aarch32/cortex_m/libarch__arm__core__aarch32__cortex_m.a(scb.c.obj)
 .debug_info    0x00055230      0x7d6 zephyr/arch/arch/arm/core/aarch32/cortex_m/libarch__arm__core__aarch32__cortex_m.a(irq_init.c.obj)
 .debug_info    0x00055a06      0xded zephyr/arch/arch/arm/core/aarch32/cortex_m/libarch__arm__core__aarch32__cortex_m.a(thread_abort.c.obj)
 .debug_info    0x000567f3      0xda6 zephyr/arch/arch/arm/core/aarch32/cortex_m/mpu/libarch__arm__core__aarch32__cortex_m__mpu.a(arm_core_mpu.c.obj)
 .debug_info    0x00057599     0x1e8f zephyr/arch/arch/arm/core/aarch32/cortex_m/mpu/libarch__arm__core__aarch32__cortex_m__mpu.a(arm_mpu.c.obj)
 .debug_info    0x00059428      0xe83 zephyr/arch/arch/arm/core/aarch32/cortex_m/cmse/libarch__arm__core__aarch32__cortex_m__cmse.a(arm_core_cmse.c.obj)
 .debug_info    0x0005a2ab      0x2ba zephyr/lib/libc/minimal/liblib__libc__minimal.a(strtol.c.obj)
 .debug_info    0x0005a565      0x11a zephyr/lib/libc/minimal/liblib__libc__minimal.a(strstr.c.obj)
 .debug_info    0x0005a67f      0x7bb zephyr/lib/libc/minimal/liblib__libc__minimal.a(string.c.obj)
 .debug_info    0x0005ae3a      0x696 zephyr/lib/libc/minimal/liblib__libc__minimal.a(stdout_console.c.obj)
 .debug_info    0x0005b4d0      0x3d4 zephyr/lib/libc/minimal/liblib__libc__minimal.a(sprintf.c.obj)
 .debug_info    0x0005b8a4      0x25d zephyr/lib/libc/minimal/liblib__libc__minimal.a(fprintf.c.obj)
 .debug_info    0x0005bb01      0x350 zephyr/lib/libc/minimal/liblib__libc__minimal.a(gmtime.c.obj)
 .debug_info    0x0005be51      0xf63 zephyr/lib/posix/liblib__posix.a(clock.c.obj)
 .debug_info    0x0005cdb4      0x217 zephyr/soc/arm/common/cortex_m/libsoc__arm__common__cortex_m.a(arm_mpu_regions.c.obj)
 .debug_info    0x0005cfcb     0x314b zephyr/drivers/gpio/libdrivers__gpio.a(gpio_nrfx.c.obj)
 .debug_info    0x00060116     0x4bad zephyr/drivers/serial/libdrivers__serial.a(uart_nrfx_uarte.c.obj)
 .debug_info    0x00064cc3     0x1234 modules/nrf/lib/fatal_error/lib..__nrf__lib__fatal_error.a(fatal_error.c.obj)
 .debug_info    0x00065ef7     0x124e modules/nrf/subsys/fw_info/lib..__nrf__subsys__fw_info.a(fw_info.c.obj)
 .debug_info    0x00067145       0xe5 modules/nordic/lib..__modules__hal__nordic.a(system_nrf9160.c.obj)
 .debug_info    0x0006722a      0xac4 modules/nordic/lib..__modules__hal__nordic.a(nrfx_glue.c.obj)
 .debug_info    0x00067cee     0x16d2 modules/nordic/lib..__modules__hal__nordic.a(nrfx_clock.c.obj)
 .debug_info    0x000693c0     0x11a7 modules/nordic/lib..__modules__hal__nordic.a(nrfx_dppi.c.obj)
 .debug_info    0x0006a567      0xda5 zephyr/kernel/libkernel.a(device.c.obj)
 .debug_info    0x0006b30c      0x9bb zephyr/kernel/libkernel.a(errno.c.obj)
 .debug_info    0x0006bcc7     0x1895 zephyr/kernel/libkernel.a(fatal.c.obj)
 .debug_info    0x0006d55c      0xe35 zephyr/kernel/libkernel.a(idle.c.obj)
 .debug_info    0x0006e391     0x1f57 zephyr/kernel/libkernel.a(init.c.obj)
 .debug_info    0x000702e8     0x1193 zephyr/kernel/libkernel.a(mem_slab.c.obj)
 .debug_info    0x0007147b     0x151e zephyr/kernel/libkernel.a(msg_q.c.obj)
 .debug_info    0x00072999     0x15be zephyr/kernel/libkernel.a(mutex.c.obj)
 .debug_info    0x00073f57     0x2139 zephyr/kernel/libkernel.a(queue.c.obj)
 .debug_info    0x00076090     0x5c37 zephyr/kernel/libkernel.a(sched.c.obj)
 .debug_info    0x0007bcc7      0xf95 zephyr/kernel/libkernel.a(sem.c.obj)
 .debug_info    0x0007cc5c     0x2010 zephyr/kernel/libkernel.a(thread.c.obj)
 .debug_info    0x0007ec6c      0xc52 zephyr/kernel/libkernel.a(thread_abort.c.obj)
 .debug_info    0x0007f8be       0x95 zephyr/kernel/libkernel.a(version.c.obj)
 .debug_info    0x0007f953     0x1d3f zephyr/kernel/libkernel.a(timeout.c.obj)
 .debug_info    0x00081692     0x13c6 zephyr/kernel/libkernel.a(timer.c.obj)
 .debug_info    0x00082a58     0x2c0c zephyr/kernel/libkernel.a(poll.c.obj)
 .debug_info    0x00085664      0xdfa zephyr/kernel/libkernel.a(mempool.c.obj)
 .debug_info    0x0008645e     0x113e zephyr/kernel/libkernel.a(kheap.c.obj)
 .debug_info    0x0008759c      0x96f zephyr/CMakeFiles/offsets.dir/arch/arm/core/offsets/offsets.c.obj

.debug_abbrev   0x00000000    0x15013
 *(SORT_BY_ALIGNMENT(.debug_abbrev))
 .debug_abbrev  0x00000000      0x119 zephyr/CMakeFiles/zephyr_final.dir/isr_tables.c.obj
 .debug_abbrev  0x00000119      0x638 app/libapp.a(main.c.obj)
 .debug_abbrev  0x00000751      0x1b0 app/libapp.a(test_module.c.obj)
 .debug_abbrev  0x00000901      0x47a app/libapp.a(dynamic_cmd.c.obj)
 .debug_abbrev  0x00000d7b      0x1b6 app/libapp.a(qsort.c.obj)
 .debug_abbrev  0x00000f31      0x1ee zephyr/libzephyr.a(fnmatch.c.obj)
 .debug_abbrev  0x0000111f      0x15c zephyr/libzephyr.a(hex.c.obj)
 .debug_abbrev  0x0000127b      0x2c1 zephyr/libzephyr.a(notify.c.obj)
 .debug_abbrev  0x0000153c      0x340 zephyr/libzephyr.a(printk.c.obj)
 .debug_abbrev  0x0000187c      0x571 zephyr/libzephyr.a(onoff.c.obj)
 .debug_abbrev  0x00001ded      0x240 zephyr/libzephyr.a(thread_entry.c.obj)
 .debug_abbrev  0x0000202d      0x1b8 zephyr/libzephyr.a(timeutil.c.obj)
 .debug_abbrev  0x000021e5      0x485 zephyr/libzephyr.a(heap.c.obj)
 .debug_abbrev  0x0000266a      0x3bc zephyr/libzephyr.a(cbprintf_complete.c.obj)
 .debug_abbrev  0x00002a26      0x40f zephyr/libzephyr.a(ring_buffer.c.obj)
 .debug_abbrev  0x00002e35       0x2e zephyr/libzephyr.a(configs.c.obj)
 .debug_abbrev  0x00002e63      0x35b zephyr/libzephyr.a(soc.c.obj)
 .debug_abbrev  0x000031be      0x189 zephyr/libzephyr.a(log_list.c.obj)
 .debug_abbrev  0x00003347      0x842 zephyr/libzephyr.a(log_core.c.obj)
 .debug_abbrev  0x00003b89      0x5bc zephyr/libzephyr.a(log_msg.c.obj)
 .debug_abbrev  0x00004145      0x5d5 zephyr/libzephyr.a(log_output.c.obj)
 .debug_abbrev  0x0000471a      0x657 zephyr/libzephyr.a(log_cmds.c.obj)
 .debug_abbrev  0x00004d71      0x4f4 zephyr/libzephyr.a(kernel_service.c.obj)
 .debug_abbrev  0x00005265      0x374 zephyr/libzephyr.a(device_service.c.obj)
 .debug_abbrev  0x000055d9      0x457 zephyr/libzephyr.a(date_service.c.obj)
 .debug_abbrev  0x00005a30      0x760 zephyr/libzephyr.a(shell.c.obj)
 .debug_abbrev  0x00006190      0x396 zephyr/libzephyr.a(shell_fprintf.c.obj)
 .debug_abbrev  0x00006526      0x631 zephyr/libzephyr.a(shell_utils.c.obj)
 .debug_abbrev  0x00006b57      0x6be zephyr/libzephyr.a(shell_ops.c.obj)
 .debug_abbrev  0x00007215      0x719 zephyr/libzephyr.a(shell_uart.c.obj)
 .debug_abbrev  0x0000792e      0x4f7 zephyr/libzephyr.a(shell_help.c.obj)
 .debug_abbrev  0x00007e25      0x600 zephyr/libzephyr.a(shell_cmds.c.obj)
 .debug_abbrev  0x00008425      0x3dc zephyr/libzephyr.a(shell_history.c.obj)
 .debug_abbrev  0x00008801      0x64e zephyr/libzephyr.a(shell_log_backend.c.obj)
 .debug_abbrev  0x00008e4f      0x47e zephyr/libzephyr.a(shell_wildcard.c.obj)
 .debug_abbrev  0x000092cd      0x35c zephyr/libzephyr.a(power.c.obj)
 .debug_abbrev  0x00009629      0x24d zephyr/libzephyr.a(reboot.c.obj)
 .debug_abbrev  0x00009876      0x36e zephyr/libzephyr.a(uart_console.c.obj)
 .debug_abbrev  0x00009be4      0x81f zephyr/libzephyr.a(clock_control_nrf.c.obj)
 .debug_abbrev  0x0000a403      0x24b zephyr/libzephyr.a(sys_clock_init.c.obj)
 .debug_abbrev  0x0000a64e      0x536 zephyr/libzephyr.a(nrf_rtc_timer.c.obj)
 .debug_abbrev  0x0000ab84      0x1d6 zephyr/libzephyr.a(secure_services_ns.c.obj)
 .debug_abbrev  0x0000ad5a      0x23d zephyr/arch/arch/arm/core/aarch32/libarch__arm__core__aarch32.a(swap.c.obj)
 .debug_abbrev  0x0000af97      0x358 zephyr/arch/arch/arm/core/aarch32/libarch__arm__core__aarch32.a(irq_manage.c.obj)
 .debug_abbrev  0x0000b2ef      0x2cd zephyr/arch/arch/arm/core/aarch32/libarch__arm__core__aarch32.a(thread.c.obj)
 .debug_abbrev  0x0000b5bc      0x38f zephyr/arch/arch/arm/core/aarch32/libarch__arm__core__aarch32.a(fatal.c.obj)
 .debug_abbrev  0x0000b94b      0x1b2 zephyr/arch/arch/arm/core/aarch32/libarch__arm__core__aarch32.a(nmi.c.obj)
 .debug_abbrev  0x0000bafd      0x2db zephyr/arch/arch/arm/core/aarch32/libarch__arm__core__aarch32.a(prep_c.c.obj)
 .debug_abbrev  0x0000bdd8       0x12 zephyr/arch/arch/arm/core/aarch32/libarch__arm__core__aarch32.a(swap_helper.S.obj)
 .debug_abbrev  0x0000bdea       0x12 zephyr/arch/arch/arm/core/aarch32/libarch__arm__core__aarch32.a(cpu_idle.S.obj)
 .debug_abbrev  0x0000bdfc       0x14 zephyr/arch/arch/arm/core/aarch32/libarch__arm__core__aarch32.a(nmi_on_reset.S.obj)
 .debug_abbrev  0x0000be10       0x14 zephyr/arch/arch/arm/core/aarch32/libarch__arm__core__aarch32.a(isr_wrapper.S.obj)
 .debug_abbrev  0x0000be24       0x14 zephyr/arch/arch/arm/core/aarch32/cortex_m/libarch__arm__core__aarch32__cortex_m.a(reset.S.obj)
 .debug_abbrev  0x0000be38       0x14 zephyr/arch/arch/arm/core/aarch32/cortex_m/libarch__arm__core__aarch32__cortex_m.a(fault_s.S.obj)
 .debug_abbrev  0x0000be4c       0x14 zephyr/arch/arch/arm/core/aarch32/cortex_m/libarch__arm__core__aarch32__cortex_m.a(exc_exit.S.obj)
 .debug_abbrev  0x0000be60      0x483 zephyr/arch/arch/arm/core/aarch32/cortex_m/libarch__arm__core__aarch32__cortex_m.a(fault.c.obj)
 .debug_abbrev  0x0000c2e3      0x2bf zephyr/arch/arch/arm/core/aarch32/cortex_m/libarch__arm__core__aarch32__cortex_m.a(scb.c.obj)
 .debug_abbrev  0x0000c5a2      0x1ec zephyr/arch/arch/arm/core/aarch32/cortex_m/libarch__arm__core__aarch32__cortex_m.a(irq_init.c.obj)
 .debug_abbrev  0x0000c78e      0x2e8 zephyr/arch/arch/arm/core/aarch32/cortex_m/libarch__arm__core__aarch32__cortex_m.a(thread_abort.c.obj)
 .debug_abbrev  0x0000ca76      0x23c zephyr/arch/arch/arm/core/aarch32/cortex_m/mpu/libarch__arm__core__aarch32__cortex_m__mpu.a(arm_core_mpu.c.obj)
 .debug_abbrev  0x0000ccb2      0x5a2 zephyr/arch/arch/arm/core/aarch32/cortex_m/mpu/libarch__arm__core__aarch32__cortex_m__mpu.a(arm_mpu.c.obj)
 .debug_abbrev  0x0000d254      0x27f zephyr/arch/arch/arm/core/aarch32/cortex_m/cmse/libarch__arm__core__aarch32__cortex_m__cmse.a(arm_core_cmse.c.obj)
 .debug_abbrev  0x0000d4d3      0x123 zephyr/lib/libc/minimal/liblib__libc__minimal.a(strtol.c.obj)
 .debug_abbrev  0x0000d5f6       0xda zephyr/lib/libc/minimal/liblib__libc__minimal.a(strstr.c.obj)
 .debug_abbrev  0x0000d6d0      0x191 zephyr/lib/libc/minimal/liblib__libc__minimal.a(string.c.obj)
 .debug_abbrev  0x0000d861      0x255 zephyr/lib/libc/minimal/liblib__libc__minimal.a(stdout_console.c.obj)
 .debug_abbrev  0x0000dab6      0x1b2 zephyr/lib/libc/minimal/liblib__libc__minimal.a(sprintf.c.obj)
 .debug_abbrev  0x0000dc68      0x13b zephyr/lib/libc/minimal/liblib__libc__minimal.a(fprintf.c.obj)
 .debug_abbrev  0x0000dda3      0x1ab zephyr/lib/libc/minimal/liblib__libc__minimal.a(gmtime.c.obj)
 .debug_abbrev  0x0000df4e      0x3d9 zephyr/lib/posix/liblib__posix.a(clock.c.obj)
 .debug_abbrev  0x0000e327      0x108 zephyr/soc/arm/common/cortex_m/libsoc__arm__common__cortex_m.a(arm_mpu_regions.c.obj)
 .debug_abbrev  0x0000e42f      0x587 zephyr/drivers/gpio/libdrivers__gpio.a(gpio_nrfx.c.obj)
 .debug_abbrev  0x0000e9b6      0x5ee zephyr/drivers/serial/libdrivers__serial.a(uart_nrfx_uarte.c.obj)
 .debug_abbrev  0x0000efa4      0x328 modules/nrf/lib/fatal_error/lib..__nrf__lib__fatal_error.a(fatal_error.c.obj)
 .debug_abbrev  0x0000f2cc      0x3ff modules/nrf/subsys/fw_info/lib..__nrf__subsys__fw_info.a(fw_info.c.obj)
 .debug_abbrev  0x0000f6cb       0xba modules/nordic/lib..__modules__hal__nordic.a(system_nrf9160.c.obj)
 .debug_abbrev  0x0000f785      0x25b modules/nordic/lib..__modules__hal__nordic.a(nrfx_glue.c.obj)
 .debug_abbrev  0x0000f9e0      0x48f modules/nordic/lib..__modules__hal__nordic.a(nrfx_clock.c.obj)
 .debug_abbrev  0x0000fe6f      0x390 modules/nordic/lib..__modules__hal__nordic.a(nrfx_dppi.c.obj)
 .debug_abbrev  0x000101ff      0x35f zephyr/kernel/libkernel.a(device.c.obj)
 .debug_abbrev  0x0001055e      0x1b7 zephyr/kernel/libkernel.a(errno.c.obj)
 .debug_abbrev  0x00010715      0x4a8 zephyr/kernel/libkernel.a(fatal.c.obj)
 .debug_abbrev  0x00010bbd      0x349 zephyr/kernel/libkernel.a(idle.c.obj)
 .debug_abbrev  0x00010f06      0x5c7 zephyr/kernel/libkernel.a(init.c.obj)
 .debug_abbrev  0x000114cd      0x3a8 zephyr/kernel/libkernel.a(mem_slab.c.obj)
 .debug_abbrev  0x00011875      0x44b zephyr/kernel/libkernel.a(msg_q.c.obj)
 .debug_abbrev  0x00011cc0      0x409 zephyr/kernel/libkernel.a(mutex.c.obj)
 .debug_abbrev  0x000120c9      0x4e3 zephyr/kernel/libkernel.a(queue.c.obj)
 .debug_abbrev  0x000125ac      0x652 zephyr/kernel/libkernel.a(sched.c.obj)
 .debug_abbrev  0x00012bfe      0x398 zephyr/kernel/libkernel.a(sem.c.obj)
 .debug_abbrev  0x00012f96      0x5ae zephyr/kernel/libkernel.a(thread.c.obj)
 .debug_abbrev  0x00013544      0x2e7 zephyr/kernel/libkernel.a(thread_abort.c.obj)
 .debug_abbrev  0x0001382b       0x55 zephyr/kernel/libkernel.a(version.c.obj)
 .debug_abbrev  0x00013880      0x4cc zephyr/kernel/libkernel.a(timeout.c.obj)
 .debug_abbrev  0x00013d4c      0x3ed zephyr/kernel/libkernel.a(timer.c.obj)
 .debug_abbrev  0x00014139      0x642 zephyr/kernel/libkernel.a(poll.c.obj)
 .debug_abbrev  0x0001477b      0x356 zephyr/kernel/libkernel.a(mempool.c.obj)
 .debug_abbrev  0x00014ad1      0x39f zephyr/kernel/libkernel.a(kheap.c.obj)
 .debug_abbrev  0x00014e70      0x1a3 zephyr/CMakeFiles/offsets.dir/arch/arm/core/offsets/offsets.c.obj

.debug_line     0x00000000    0x2fdb2
 *(SORT_BY_ALIGNMENT(.debug_line) SORT_BY_ALIGNMENT(.debug_line.*) SORT_BY_ALIGNMENT(.debug_line_end))
 .debug_line    0x00000000      0x1b9 zephyr/CMakeFiles/zephyr_final.dir/isr_tables.c.obj
 .debug_line    0x000001b9      0xd81 app/libapp.a(main.c.obj)
 .debug_line    0x00000f3a      0x325 app/libapp.a(test_module.c.obj)
 .debug_line    0x0000125f      0x7f6 app/libapp.a(dynamic_cmd.c.obj)
 .debug_line    0x00001a55      0x3a6 app/libapp.a(qsort.c.obj)
 .debug_line    0x00001dfb      0x42b zephyr/libzephyr.a(fnmatch.c.obj)
 .debug_line    0x00002226      0x29f zephyr/libzephyr.a(hex.c.obj)
 .debug_line    0x000024c5      0x444 zephyr/libzephyr.a(notify.c.obj)
 .debug_line    0x00002909      0x545 zephyr/libzephyr.a(printk.c.obj)
 .debug_line    0x00002e4e     0x12f3 zephyr/libzephyr.a(onoff.c.obj)
 .debug_line    0x00004141      0x39b zephyr/libzephyr.a(thread_entry.c.obj)
 .debug_line    0x000044dc      0x255 zephyr/libzephyr.a(timeutil.c.obj)
 .debug_line    0x00004731      0xe46 zephyr/libzephyr.a(heap.c.obj)
 .debug_line    0x00005577      0xc9b zephyr/libzephyr.a(cbprintf_complete.c.obj)
 .debug_line    0x00006212      0x9fd zephyr/libzephyr.a(ring_buffer.c.obj)
 .debug_line    0x00006c0f      0x1d8 zephyr/libzephyr.a(configs.c.obj)
 .debug_line    0x00006de7      0x45c zephyr/libzephyr.a(soc.c.obj)
 .debug_line    0x00007243      0x19c zephyr/libzephyr.a(log_list.c.obj)
 .debug_line    0x000073df     0x1c03 zephyr/libzephyr.a(log_core.c.obj)
 .debug_line    0x00008fe2      0xb5e zephyr/libzephyr.a(log_msg.c.obj)
 .debug_line    0x00009b40      0xc30 zephyr/libzephyr.a(log_output.c.obj)
 .debug_line    0x0000a770      0xcb2 zephyr/libzephyr.a(log_cmds.c.obj)
 .debug_line    0x0000b422      0x87c zephyr/libzephyr.a(kernel_service.c.obj)
 .debug_line    0x0000bc9e      0x5db zephyr/libzephyr.a(device_service.c.obj)
 .debug_line    0x0000c279      0x84e zephyr/libzephyr.a(date_service.c.obj)
 .debug_line    0x0000cac7     0x2007 zephyr/libzephyr.a(shell.c.obj)
 .debug_line    0x0000eace      0x534 zephyr/libzephyr.a(shell_fprintf.c.obj)
 .debug_line    0x0000f002      0xd6a zephyr/libzephyr.a(shell_utils.c.obj)
 .debug_line    0x0000fd6c      0xf3d zephyr/libzephyr.a(shell_ops.c.obj)
 .debug_line    0x00010ca9      0xa86 zephyr/libzephyr.a(shell_uart.c.obj)
 .debug_line    0x0001172f      0x7fd zephyr/libzephyr.a(shell_help.c.obj)
 .debug_line    0x00011f2c      0xa3c zephyr/libzephyr.a(shell_cmds.c.obj)
 .debug_line    0x00012968      0x79c zephyr/libzephyr.a(shell_history.c.obj)
 .debug_line    0x00013104      0xa35 zephyr/libzephyr.a(shell_log_backend.c.obj)
 .debug_line    0x00013b39      0x73f zephyr/libzephyr.a(shell_wildcard.c.obj)
 .debug_line    0x00014278      0x4e7 zephyr/libzephyr.a(power.c.obj)
 .debug_line    0x0001475f      0x375 zephyr/libzephyr.a(reboot.c.obj)
 .debug_line    0x00014ad4      0x453 zephyr/libzephyr.a(uart_console.c.obj)
 .debug_line    0x00014f27     0x1543 zephyr/libzephyr.a(clock_control_nrf.c.obj)
 .debug_line    0x0001646a      0x388 zephyr/libzephyr.a(sys_clock_init.c.obj)
 .debug_line    0x000167f2      0xd30 zephyr/libzephyr.a(nrf_rtc_timer.c.obj)
 .debug_line    0x00017522      0x382 zephyr/libzephyr.a(secure_services_ns.c.obj)
 .debug_line    0x000178a4      0x3e4 zephyr/arch/arch/arm/core/aarch32/libarch__arm__core__aarch32.a(swap.c.obj)
 .debug_line    0x00017c88      0x4b3 zephyr/arch/arch/arm/core/aarch32/libarch__arm__core__aarch32.a(irq_manage.c.obj)
 .debug_line    0x0001813b      0x4a5 zephyr/arch/arch/arm/core/aarch32/libarch__arm__core__aarch32.a(thread.c.obj)
 .debug_line    0x000185e0      0x4bf zephyr/arch/arch/arm/core/aarch32/libarch__arm__core__aarch32.a(fatal.c.obj)
 .debug_line    0x00018a9f      0x32b zephyr/arch/arch/arm/core/aarch32/libarch__arm__core__aarch32.a(nmi.c.obj)
 .debug_line    0x00018dca      0x469 zephyr/arch/arch/arm/core/aarch32/libarch__arm__core__aarch32.a(prep_c.c.obj)
 .debug_line    0x00019233       0xcc zephyr/arch/arch/arm/core/aarch32/libarch__arm__core__aarch32.a(swap_helper.S.obj)
 .debug_line    0x000192ff       0xad zephyr/arch/arch/arm/core/aarch32/libarch__arm__core__aarch32.a(cpu_idle.S.obj)
 .debug_line    0x000193ac       0x7c zephyr/arch/arch/arm/core/aarch32/libarch__arm__core__aarch32.a(nmi_on_reset.S.obj)
 .debug_line    0x00019428       0xa4 zephyr/arch/arch/arm/core/aarch32/libarch__arm__core__aarch32.a(isr_wrapper.S.obj)
 .debug_line    0x000194cc       0x95 zephyr/arch/arch/arm/core/aarch32/cortex_m/libarch__arm__core__aarch32__cortex_m.a(reset.S.obj)
 .debug_line    0x00019561       0x89 zephyr/arch/arch/arm/core/aarch32/cortex_m/libarch__arm__core__aarch32__cortex_m.a(fault_s.S.obj)
 .debug_line    0x000195ea       0x8f zephyr/arch/arch/arm/core/aarch32/cortex_m/libarch__arm__core__aarch32__cortex_m.a(exc_exit.S.obj)
 .debug_line    0x00019679     0x123c zephyr/arch/arch/arm/core/aarch32/cortex_m/libarch__arm__core__aarch32__cortex_m.a(fault.c.obj)
 .debug_line    0x0001a8b5      0x456 zephyr/arch/arch/arm/core/aarch32/cortex_m/libarch__arm__core__aarch32__cortex_m.a(scb.c.obj)
 .debug_line    0x0001ad0b      0x29a zephyr/arch/arch/arm/core/aarch32/cortex_m/libarch__arm__core__aarch32__cortex_m.a(irq_init.c.obj)
 .debug_line    0x0001afa5      0x482 zephyr/arch/arch/arm/core/aarch32/cortex_m/libarch__arm__core__aarch32__cortex_m.a(thread_abort.c.obj)
 .debug_line    0x0001b427      0x466 zephyr/arch/arch/arm/core/aarch32/cortex_m/mpu/libarch__arm__core__aarch32__cortex_m__mpu.a(arm_core_mpu.c.obj)
 .debug_line    0x0001b88d      0xd0e zephyr/arch/arch/arm/core/aarch32/cortex_m/mpu/libarch__arm__core__aarch32__cortex_m__mpu.a(arm_mpu.c.obj)
 .debug_line    0x0001c59b      0x496 zephyr/arch/arch/arm/core/aarch32/cortex_m/cmse/libarch__arm__core__aarch32__cortex_m__cmse.a(arm_core_cmse.c.obj)
 .debug_line    0x0001ca31      0x305 zephyr/lib/libc/minimal/liblib__libc__minimal.a(strtol.c.obj)
 .debug_line    0x0001cd36      0x16c zephyr/lib/libc/minimal/liblib__libc__minimal.a(strstr.c.obj)
 .debug_line    0x0001cea2      0x61a zephyr/lib/libc/minimal/liblib__libc__minimal.a(string.c.obj)
 .debug_line    0x0001d4bc      0x2fb zephyr/lib/libc/minimal/liblib__libc__minimal.a(stdout_console.c.obj)
 .debug_line    0x0001d7b7      0x2a8 zephyr/lib/libc/minimal/liblib__libc__minimal.a(sprintf.c.obj)
 .debug_line    0x0001da5f      0x1d7 zephyr/lib/libc/minimal/liblib__libc__minimal.a(fprintf.c.obj)
 .debug_line    0x0001dc36      0x2fe zephyr/lib/libc/minimal/liblib__libc__minimal.a(gmtime.c.obj)
 .debug_line    0x0001df34      0x63f zephyr/lib/posix/liblib__posix.a(clock.c.obj)
 .debug_line    0x0001e573      0x1f6 zephyr/soc/arm/common/cortex_m/libsoc__arm__common__cortex_m.a(arm_mpu_regions.c.obj)
 .debug_line    0x0001e769     0x10ea zephyr/drivers/gpio/libdrivers__gpio.a(gpio_nrfx.c.obj)
 .debug_line    0x0001f853     0x196c zephyr/drivers/serial/libdrivers__serial.a(uart_nrfx_uarte.c.obj)
 .debug_line    0x000211bf      0x523 modules/nrf/lib/fatal_error/lib..__nrf__lib__fatal_error.a(fatal_error.c.obj)
 .debug_line    0x000216e2      0x764 modules/nrf/subsys/fw_info/lib..__nrf__subsys__fw_info.a(fw_info.c.obj)
 .debug_line    0x00021e46      0x14c modules/nordic/lib..__modules__hal__nordic.a(system_nrf9160.c.obj)
 .debug_line    0x00021f92      0x498 modules/nordic/lib..__modules__hal__nordic.a(nrfx_glue.c.obj)
 .debug_line    0x0002242a      0xa4e modules/nordic/lib..__modules__hal__nordic.a(nrfx_clock.c.obj)
 .debug_line    0x00022e78      0x8fe modules/nordic/lib..__modules__hal__nordic.a(nrfx_dppi.c.obj)
 .debug_line    0x00023776      0x555 zephyr/kernel/libkernel.a(device.c.obj)
 .debug_line    0x00023ccb      0x343 zephyr/kernel/libkernel.a(errno.c.obj)
 .debug_line    0x0002400e      0x98e zephyr/kernel/libkernel.a(fatal.c.obj)
 .debug_line    0x0002499c      0x591 zephyr/kernel/libkernel.a(idle.c.obj)
 .debug_line    0x00024f2d      0x8c2 zephyr/kernel/libkernel.a(init.c.obj)
 .debug_line    0x000257ef      0x73c zephyr/kernel/libkernel.a(mem_slab.c.obj)
 .debug_line    0x00025f2b      0x99e zephyr/kernel/libkernel.a(msg_q.c.obj)
 .debug_line    0x000268c9      0x8b2 zephyr/kernel/libkernel.a(mutex.c.obj)
 .debug_line    0x0002717b      0xca0 zephyr/kernel/libkernel.a(queue.c.obj)
 .debug_line    0x00027e1b     0x2dba zephyr/kernel/libkernel.a(sched.c.obj)
 .debug_line    0x0002abd5      0x60d zephyr/kernel/libkernel.a(sem.c.obj)
 .debug_line    0x0002b1e2      0xe5f zephyr/kernel/libkernel.a(thread.c.obj)
 .debug_line    0x0002c041      0x4d5 zephyr/kernel/libkernel.a(thread_abort.c.obj)
 .debug_line    0x0002c516       0xa4 zephyr/kernel/libkernel.a(version.c.obj)
 .debug_line    0x0002c5ba      0xea2 zephyr/kernel/libkernel.a(timeout.c.obj)
 .debug_line    0x0002d45c      0x7dd zephyr/kernel/libkernel.a(timer.c.obj)
 .debug_line    0x0002dc39     0x12e7 zephyr/kernel/libkernel.a(poll.c.obj)
 .debug_line    0x0002ef20      0x483 zephyr/kernel/libkernel.a(mempool.c.obj)
 .debug_line    0x0002f3a3      0x628 zephyr/kernel/libkernel.a(kheap.c.obj)
 .debug_line    0x0002f9cb      0x3e7 zephyr/CMakeFiles/offsets.dir/arch/arm/core/offsets/offsets.c.obj

.debug_frame    0x00000000     0x4f28
 *(SORT_BY_ALIGNMENT(.debug_frame))
 .debug_frame   0x00000000      0x150 app/libapp.a(main.c.obj)
 .debug_frame   0x00000150       0x30 app/libapp.a(test_module.c.obj)
 .debug_frame   0x00000180       0xcc app/libapp.a(dynamic_cmd.c.obj)
 .debug_frame   0x0000024c       0x78 app/libapp.a(qsort.c.obj)
 .debug_frame   0x000002c4       0x60 zephyr/libzephyr.a(fnmatch.c.obj)
 .debug_frame   0x00000324       0x74 zephyr/libzephyr.a(hex.c.obj)
 .debug_frame   0x00000398       0x38 zephyr/libzephyr.a(notify.c.obj)
 .debug_frame   0x000003d0      0x118 zephyr/libzephyr.a(printk.c.obj)
 .debug_frame   0x000004e8      0x184 zephyr/libzephyr.a(onoff.c.obj)
 .debug_frame   0x0000066c       0x28 zephyr/libzephyr.a(thread_entry.c.obj)
 .debug_frame   0x00000694       0x58 zephyr/libzephyr.a(timeutil.c.obj)
 .debug_frame   0x000006ec      0x208 zephyr/libzephyr.a(heap.c.obj)
 .debug_frame   0x000008f4       0xd0 zephyr/libzephyr.a(cbprintf_complete.c.obj)
 .debug_frame   0x000009c4      0x110 zephyr/libzephyr.a(ring_buffer.c.obj)
 .debug_frame   0x00000ad4       0x20 zephyr/libzephyr.a(configs.c.obj)
 .debug_frame   0x00000af4       0x40 zephyr/libzephyr.a(soc.c.obj)
 .debug_frame   0x00000b34       0x50 zephyr/libzephyr.a(log_list.c.obj)
 .debug_frame   0x00000b84      0x4d0 zephyr/libzephyr.a(log_core.c.obj)
 .debug_frame   0x00001054      0x174 zephyr/libzephyr.a(log_msg.c.obj)
 .debug_frame   0x000011c8      0x208 zephyr/libzephyr.a(log_output.c.obj)
 .debug_frame   0x000013d0      0x26c zephyr/libzephyr.a(log_cmds.c.obj)
 .debug_frame   0x0000163c      0x11c zephyr/libzephyr.a(kernel_service.c.obj)
 .debug_frame   0x00001758       0x6c zephyr/libzephyr.a(device_service.c.obj)
 .debug_frame   0x000017c4       0x98 zephyr/libzephyr.a(date_service.c.obj)
 .debug_frame   0x0000185c      0x334 zephyr/libzephyr.a(shell.c.obj)
 .debug_frame   0x00001b90       0x64 zephyr/libzephyr.a(shell_fprintf.c.obj)
 .debug_frame   0x00001bf4      0x1fc zephyr/libzephyr.a(shell_utils.c.obj)
 .debug_frame   0x00001df0      0x37c zephyr/libzephyr.a(shell_ops.c.obj)
 .debug_frame   0x0000216c       0xfc zephyr/libzephyr.a(shell_uart.c.obj)
 .debug_frame   0x00002268       0xcc zephyr/libzephyr.a(shell_help.c.obj)
 .debug_frame   0x00002334      0x178 zephyr/libzephyr.a(shell_cmds.c.obj)
 .debug_frame   0x000024ac       0xb0 zephyr/libzephyr.a(shell_history.c.obj)
 .debug_frame   0x0000255c       0xf0 zephyr/libzephyr.a(shell_log_backend.c.obj)
 .debug_frame   0x0000264c       0x88 zephyr/libzephyr.a(shell_wildcard.c.obj)
 .debug_frame   0x000026d4       0x8c zephyr/libzephyr.a(power.c.obj)
 .debug_frame   0x00002760       0x28 zephyr/libzephyr.a(reboot.c.obj)
 .debug_frame   0x00002788       0x44 zephyr/libzephyr.a(uart_console.c.obj)
 .debug_frame   0x000027cc      0x290 zephyr/libzephyr.a(clock_control_nrf.c.obj)
 .debug_frame   0x00002a5c       0x70 zephyr/libzephyr.a(sys_clock_init.c.obj)
 .debug_frame   0x00002acc       0x8c zephyr/libzephyr.a(nrf_rtc_timer.c.obj)
 .debug_frame   0x00002b58       0x40 zephyr/libzephyr.a(secure_services_ns.c.obj)
 .debug_frame   0x00002b98       0x20 zephyr/arch/arch/arm/core/aarch32/libarch__arm__core__aarch32.a(swap.c.obj)
 .debug_frame   0x00002bb8       0x78 zephyr/arch/arch/arm/core/aarch32/libarch__arm__core__aarch32.a(irq_manage.c.obj)
 .debug_frame   0x00002c30       0x48 zephyr/arch/arch/arm/core/aarch32/libarch__arm__core__aarch32.a(thread.c.obj)
 .debug_frame   0x00002c78       0x60 zephyr/arch/arch/arm/core/aarch32/libarch__arm__core__aarch32.a(fatal.c.obj)
 .debug_frame   0x00002cd8       0x2c zephyr/arch/arch/arm/core/aarch32/libarch__arm__core__aarch32.a(nmi.c.obj)
 .debug_frame   0x00002d04       0x28 zephyr/arch/arch/arm/core/aarch32/libarch__arm__core__aarch32.a(prep_c.c.obj)
 .debug_frame   0x00002d2c       0xa0 zephyr/arch/arch/arm/core/aarch32/cortex_m/libarch__arm__core__aarch32__cortex_m.a(fault.c.obj)
 .debug_frame   0x00002dcc       0x30 zephyr/arch/arch/arm/core/aarch32/cortex_m/libarch__arm__core__aarch32__cortex_m.a(scb.c.obj)
 .debug_frame   0x00002dfc       0x20 zephyr/arch/arch/arm/core/aarch32/cortex_m/libarch__arm__core__aarch32__cortex_m.a(irq_init.c.obj)
 .debug_frame   0x00002e1c       0x30 zephyr/arch/arch/arm/core/aarch32/cortex_m/libarch__arm__core__aarch32__cortex_m.a(thread_abort.c.obj)
 .debug_frame   0x00002e4c       0x48 zephyr/arch/arch/arm/core/aarch32/cortex_m/mpu/libarch__arm__core__aarch32__cortex_m__mpu.a(arm_core_mpu.c.obj)
 .debug_frame   0x00002e94      0x138 zephyr/arch/arch/arm/core/aarch32/cortex_m/mpu/libarch__arm__core__aarch32__cortex_m__mpu.a(arm_mpu.c.obj)
 .debug_frame   0x00002fcc       0x70 zephyr/arch/arch/arm/core/aarch32/cortex_m/cmse/libarch__arm__core__aarch32__cortex_m__cmse.a(arm_core_cmse.c.obj)
 .debug_frame   0x0000303c       0x34 zephyr/lib/libc/minimal/liblib__libc__minimal.a(strtol.c.obj)
 .debug_frame   0x00003070       0x30 zephyr/lib/libc/minimal/liblib__libc__minimal.a(strstr.c.obj)
 .debug_frame   0x000030a0      0x188 zephyr/lib/libc/minimal/liblib__libc__minimal.a(string.c.obj)
 .debug_frame   0x00003228       0xb8 zephyr/lib/libc/minimal/liblib__libc__minimal.a(stdout_console.c.obj)
 .debug_frame   0x000032e0       0xa4 zephyr/lib/libc/minimal/liblib__libc__minimal.a(sprintf.c.obj)
 .debug_frame   0x00003384       0x8c zephyr/lib/libc/minimal/liblib__libc__minimal.a(fprintf.c.obj)
 .debug_frame   0x00003410       0x4c zephyr/lib/libc/minimal/liblib__libc__minimal.a(gmtime.c.obj)
 .debug_frame   0x0000345c       0x6c zephyr/lib/posix/liblib__posix.a(clock.c.obj)
 .debug_frame   0x000034c8      0x104 zephyr/drivers/gpio/libdrivers__gpio.a(gpio_nrfx.c.obj)
 .debug_frame   0x000035cc      0x1f8 zephyr/drivers/serial/libdrivers__serial.a(uart_nrfx_uarte.c.obj)
 .debug_frame   0x000037c4       0x28 modules/nrf/lib/fatal_error/lib..__nrf__lib__fatal_error.a(fatal_error.c.obj)
 .debug_frame   0x000037ec       0x7c modules/nrf/subsys/fw_info/lib..__nrf__subsys__fw_info.a(fw_info.c.obj)
 .debug_frame   0x00003868       0x30 modules/nordic/lib..__modules__hal__nordic.a(system_nrf9160.c.obj)
 .debug_frame   0x00003898       0x40 modules/nordic/lib..__modules__hal__nordic.a(nrfx_glue.c.obj)
 .debug_frame   0x000038d8       0xf8 modules/nordic/lib..__modules__hal__nordic.a(nrfx_clock.c.obj)
 .debug_frame   0x000039d0      0x100 modules/nordic/lib..__modules__hal__nordic.a(nrfx_dppi.c.obj)
 .debug_frame   0x00003ad0       0x8c zephyr/kernel/libkernel.a(device.c.obj)
 .debug_frame   0x00003b5c       0x20 zephyr/kernel/libkernel.a(errno.c.obj)
 .debug_frame   0x00003b7c       0xb0 zephyr/kernel/libkernel.a(fatal.c.obj)
 .debug_frame   0x00003c2c       0x40 zephyr/kernel/libkernel.a(idle.c.obj)
 .debug_frame   0x00003c6c       0x84 zephyr/kernel/libkernel.a(init.c.obj)
 .debug_frame   0x00003cf0       0x90 zephyr/kernel/libkernel.a(mem_slab.c.obj)
 .debug_frame   0x00003d80      0x100 zephyr/kernel/libkernel.a(msg_q.c.obj)
 .debug_frame   0x00003e80       0x64 zephyr/kernel/libkernel.a(mutex.c.obj)
 .debug_frame   0x00003ee4      0x158 zephyr/kernel/libkernel.a(queue.c.obj)
 .debug_frame   0x0000403c      0x5c4 zephyr/kernel/libkernel.a(sched.c.obj)
 .debug_frame   0x00004600       0x68 zephyr/kernel/libkernel.a(sem.c.obj)
 .debug_frame   0x00004668      0x1ec zephyr/kernel/libkernel.a(thread.c.obj)
 .debug_frame   0x00004854       0x28 zephyr/kernel/libkernel.a(thread_abort.c.obj)
 .debug_frame   0x0000487c       0x20 zephyr/kernel/libkernel.a(version.c.obj)
 .debug_frame   0x0000489c      0x1b0 zephyr/kernel/libkernel.a(timeout.c.obj)
 .debug_frame   0x00004a4c       0xc4 zephyr/kernel/libkernel.a(timer.c.obj)
 .debug_frame   0x00004b10      0x1d4 zephyr/kernel/libkernel.a(poll.c.obj)
 .debug_frame   0x00004ce4       0xb0 zephyr/kernel/libkernel.a(mempool.c.obj)
 .debug_frame   0x00004d94       0xd0 zephyr/kernel/libkernel.a(kheap.c.obj)
 .debug_frame   0x00004e64       0x20 zephyr/CMakeFiles/offsets.dir/arch/arm/core/offsets/offsets.c.obj
 .debug_frame   0x00004e84       0x44 c:/users/pablo/ncs/v1.4.99-dev1/toolchain/opt/bin/../lib/gcc/arm-none-eabi/9.2.1/thumb/v8-m.main/nofp\libgcc.a(_aeabi_ldivmod.o)
 .debug_frame   0x00004ec8       0x2c c:/users/pablo/ncs/v1.4.99-dev1/toolchain/opt/bin/../lib/gcc/arm-none-eabi/9.2.1/thumb/v8-m.main/nofp\libgcc.a(_aeabi_uldivmod.o)
 .debug_frame   0x00004ef4       0x34 c:/users/pablo/ncs/v1.4.99-dev1/toolchain/opt/bin/../lib/gcc/arm-none-eabi/9.2.1/thumb/v8-m.main/nofp\libgcc.a(_udivmoddi4.o)

.debug_str      0x00000000     0xd50f
 *(SORT_BY_ALIGNMENT(.debug_str))
 .debug_str     0x00000000      0x2de zephyr/CMakeFiles/zephyr_final.dir/isr_tables.c.obj
                                0x360 (size before relaxing)
 .debug_str     0x000002de     0x1228 app/libapp.a(main.c.obj)
                               0x195a (size before relaxing)
 .debug_str     0x00001506       0x7b app/libapp.a(test_module.c.obj)
                                0x3e0 (size before relaxing)
 .debug_str     0x00001581      0x282 app/libapp.a(dynamic_cmd.c.obj)
                               0x1594 (size before relaxing)
 .debug_str     0x00001803       0x42 app/libapp.a(qsort.c.obj)
                                0x209 (size before relaxing)
 .debug_str     0x00001845       0xa3 zephyr/libzephyr.a(fnmatch.c.obj)
                                0x276 (size before relaxing)
 .debug_str     0x000018e8       0x54 zephyr/libzephyr.a(hex.c.obj)
                                0x2b0 (size before relaxing)
 .debug_str     0x0000193c       0xb7 zephyr/libzephyr.a(notify.c.obj)
                                0x810 (size before relaxing)
 .debug_str     0x000019f3       0xbf zephyr/libzephyr.a(printk.c.obj)
                                0x9ae (size before relaxing)
 .debug_str     0x00001ab2      0x420 zephyr/libzephyr.a(onoff.c.obj)
                                0xc11 (size before relaxing)
 .debug_str     0x00001ed2       0x77 zephyr/libzephyr.a(thread_entry.c.obj)
                                0x79f (size before relaxing)
 .debug_str     0x00001f49       0xdb zephyr/libzephyr.a(timeutil.c.obj)
                                0x328 (size before relaxing)
 .debug_str     0x00002024      0x2fd zephyr/libzephyr.a(heap.c.obj)
                                0xa7c (size before relaxing)
 .debug_str     0x00002321      0x352 zephyr/libzephyr.a(cbprintf_complete.c.obj)
                                0x649 (size before relaxing)
 .debug_str     0x00002673      0x199 zephyr/libzephyr.a(ring_buffer.c.obj)
                                0x9dd (size before relaxing)
 .debug_str     0x0000280c       0x2f zephyr/libzephyr.a(configs.c.obj)
                                0x1d7 (size before relaxing)
 .debug_str     0x0000283b      0x1d6 zephyr/libzephyr.a(soc.c.obj)
                                0xae5 (size before relaxing)
 .debug_str     0x00002a11       0x91 zephyr/libzephyr.a(log_list.c.obj)
                                0x466 (size before relaxing)
 .debug_str     0x00002aa2      0x9f4 zephyr/libzephyr.a(log_core.c.obj)
                               0x18cf (size before relaxing)
 .debug_str     0x00003496      0x17e zephyr/libzephyr.a(log_msg.c.obj)
                                0xeb5 (size before relaxing)
 .debug_str     0x00003614      0x256 zephyr/libzephyr.a(log_output.c.obj)
                                0xeda (size before relaxing)
 .debug_str     0x0000386a      0x300 zephyr/libzephyr.a(log_cmds.c.obj)
                               0x1866 (size before relaxing)
 .debug_str     0x00003b6a      0x220 zephyr/libzephyr.a(kernel_service.c.obj)
                               0x17cc (size before relaxing)
 .debug_str     0x00003d8a      0x158 zephyr/libzephyr.a(device_service.c.obj)
                               0x15d8 (size before relaxing)
 .debug_str     0x00003ee2      0x12b zephyr/libzephyr.a(date_service.c.obj)
                               0x1618 (size before relaxing)
 .debug_str     0x0000400d      0xc00 zephyr/libzephyr.a(shell.c.obj)
                               0x2310 (size before relaxing)
 .debug_str     0x00004c0d       0x4f zephyr/libzephyr.a(shell_fprintf.c.obj)
                               0x136b (size before relaxing)
 .debug_str     0x00004c5c      0x2b2 zephyr/libzephyr.a(shell_utils.c.obj)
                               0x169e (size before relaxing)
 .debug_str     0x00004f0e      0x1fa zephyr/libzephyr.a(shell_ops.c.obj)
                               0x18b6 (size before relaxing)
 .debug_str     0x00005108      0x5eb zephyr/libzephyr.a(shell_uart.c.obj)
                               0x1e0e (size before relaxing)
 .debug_str     0x000056f3       0xd6 zephyr/libzephyr.a(shell_help.c.obj)
                               0x14e1 (size before relaxing)
 .debug_str     0x000057c9      0x294 zephyr/libzephyr.a(shell_cmds.c.obj)
                               0x18a6 (size before relaxing)
 .debug_str     0x00005a5d      0x1a9 zephyr/libzephyr.a(shell_history.c.obj)
                                0xa2c (size before relaxing)
 .debug_str     0x00005c06      0x108 zephyr/libzephyr.a(shell_log_backend.c.obj)
                               0x187c (size before relaxing)
 .debug_str     0x00005d0e       0x65 zephyr/libzephyr.a(shell_wildcard.c.obj)
                               0x1503 (size before relaxing)
 .debug_str     0x00005d73      0x231 zephyr/libzephyr.a(power.c.obj)
                                0xb6b (size before relaxing)
 .debug_str     0x00005fa4       0x78 zephyr/libzephyr.a(reboot.c.obj)
                                0x7a0 (size before relaxing)
 .debug_str     0x0000601c       0xc8 zephyr/libzephyr.a(uart_console.c.obj)
                                0xac8 (size before relaxing)
 .debug_str     0x000060e4     0x1062 zephyr/libzephyr.a(clock_control_nrf.c.obj)
                               0x289d (size before relaxing)
 .debug_str     0x00007146       0xe8 zephyr/libzephyr.a(sys_clock_init.c.obj)
                                0x966 (size before relaxing)
 .debug_str     0x0000722e      0x483 zephyr/libzephyr.a(nrf_rtc_timer.c.obj)
                               0x121c (size before relaxing)
 .debug_str     0x000076b1       0xf6 zephyr/libzephyr.a(secure_services_ns.c.obj)
                                0x882 (size before relaxing)
 .debug_str     0x000077a7      0x15d zephyr/arch/arch/arm/core/aarch32/libarch__arm__core__aarch32.a(swap.c.obj)
                                0x8cc (size before relaxing)
 .debug_str     0x00007904      0x189 zephyr/arch/arch/arm/core/aarch32/libarch__arm__core__aarch32.a(irq_manage.c.obj)
                                0xc80 (size before relaxing)
 .debug_str     0x00007a8d      0x11b zephyr/arch/arch/arm/core/aarch32/libarch__arm__core__aarch32.a(thread.c.obj)
                                0x893 (size before relaxing)
 .debug_str     0x00007ba8       0xd2 zephyr/arch/arch/arm/core/aarch32/libarch__arm__core__aarch32.a(fatal.c.obj)
                                0xae9 (size before relaxing)
 .debug_str     0x00007c7a       0x6c zephyr/arch/arch/arm/core/aarch32/libarch__arm__core__aarch32.a(nmi.c.obj)
                                0x76f (size before relaxing)
 .debug_str     0x00007ce6      0x2ab zephyr/arch/arch/arm/core/aarch32/libarch__arm__core__aarch32.a(prep_c.c.obj)
                                0xb51 (size before relaxing)
 .debug_str     0x00007f91       0x59 zephyr/arch/arch/arm/core/aarch32/libarch__arm__core__aarch32.a(swap_helper.S.obj)
                                 0xbc (size before relaxing)
 .debug_str     0x00007fea       0x48 zephyr/arch/arch/arm/core/aarch32/libarch__arm__core__aarch32.a(cpu_idle.S.obj)
                                 0xb9 (size before relaxing)
 .debug_str     0x00008032       0x4c zephyr/arch/arch/arm/core/aarch32/libarch__arm__core__aarch32.a(nmi_on_reset.S.obj)
                                 0xbd (size before relaxing)
 .debug_str     0x0000807e       0x4b zephyr/arch/arch/arm/core/aarch32/libarch__arm__core__aarch32.a(isr_wrapper.S.obj)
                                 0xbc (size before relaxing)
 .debug_str     0x000080c9       0x4e zephyr/arch/arch/arm/core/aarch32/cortex_m/libarch__arm__core__aarch32__cortex_m.a(reset.S.obj)
                                 0xbf (size before relaxing)
 .debug_str     0x00008117       0x50 zephyr/arch/arch/arm/core/aarch32/cortex_m/libarch__arm__core__aarch32__cortex_m.a(fault_s.S.obj)
                                 0xc1 (size before relaxing)
 .debug_str     0x00008167       0x51 zephyr/arch/arch/arm/core/aarch32/cortex_m/libarch__arm__core__aarch32__cortex_m.a(exc_exit.S.obj)
                                 0xc2 (size before relaxing)
 .debug_str     0x000081b8      0x160 zephyr/arch/arch/arm/core/aarch32/cortex_m/libarch__arm__core__aarch32__cortex_m.a(fault.c.obj)
                                0xd21 (size before relaxing)
 .debug_str     0x00008318       0xfe zephyr/arch/arch/arm/core/aarch32/cortex_m/libarch__arm__core__aarch32__cortex_m.a(scb.c.obj)
                                0xb39 (size before relaxing)
 .debug_str     0x00008416       0x51 zephyr/arch/arch/arm/core/aarch32/cortex_m/libarch__arm__core__aarch32__cortex_m.a(irq_init.c.obj)
                                0x77c (size before relaxing)
 .debug_str     0x00008467       0xbd zephyr/arch/arch/arm/core/aarch32/cortex_m/libarch__arm__core__aarch32__cortex_m.a(thread_abort.c.obj)
                                0x950 (size before relaxing)
 .debug_str     0x00008524      0x17d zephyr/arch/arch/arm/core/aarch32/cortex_m/mpu/libarch__arm__core__aarch32__cortex_m__mpu.a(arm_core_mpu.c.obj)
                                0xc8a (size before relaxing)
 .debug_str     0x000086a1      0x35b zephyr/arch/arch/arm/core/aarch32/cortex_m/mpu/libarch__arm__core__aarch32__cortex_m__mpu.a(arm_mpu.c.obj)
                               0x1126 (size before relaxing)
 .debug_str     0x000089fc      0x187 zephyr/arch/arch/arm/core/aarch32/cortex_m/cmse/libarch__arm__core__aarch32__cortex_m__cmse.a(arm_core_cmse.c.obj)
                                0x8d3 (size before relaxing)
 .debug_str     0x00008b83       0x62 zephyr/lib/libc/minimal/liblib__libc__minimal.a(strtol.c.obj)
                                0x2e9 (size before relaxing)
 .debug_str     0x00008be5       0x4f zephyr/lib/libc/minimal/liblib__libc__minimal.a(strstr.c.obj)
                                0x22b (size before relaxing)
 .debug_str     0x00008c34       0xc4 zephyr/lib/libc/minimal/liblib__libc__minimal.a(string.c.obj)
                                0x36b (size before relaxing)
 .debug_str     0x00008cf8       0xb4 zephyr/lib/libc/minimal/liblib__libc__minimal.a(stdout_console.c.obj)
                                0x35f (size before relaxing)
 .debug_str     0x00008dac       0x7d zephyr/lib/libc/minimal/liblib__libc__minimal.a(sprintf.c.obj)
                                0x28c (size before relaxing)
 .debug_str     0x00008e29       0x50 zephyr/lib/libc/minimal/liblib__libc__minimal.a(fprintf.c.obj)
                                0x26c (size before relaxing)
 .debug_str     0x00008e79       0x82 zephyr/lib/libc/minimal/liblib__libc__minimal.a(gmtime.c.obj)
                                0x332 (size before relaxing)
 .debug_str     0x00008efb       0x8c zephyr/lib/posix/liblib__posix.a(clock.c.obj)
                                0x9cc (size before relaxing)
 .debug_str     0x00008f87       0x51 zephyr/soc/arm/common/cortex_m/libsoc__arm__common__cortex_m.a(arm_mpu_regions.c.obj)
                                0x38b (size before relaxing)
 .debug_str     0x00008fd8      0xba1 zephyr/drivers/gpio/libdrivers__gpio.a(gpio_nrfx.c.obj)
                               0x170e (size before relaxing)
 .debug_str     0x00009b79     0x141a zephyr/drivers/serial/libdrivers__serial.a(uart_nrfx_uarte.c.obj)
                               0x25f1 (size before relaxing)
 .debug_str     0x0000af93       0x8a modules/nrf/lib/fatal_error/lib..__nrf__lib__fatal_error.a(fatal_error.c.obj)
                                0xc38 (size before relaxing)
 .debug_str     0x0000b01d      0x271 modules/nrf/subsys/fw_info/lib..__nrf__subsys__fw_info.a(fw_info.c.obj)
                                0xc30 (size before relaxing)
 .debug_str     0x0000b28e       0x63 modules/nordic/lib..__modules__hal__nordic.a(system_nrf9160.c.obj)
                                0x2c8 (size before relaxing)
 .debug_str     0x0000b2f1       0x71 modules/nordic/lib..__modules__hal__nordic.a(nrfx_glue.c.obj)
                                0x93b (size before relaxing)
 .debug_str     0x0000b362      0x1d5 modules/nordic/lib..__modules__hal__nordic.a(nrfx_clock.c.obj)
                                0xfc2 (size before relaxing)
 .debug_str     0x0000b537      0x2f1 modules/nordic/lib..__modules__hal__nordic.a(nrfx_dppi.c.obj)
                                0xa30 (size before relaxing)
 .debug_str     0x0000b828      0x172 zephyr/kernel/libkernel.a(device.c.obj)
                                0x916 (size before relaxing)
 .debug_str     0x0000b99a       0x36 zephyr/kernel/libkernel.a(errno.c.obj)
                                0x867 (size before relaxing)
 .debug_str     0x0000b9d0       0xc1 zephyr/kernel/libkernel.a(fatal.c.obj)
                                0xe2e (size before relaxing)
 .debug_str     0x0000ba91       0xaf zephyr/kernel/libkernel.a(idle.c.obj)
                                0x9ee (size before relaxing)
 .debug_str     0x0000bb40      0x1cf zephyr/kernel/libkernel.a(init.c.obj)
                               0x1442 (size before relaxing)
 .debug_str     0x0000bd0f      0x12e zephyr/kernel/libkernel.a(mem_slab.c.obj)
                                0xad7 (size before relaxing)
 .debug_str     0x0000be3d       0xd9 zephyr/kernel/libkernel.a(msg_q.c.obj)
                                0xa18 (size before relaxing)
 .debug_str     0x0000bf16      0x13c zephyr/kernel/libkernel.a(mutex.c.obj)
                                0xb75 (size before relaxing)
 .debug_str     0x0000c052      0x2c3 zephyr/kernel/libkernel.a(queue.c.obj)
                                0xc72 (size before relaxing)
 .debug_str     0x0000c315      0x7f4 zephyr/kernel/libkernel.a(sched.c.obj)
                               0x1445 (size before relaxing)
 .debug_str     0x0000cb09       0x54 zephyr/kernel/libkernel.a(sem.c.obj)
                                0xa1a (size before relaxing)
 .debug_str     0x0000cb5d      0x2b3 zephyr/kernel/libkernel.a(thread.c.obj)
                                0xeb4 (size before relaxing)
 .debug_str     0x0000ce10       0x3d zephyr/kernel/libkernel.a(thread_abort.c.obj)
                                0x91e (size before relaxing)
 .debug_str     0x0000ce4d       0x38 zephyr/kernel/libkernel.a(version.c.obj)
                                0x290 (size before relaxing)
 .debug_str     0x0000ce85       0xf5 zephyr/kernel/libkernel.a(timeout.c.obj)
                                0xb80 (size before relaxing)
 .debug_str     0x0000cf7a       0xaf zephyr/kernel/libkernel.a(timer.c.obj)
                                0xb90 (size before relaxing)
 .debug_str     0x0000d029      0x2e2 zephyr/kernel/libkernel.a(poll.c.obj)
                                0xfaa (size before relaxing)
 .debug_str     0x0000d30b      0x104 zephyr/kernel/libkernel.a(mempool.c.obj)
                                0x9b5 (size before relaxing)
 .debug_str     0x0000d40f       0xaa zephyr/kernel/libkernel.a(kheap.c.obj)
                                0xa77 (size before relaxing)
 .debug_str     0x0000d4b9       0x56 zephyr/CMakeFiles/offsets.dir/arch/arm/core/offsets/offsets.c.obj
                                0x788 (size before relaxing)

.debug_loc      0x00000000    0x2dc84
 *(SORT_BY_ALIGNMENT(.debug_loc))
 .debug_loc     0x00000000      0x97f app/libapp.a(main.c.obj)
 .debug_loc     0x0000097f       0x4e app/libapp.a(test_module.c.obj)
 .debug_loc     0x000009cd      0x511 app/libapp.a(dynamic_cmd.c.obj)
 .debug_loc     0x00000ede      0x6b1 app/libapp.a(qsort.c.obj)
 .debug_loc     0x0000158f      0x6ae zephyr/libzephyr.a(fnmatch.c.obj)
 .debug_loc     0x00001c3d      0x347 zephyr/libzephyr.a(hex.c.obj)
 .debug_loc     0x00001f84      0x225 zephyr/libzephyr.a(notify.c.obj)
 .debug_loc     0x000021a9      0x280 zephyr/libzephyr.a(printk.c.obj)
 .debug_loc     0x00002429     0x1fd3 zephyr/libzephyr.a(onoff.c.obj)
 .debug_loc     0x000043fc       0xc0 zephyr/libzephyr.a(thread_entry.c.obj)
 .debug_loc     0x000044bc      0x2be zephyr/libzephyr.a(timeutil.c.obj)
 .debug_loc     0x0000477a     0x1bb4 zephyr/libzephyr.a(heap.c.obj)
 .debug_loc     0x0000632e     0x132c zephyr/libzephyr.a(cbprintf_complete.c.obj)
 .debug_loc     0x0000765a      0xc15 zephyr/libzephyr.a(ring_buffer.c.obj)
 .debug_loc     0x0000826f      0x11c zephyr/libzephyr.a(soc.c.obj)
 .debug_loc     0x0000838b       0x5c zephyr/libzephyr.a(log_list.c.obj)
 .debug_loc     0x000083e7     0x2074 zephyr/libzephyr.a(log_core.c.obj)
 .debug_loc     0x0000a45b      0xe2a zephyr/libzephyr.a(log_msg.c.obj)
 .debug_loc     0x0000b285     0x19a1 zephyr/libzephyr.a(log_output.c.obj)
 .debug_loc     0x0000cc26     0x115f zephyr/libzephyr.a(log_cmds.c.obj)
 .debug_loc     0x0000dd85      0x7ba zephyr/libzephyr.a(kernel_service.c.obj)
 .debug_loc     0x0000e53f      0x1c8 zephyr/libzephyr.a(device_service.c.obj)
 .debug_loc     0x0000e707      0x40a zephyr/libzephyr.a(date_service.c.obj)
 .debug_loc     0x0000eb11     0x30c4 zephyr/libzephyr.a(shell.c.obj)
 .debug_loc     0x00011bd5      0x14e zephyr/libzephyr.a(shell_fprintf.c.obj)
 .debug_loc     0x00011d23      0xe56 zephyr/libzephyr.a(shell_utils.c.obj)
 .debug_loc     0x00012b79     0x1244 zephyr/libzephyr.a(shell_ops.c.obj)
 .debug_loc     0x00013dbd      0xb23 zephyr/libzephyr.a(shell_uart.c.obj)
 .debug_loc     0x000148e0      0x614 zephyr/libzephyr.a(shell_help.c.obj)
 .debug_loc     0x00014ef4      0xb4f zephyr/libzephyr.a(shell_cmds.c.obj)
 .debug_loc     0x00015a43      0x5c4 zephyr/libzephyr.a(shell_history.c.obj)
 .debug_loc     0x00016007      0x9a8 zephyr/libzephyr.a(shell_log_backend.c.obj)
 .debug_loc     0x000169af      0x468 zephyr/libzephyr.a(shell_wildcard.c.obj)
 .debug_loc     0x00016e17       0x3b zephyr/libzephyr.a(power.c.obj)
 .debug_loc     0x00016e52       0x22 zephyr/libzephyr.a(reboot.c.obj)
 .debug_loc     0x00016e74      0x144 zephyr/libzephyr.a(uart_console.c.obj)
 .debug_loc     0x00016fb8     0x1bb4 zephyr/libzephyr.a(clock_control_nrf.c.obj)
 .debug_loc     0x00018b6c       0x4a zephyr/libzephyr.a(sys_clock_init.c.obj)
 .debug_loc     0x00018bb6      0xa83 zephyr/libzephyr.a(nrf_rtc_timer.c.obj)
 .debug_loc     0x00019639       0x6f zephyr/libzephyr.a(secure_services_ns.c.obj)
 .debug_loc     0x000196a8       0x3b zephyr/arch/arch/arm/core/aarch32/libarch__arm__core__aarch32.a(swap.c.obj)
 .debug_loc     0x000196e3      0x1c3 zephyr/arch/arch/arm/core/aarch32/libarch__arm__core__aarch32.a(irq_manage.c.obj)
 .debug_loc     0x000198a6      0x149 zephyr/arch/arch/arm/core/aarch32/libarch__arm__core__aarch32.a(thread.c.obj)
 .debug_loc     0x000199ef      0x191 zephyr/arch/arch/arm/core/aarch32/libarch__arm__core__aarch32.a(fatal.c.obj)
 .debug_loc     0x00019b80       0x3c zephyr/arch/arch/arm/core/aarch32/libarch__arm__core__aarch32.a(prep_c.c.obj)
 .debug_loc     0x00019bbc      0xa19 zephyr/arch/arch/arm/core/aarch32/cortex_m/libarch__arm__core__aarch32__cortex_m.a(fault.c.obj)
 .debug_loc     0x0001a5d5       0x6e zephyr/arch/arch/arm/core/aarch32/cortex_m/libarch__arm__core__aarch32__cortex_m.a(scb.c.obj)
 .debug_loc     0x0001a643       0x6a zephyr/arch/arch/arm/core/aarch32/cortex_m/libarch__arm__core__aarch32__cortex_m.a(irq_init.c.obj)
 .debug_loc     0x0001a6ad       0x6c zephyr/arch/arch/arm/core/aarch32/cortex_m/libarch__arm__core__aarch32__cortex_m.a(thread_abort.c.obj)
 .debug_loc     0x0001a719       0x25 zephyr/arch/arch/arm/core/aarch32/cortex_m/mpu/libarch__arm__core__aarch32__cortex_m__mpu.a(arm_core_mpu.c.obj)
 .debug_loc     0x0001a73e      0xb64 zephyr/arch/arch/arm/core/aarch32/cortex_m/mpu/libarch__arm__core__aarch32__cortex_m__mpu.a(arm_mpu.c.obj)
 .debug_loc     0x0001b2a2      0x5ab zephyr/arch/arch/arm/core/aarch32/cortex_m/cmse/libarch__arm__core__aarch32__cortex_m__cmse.a(arm_core_cmse.c.obj)
 .debug_loc     0x0001b84d      0x3e0 zephyr/lib/libc/minimal/liblib__libc__minimal.a(strtol.c.obj)
 .debug_loc     0x0001bc2d       0xf4 zephyr/lib/libc/minimal/liblib__libc__minimal.a(strstr.c.obj)
 .debug_loc     0x0001bd21      0xc0f zephyr/lib/libc/minimal/liblib__libc__minimal.a(string.c.obj)
 .debug_loc     0x0001c930      0x592 zephyr/lib/libc/minimal/liblib__libc__minimal.a(stdout_console.c.obj)
 .debug_loc     0x0001cec2      0x26b zephyr/lib/libc/minimal/liblib__libc__minimal.a(sprintf.c.obj)
 .debug_loc     0x0001d12d      0x11c zephyr/lib/libc/minimal/liblib__libc__minimal.a(fprintf.c.obj)
 .debug_loc     0x0001d249      0x392 zephyr/lib/libc/minimal/liblib__libc__minimal.a(gmtime.c.obj)
 .debug_loc     0x0001d5db      0x435 zephyr/lib/posix/liblib__posix.a(clock.c.obj)
 .debug_loc     0x0001da10     0x1a1b zephyr/drivers/gpio/libdrivers__gpio.a(gpio_nrfx.c.obj)
 .debug_loc     0x0001f42b     0x2348 zephyr/drivers/serial/libdrivers__serial.a(uart_nrfx_uarte.c.obj)
 .debug_loc     0x00021773       0x64 modules/nrf/lib/fatal_error/lib..__nrf__lib__fatal_error.a(fatal_error.c.obj)
 .debug_loc     0x000217d7      0x4af modules/nrf/subsys/fw_info/lib..__nrf__subsys__fw_info.a(fw_info.c.obj)
 .debug_loc     0x00021c86      0x264 modules/nordic/lib..__modules__hal__nordic.a(nrfx_glue.c.obj)
 .debug_loc     0x00021eea      0x87f modules/nordic/lib..__modules__hal__nordic.a(nrfx_clock.c.obj)
 .debug_loc     0x00022769      0x975 modules/nordic/lib..__modules__hal__nordic.a(nrfx_dppi.c.obj)
 .debug_loc     0x000230de      0x17a zephyr/kernel/libkernel.a(device.c.obj)
 .debug_loc     0x00023258      0x28b zephyr/kernel/libkernel.a(fatal.c.obj)
 .debug_loc     0x000234e3      0x182 zephyr/kernel/libkernel.a(idle.c.obj)
 .debug_loc     0x00023665      0x295 zephyr/kernel/libkernel.a(init.c.obj)
 .debug_loc     0x000238fa      0x5be zephyr/kernel/libkernel.a(mem_slab.c.obj)
 .debug_loc     0x00023eb8      0x8c0 zephyr/kernel/libkernel.a(msg_q.c.obj)
 .debug_loc     0x00024778      0x526 zephyr/kernel/libkernel.a(mutex.c.obj)
 .debug_loc     0x00024c9e     0x10aa zephyr/kernel/libkernel.a(queue.c.obj)
 .debug_loc     0x00025d48     0x3b1f zephyr/kernel/libkernel.a(sched.c.obj)
 .debug_loc     0x00029867      0x329 zephyr/kernel/libkernel.a(sem.c.obj)
 .debug_loc     0x00029b90      0xda6 zephyr/kernel/libkernel.a(thread.c.obj)
 .debug_loc     0x0002a936       0x54 zephyr/kernel/libkernel.a(thread_abort.c.obj)
 .debug_loc     0x0002a98a      0xcf3 zephyr/kernel/libkernel.a(timeout.c.obj)
 .debug_loc     0x0002b67d      0x5db zephyr/kernel/libkernel.a(timer.c.obj)
 .debug_loc     0x0002bc58     0x1894 zephyr/kernel/libkernel.a(poll.c.obj)
 .debug_loc     0x0002d4ec      0x31d zephyr/kernel/libkernel.a(mempool.c.obj)
 .debug_loc     0x0002d809      0x47b zephyr/kernel/libkernel.a(kheap.c.obj)

.debug_macinfo
 *(SORT_BY_ALIGNMENT(.debug_macinfo))

.debug_weaknames
 *(SORT_BY_ALIGNMENT(.debug_weaknames))

.debug_funcnames
 *(SORT_BY_ALIGNMENT(.debug_funcnames))

.debug_typenames
 *(SORT_BY_ALIGNMENT(.debug_typenames))

.debug_varnames
 *(SORT_BY_ALIGNMENT(.debug_varnames))

.debug_pubtypes
 *(SORT_BY_ALIGNMENT(.debug_pubtypes))

.debug_ranges   0x00000000     0xa088
 *(SORT_BY_ALIGNMENT(.debug_ranges))
 .debug_ranges  0x00000000       0x20 zephyr/arch/arch/arm/core/aarch32/libarch__arm__core__aarch32.a(swap_helper.S.obj)
 .debug_ranges  0x00000020       0x28 zephyr/arch/arch/arm/core/aarch32/libarch__arm__core__aarch32.a(cpu_idle.S.obj)
 .debug_ranges  0x00000048      0x1c8 app/libapp.a(main.c.obj)
 .debug_ranges  0x00000210       0xe0 app/libapp.a(test_module.c.obj)
 .debug_ranges  0x000002f0       0xc0 app/libapp.a(dynamic_cmd.c.obj)
 .debug_ranges  0x000003b0       0x20 app/libapp.a(qsort.c.obj)
 .debug_ranges  0x000003d0       0x58 zephyr/libzephyr.a(fnmatch.c.obj)
 .debug_ranges  0x00000428       0x40 zephyr/libzephyr.a(hex.c.obj)
 .debug_ranges  0x00000468       0x30 zephyr/libzephyr.a(notify.c.obj)
 .debug_ranges  0x00000498       0x58 zephyr/libzephyr.a(printk.c.obj)
 .debug_ranges  0x000004f0      0x6d0 zephyr/libzephyr.a(onoff.c.obj)
 .debug_ranges  0x00000bc0       0x10 zephyr/libzephyr.a(thread_entry.c.obj)
 .debug_ranges  0x00000bd0       0x68 zephyr/libzephyr.a(timeutil.c.obj)
 .debug_ranges  0x00000c38      0x4c0 zephyr/libzephyr.a(heap.c.obj)
 .debug_ranges  0x000010f8      0x218 zephyr/libzephyr.a(cbprintf_complete.c.obj)
 .debug_ranges  0x00001310      0x170 zephyr/libzephyr.a(ring_buffer.c.obj)
 .debug_ranges  0x00001480       0x10 zephyr/libzephyr.a(configs.c.obj)
 .debug_ranges  0x00001490       0x20 zephyr/libzephyr.a(soc.c.obj)
 .debug_ranges  0x000014b0       0x28 zephyr/libzephyr.a(log_list.c.obj)
 .debug_ranges  0x000014d8      0xa88 zephyr/libzephyr.a(log_core.c.obj)
 .debug_ranges  0x00001f60      0x198 zephyr/libzephyr.a(log_msg.c.obj)
 .debug_ranges  0x000020f8      0x228 zephyr/libzephyr.a(log_output.c.obj)
 .debug_ranges  0x00002320      0x370 zephyr/libzephyr.a(log_cmds.c.obj)
 .debug_ranges  0x00002690      0x118 zephyr/libzephyr.a(kernel_service.c.obj)
 .debug_ranges  0x000027a8       0x20 zephyr/libzephyr.a(device_service.c.obj)
 .debug_ranges  0x000027c8       0x50 zephyr/libzephyr.a(date_service.c.obj)
 .debug_ranges  0x00002818      0x728 zephyr/libzephyr.a(shell.c.obj)
 .debug_ranges  0x00002f40       0x20 zephyr/libzephyr.a(shell_fprintf.c.obj)
 .debug_ranges  0x00002f60      0x1e8 zephyr/libzephyr.a(shell_utils.c.obj)
 .debug_ranges  0x00003148      0x1e8 zephyr/libzephyr.a(shell_ops.c.obj)
 .debug_ranges  0x00003330      0x1b0 zephyr/libzephyr.a(shell_uart.c.obj)
 .debug_ranges  0x000034e0      0x118 zephyr/libzephyr.a(shell_help.c.obj)
 .debug_ranges  0x000035f8      0x250 zephyr/libzephyr.a(shell_cmds.c.obj)
 .debug_ranges  0x00003848      0x140 zephyr/libzephyr.a(shell_history.c.obj)
 .debug_ranges  0x00003988      0x288 zephyr/libzephyr.a(shell_log_backend.c.obj)
 .debug_ranges  0x00003c10       0xb8 zephyr/libzephyr.a(shell_wildcard.c.obj)
 .debug_ranges  0x00003cc8       0x30 zephyr/libzephyr.a(power.c.obj)
 .debug_ranges  0x00003cf8       0x28 zephyr/libzephyr.a(reboot.c.obj)
 .debug_ranges  0x00003d20       0x48 zephyr/libzephyr.a(uart_console.c.obj)
 .debug_ranges  0x00003d68      0x7a0 zephyr/libzephyr.a(clock_control_nrf.c.obj)
 .debug_ranges  0x00004508       0x30 zephyr/libzephyr.a(sys_clock_init.c.obj)
 .debug_ranges  0x00004538      0x500 zephyr/libzephyr.a(nrf_rtc_timer.c.obj)
 .debug_ranges  0x00004a38       0x20 zephyr/libzephyr.a(secure_services_ns.c.obj)
 .debug_ranges  0x00004a58       0x10 zephyr/arch/arch/arm/core/aarch32/libarch__arm__core__aarch32.a(swap.c.obj)
 .debug_ranges  0x00004a68       0x50 zephyr/arch/arch/arm/core/aarch32/libarch__arm__core__aarch32.a(irq_manage.c.obj)
 .debug_ranges  0x00004ab8       0x38 zephyr/arch/arch/arm/core/aarch32/libarch__arm__core__aarch32.a(thread.c.obj)
 .debug_ranges  0x00004af0      0x140 zephyr/arch/arch/arm/core/aarch32/libarch__arm__core__aarch32.a(fatal.c.obj)
 .debug_ranges  0x00004c30       0x10 zephyr/arch/arch/arm/core/aarch32/libarch__arm__core__aarch32.a(nmi.c.obj)
 .debug_ranges  0x00004c40       0x40 zephyr/arch/arch/arm/core/aarch32/libarch__arm__core__aarch32.a(prep_c.c.obj)
 .debug_ranges  0x00004c80      0x7f0 zephyr/arch/arch/arm/core/aarch32/cortex_m/libarch__arm__core__aarch32__cortex_m.a(fault.c.obj)
 .debug_ranges  0x00005470       0x50 zephyr/arch/arch/arm/core/aarch32/cortex_m/libarch__arm__core__aarch32__cortex_m.a(scb.c.obj)
 .debug_ranges  0x000054c0       0x30 zephyr/arch/arch/arm/core/aarch32/cortex_m/libarch__arm__core__aarch32__cortex_m.a(irq_init.c.obj)
 .debug_ranges  0x000054f0       0x40 zephyr/arch/arch/arm/core/aarch32/cortex_m/libarch__arm__core__aarch32__cortex_m.a(thread_abort.c.obj)
 .debug_ranges  0x00005530       0x18 zephyr/arch/arch/arm/core/aarch32/cortex_m/mpu/libarch__arm__core__aarch32__cortex_m__mpu.a(arm_core_mpu.c.obj)
 .debug_ranges  0x00005548      0x3a8 zephyr/arch/arch/arm/core/aarch32/cortex_m/mpu/libarch__arm__core__aarch32__cortex_m__mpu.a(arm_mpu.c.obj)
 .debug_ranges  0x000058f0       0xd8 zephyr/arch/arch/arm/core/aarch32/cortex_m/cmse/libarch__arm__core__aarch32__cortex_m__cmse.a(arm_core_cmse.c.obj)
 .debug_ranges  0x000059c8       0x10 zephyr/lib/libc/minimal/liblib__libc__minimal.a(strtol.c.obj)
 .debug_ranges  0x000059d8       0x10 zephyr/lib/libc/minimal/liblib__libc__minimal.a(strstr.c.obj)
 .debug_ranges  0x000059e8       0x88 zephyr/lib/libc/minimal/liblib__libc__minimal.a(string.c.obj)
 .debug_ranges  0x00005a70       0x78 zephyr/lib/libc/minimal/liblib__libc__minimal.a(stdout_console.c.obj)
 .debug_ranges  0x00005ae8       0x30 zephyr/lib/libc/minimal/liblib__libc__minimal.a(sprintf.c.obj)
 .debug_ranges  0x00005b18       0x28 zephyr/lib/libc/minimal/liblib__libc__minimal.a(fprintf.c.obj)
 .debug_ranges  0x00005b40       0x38 zephyr/lib/libc/minimal/liblib__libc__minimal.a(gmtime.c.obj)
 .debug_ranges  0x00005b78      0x128 zephyr/lib/posix/liblib__posix.a(clock.c.obj)
 .debug_ranges  0x00005ca0      0x748 zephyr/drivers/gpio/libdrivers__gpio.a(gpio_nrfx.c.obj)
 .debug_ranges  0x000063e8      0x828 zephyr/drivers/serial/libdrivers__serial.a(uart_nrfx_uarte.c.obj)
 .debug_ranges  0x00006c10       0x60 modules/nrf/lib/fatal_error/lib..__nrf__lib__fatal_error.a(fatal_error.c.obj)
 .debug_ranges  0x00006c70      0x190 modules/nrf/subsys/fw_info/lib..__nrf__subsys__fw_info.a(fw_info.c.obj)
 .debug_ranges  0x00006e00       0x10 modules/nordic/lib..__modules__hal__nordic.a(system_nrf9160.c.obj)
 .debug_ranges  0x00006e10       0x20 modules/nordic/lib..__modules__hal__nordic.a(nrfx_glue.c.obj)
 .debug_ranges  0x00006e30      0x260 modules/nordic/lib..__modules__hal__nordic.a(nrfx_clock.c.obj)
 .debug_ranges  0x00007090      0x178 modules/nordic/lib..__modules__hal__nordic.a(nrfx_dppi.c.obj)
 .debug_ranges  0x00007208       0xb0 zephyr/kernel/libkernel.a(device.c.obj)
 .debug_ranges  0x000072b8       0x10 zephyr/kernel/libkernel.a(errno.c.obj)
 .debug_ranges  0x000072c8      0x1b0 zephyr/kernel/libkernel.a(fatal.c.obj)
 .debug_ranges  0x00007478       0x60 zephyr/kernel/libkernel.a(idle.c.obj)
 .debug_ranges  0x000074d8      0x1f8 zephyr/kernel/libkernel.a(init.c.obj)
 .debug_ranges  0x000076d0      0x138 zephyr/kernel/libkernel.a(mem_slab.c.obj)
 .debug_ranges  0x00007808      0x170 zephyr/kernel/libkernel.a(msg_q.c.obj)
 .debug_ranges  0x00007978       0xf8 zephyr/kernel/libkernel.a(mutex.c.obj)
 .debug_ranges  0x00007a70      0x398 zephyr/kernel/libkernel.a(queue.c.obj)
 .debug_ranges  0x00007e08     0x1220 zephyr/kernel/libkernel.a(sched.c.obj)
 .debug_ranges  0x00009028       0x98 zephyr/kernel/libkernel.a(sem.c.obj)
 .debug_ranges  0x000090c0      0x428 zephyr/kernel/libkernel.a(thread.c.obj)
 .debug_ranges  0x000094e8       0x28 zephyr/kernel/libkernel.a(thread_abort.c.obj)
 .debug_ranges  0x00009510       0x10 zephyr/kernel/libkernel.a(version.c.obj)
 .debug_ranges  0x00009520      0x468 zephyr/kernel/libkernel.a(timeout.c.obj)
 .debug_ranges  0x00009988      0x100 zephyr/kernel/libkernel.a(timer.c.obj)
 .debug_ranges  0x00009a88      0x4d8 zephyr/kernel/libkernel.a(poll.c.obj)
 .debug_ranges  0x00009f60       0x70 zephyr/kernel/libkernel.a(mempool.c.obj)
 .debug_ranges  0x00009fd0       0xa8 zephyr/kernel/libkernel.a(kheap.c.obj)
 .debug_ranges  0x0000a078       0x10 zephyr/CMakeFiles/offsets.dir/arch/arm/core/offsets/offsets.c.obj

.debug_macro
 *(SORT_BY_ALIGNMENT(.debug_macro))

.ARM.attributes
                0x00000000       0x34
 *(SORT_BY_ALIGNMENT(.ARM.attributes))
 .ARM.attributes
                0x00000000       0x36 zephyr/CMakeFiles/zephyr_final.dir/misc/empty_file.c.obj
 .ARM.attributes
                0x00000036       0x36 zephyr/CMakeFiles/zephyr_final.dir/isr_tables.c.obj
 .ARM.attributes
                0x0000006c       0x34 app/libapp.a(main.c.obj)
 .ARM.attributes
                0x000000a0       0x34 app/libapp.a(test_module.c.obj)
 .ARM.attributes
                0x000000d4       0x34 app/libapp.a(dynamic_cmd.c.obj)
 .ARM.attributes
                0x00000108       0x34 app/libapp.a(qsort.c.obj)
 .ARM.attributes
                0x0000013c       0x34 zephyr/libzephyr.a(fnmatch.c.obj)
 .ARM.attributes
                0x00000170       0x34 zephyr/libzephyr.a(cbprintf.c.obj)
 .ARM.attributes
                0x000001a4       0x34 zephyr/libzephyr.a(crc32_sw.c.obj)
 .ARM.attributes
                0x000001d8       0x34 zephyr/libzephyr.a(crc16_sw.c.obj)
 .ARM.attributes
                0x0000020c       0x34 zephyr/libzephyr.a(crc8_sw.c.obj)
 .ARM.attributes
                0x00000240       0x34 zephyr/libzephyr.a(crc7_sw.c.obj)
 .ARM.attributes
                0x00000274       0x34 zephyr/libzephyr.a(dec.c.obj)
 .ARM.attributes
                0x000002a8       0x34 zephyr/libzephyr.a(fdtable.c.obj)
 .ARM.attributes
                0x000002dc       0x34 zephyr/libzephyr.a(hex.c.obj)
 .ARM.attributes
                0x00000310       0x34 zephyr/libzephyr.a(mempool.c.obj)
 .ARM.attributes
                0x00000344       0x34 zephyr/libzephyr.a(notify.c.obj)
 .ARM.attributes
                0x00000378       0x34 zephyr/libzephyr.a(printk.c.obj)
 .ARM.attributes
                0x000003ac       0x34 zephyr/libzephyr.a(onoff.c.obj)
 .ARM.attributes
                0x000003e0       0x34 zephyr/libzephyr.a(rb.c.obj)
 .ARM.attributes
                0x00000414       0x34 zephyr/libzephyr.a(sem.c.obj)
 .ARM.attributes
                0x00000448       0x34 zephyr/libzephyr.a(thread_entry.c.obj)
 .ARM.attributes
                0x0000047c       0x34 zephyr/libzephyr.a(timeutil.c.obj)
 .ARM.attributes
                0x000004b0       0x34 zephyr/libzephyr.a(work_q.c.obj)
 .ARM.attributes
                0x000004e4       0x34 zephyr/libzephyr.a(heap.c.obj)
 .ARM.attributes
                0x00000518       0x34 zephyr/libzephyr.a(heap-validate.c.obj)
 .ARM.attributes
                0x0000054c       0x34 zephyr/libzephyr.a(cbprintf_complete.c.obj)
 .ARM.attributes
                0x00000580       0x34 zephyr/libzephyr.a(ring_buffer.c.obj)
 .ARM.attributes
                0x000005b4       0x34 zephyr/libzephyr.a(configs.c.obj)
 .ARM.attributes
                0x000005e8       0x34 zephyr/libzephyr.a(soc.c.obj)
 .ARM.attributes
                0x0000061c       0x34 zephyr/libzephyr.a(power.c.obj)
 .ARM.attributes
                0x00000650       0x36 zephyr/libzephyr.a(validate_base_addresses.c.obj)
 .ARM.attributes
                0x00000686       0x36 zephyr/libzephyr.a(validate_enabled_instances.c.obj)
 .ARM.attributes
                0x000006bc       0x34 zephyr/libzephyr.a(log_list.c.obj)
 .ARM.attributes
                0x000006f0       0x34 zephyr/libzephyr.a(log_core.c.obj)
 .ARM.attributes
                0x00000724       0x34 zephyr/libzephyr.a(log_msg.c.obj)
 .ARM.attributes
                0x00000758       0x34 zephyr/libzephyr.a(log_output.c.obj)
 .ARM.attributes
                0x0000078c       0x34 zephyr/libzephyr.a(log_cmds.c.obj)
 .ARM.attributes
                0x000007c0       0x34 zephyr/libzephyr.a(kernel_service.c.obj)
 .ARM.attributes
                0x000007f4       0x34 zephyr/libzephyr.a(device_service.c.obj)
 .ARM.attributes
                0x00000828       0x34 zephyr/libzephyr.a(date_service.c.obj)
 .ARM.attributes
                0x0000085c       0x34 zephyr/libzephyr.a(shell.c.obj)
 .ARM.attributes
                0x00000890       0x34 zephyr/libzephyr.a(shell_fprintf.c.obj)
 .ARM.attributes
                0x000008c4       0x34 zephyr/libzephyr.a(shell_utils.c.obj)
 .ARM.attributes
                0x000008f8       0x34 zephyr/libzephyr.a(shell_ops.c.obj)
 .ARM.attributes
                0x0000092c       0x34 zephyr/libzephyr.a(shell_uart.c.obj)
 .ARM.attributes
                0x00000960       0x34 zephyr/libzephyr.a(shell_help.c.obj)
 .ARM.attributes
                0x00000994       0x34 zephyr/libzephyr.a(shell_cmds.c.obj)
 .ARM.attributes
                0x000009c8       0x34 zephyr/libzephyr.a(shell_history.c.obj)
 .ARM.attributes
                0x000009fc       0x34 zephyr/libzephyr.a(shell_log_backend.c.obj)
 .ARM.attributes
                0x00000a30       0x34 zephyr/libzephyr.a(shell_wildcard.c.obj)
 .ARM.attributes
                0x00000a64       0x34 zephyr/libzephyr.a(power.c.obj)
 .ARM.attributes
                0x00000a98       0x34 zephyr/libzephyr.a(reboot.c.obj)
 .ARM.attributes
                0x00000acc       0x34 zephyr/libzephyr.a(policy_residency.c.obj)
 .ARM.attributes
                0x00000b00       0x34 zephyr/libzephyr.a(uart_console.c.obj)
 .ARM.attributes
                0x00000b34       0x34 zephyr/libzephyr.a(clock_control_nrf.c.obj)
 .ARM.attributes
                0x00000b68       0x34 zephyr/libzephyr.a(sys_clock_init.c.obj)
 .ARM.attributes
                0x00000b9c       0x34 zephyr/libzephyr.a(nrf_rtc_timer.c.obj)
 .ARM.attributes
                0x00000bd0       0x34 zephyr/libzephyr.a(secure_services_ns.c.obj)
 .ARM.attributes
                0x00000c04       0x36 zephyr/arch/common/libarch__common.a(sw_isr_common.c.obj)
 .ARM.attributes
                0x00000c3a       0x34 zephyr/arch/arch/arm/core/aarch32/libarch__arm__core__aarch32.a(swap.c.obj)
 .ARM.attributes
                0x00000c6e       0x34 zephyr/arch/arch/arm/core/aarch32/libarch__arm__core__aarch32.a(irq_manage.c.obj)
 .ARM.attributes
                0x00000ca2       0x34 zephyr/arch/arch/arm/core/aarch32/libarch__arm__core__aarch32.a(thread.c.obj)
 .ARM.attributes
                0x00000cd6       0x34 zephyr/arch/arch/arm/core/aarch32/libarch__arm__core__aarch32.a(fatal.c.obj)
 .ARM.attributes
                0x00000d0a       0x34 zephyr/arch/arch/arm/core/aarch32/libarch__arm__core__aarch32.a(nmi.c.obj)
 .ARM.attributes
                0x00000d3e       0x34 zephyr/arch/arch/arm/core/aarch32/libarch__arm__core__aarch32.a(prep_c.c.obj)
 .ARM.attributes
                0x00000d72       0x22 zephyr/arch/arch/arm/core/aarch32/libarch__arm__core__aarch32.a(swap_helper.S.obj)
 .ARM.attributes
                0x00000d94       0x22 zephyr/arch/arch/arm/core/aarch32/libarch__arm__core__aarch32.a(cpu_idle.S.obj)
 .ARM.attributes
                0x00000db6       0x22 zephyr/arch/arch/arm/core/aarch32/libarch__arm__core__aarch32.a(nmi_on_reset.S.obj)
 .ARM.attributes
                0x00000dd8       0x22 zephyr/arch/arch/arm/core/aarch32/libarch__arm__core__aarch32.a(isr_wrapper.S.obj)
 .ARM.attributes
                0x00000dfa       0x22 zephyr/arch/arch/arm/core/aarch32/cortex_m/libarch__arm__core__aarch32__cortex_m.a(vector_table.S.obj)
 .ARM.attributes
                0x00000e1c       0x22 zephyr/arch/arch/arm/core/aarch32/cortex_m/libarch__arm__core__aarch32__cortex_m.a(reset.S.obj)
 .ARM.attributes
                0x00000e3e       0x22 zephyr/arch/arch/arm/core/aarch32/cortex_m/libarch__arm__core__aarch32__cortex_m.a(fault_s.S.obj)
 .ARM.attributes
                0x00000e60       0x22 zephyr/arch/arch/arm/core/aarch32/cortex_m/libarch__arm__core__aarch32__cortex_m.a(exc_exit.S.obj)
 .ARM.attributes
                0x00000e82       0x34 zephyr/arch/arch/arm/core/aarch32/cortex_m/libarch__arm__core__aarch32__cortex_m.a(fault.c.obj)
 .ARM.attributes
                0x00000eb6       0x34 zephyr/arch/arch/arm/core/aarch32/cortex_m/libarch__arm__core__aarch32__cortex_m.a(scb.c.obj)
 .ARM.attributes
                0x00000eea       0x34 zephyr/arch/arch/arm/core/aarch32/cortex_m/libarch__arm__core__aarch32__cortex_m.a(irq_init.c.obj)
 .ARM.attributes
                0x00000f1e       0x34 zephyr/arch/arch/arm/core/aarch32/cortex_m/libarch__arm__core__aarch32__cortex_m.a(thread_abort.c.obj)
 .ARM.attributes
                0x00000f52       0x34 zephyr/arch/arch/arm/core/aarch32/cortex_m/mpu/libarch__arm__core__aarch32__cortex_m__mpu.a(arm_core_mpu.c.obj)
 .ARM.attributes
                0x00000f86       0x34 zephyr/arch/arch/arm/core/aarch32/cortex_m/mpu/libarch__arm__core__aarch32__cortex_m__mpu.a(arm_mpu.c.obj)
 .ARM.attributes
                0x00000fba       0x34 zephyr/arch/arch/arm/core/aarch32/cortex_m/cmse/libarch__arm__core__aarch32__cortex_m__cmse.a(arm_core_cmse.c.obj)
 .ARM.attributes
                0x00000fee       0x34 zephyr/lib/libc/minimal/liblib__libc__minimal.a(abort.c.obj)
 .ARM.attributes
                0x00001022       0x34 zephyr/lib/libc/minimal/liblib__libc__minimal.a(atoi.c.obj)
 .ARM.attributes
                0x00001056       0x34 zephyr/lib/libc/minimal/liblib__libc__minimal.a(strtol.c.obj)
 .ARM.attributes
                0x0000108a       0x34 zephyr/lib/libc/minimal/liblib__libc__minimal.a(strtoul.c.obj)
 .ARM.attributes
                0x000010be       0x34 zephyr/lib/libc/minimal/liblib__libc__minimal.a(malloc.c.obj)
 .ARM.attributes
                0x000010f2       0x34 zephyr/lib/libc/minimal/liblib__libc__minimal.a(bsearch.c.obj)
 .ARM.attributes
                0x00001126       0x34 zephyr/lib/libc/minimal/liblib__libc__minimal.a(exit.c.obj)
 .ARM.attributes
                0x0000115a       0x34 zephyr/lib/libc/minimal/liblib__libc__minimal.a(strncasecmp.c.obj)
 .ARM.attributes
                0x0000118e       0x34 zephyr/lib/libc/minimal/liblib__libc__minimal.a(strstr.c.obj)
 .ARM.attributes
                0x000011c2       0x34 zephyr/lib/libc/minimal/liblib__libc__minimal.a(string.c.obj)
 .ARM.attributes
                0x000011f6       0x34 zephyr/lib/libc/minimal/liblib__libc__minimal.a(strspn.c.obj)
 .ARM.attributes
                0x0000122a       0x34 zephyr/lib/libc/minimal/liblib__libc__minimal.a(stdout_console.c.obj)
 .ARM.attributes
                0x0000125e       0x34 zephyr/lib/libc/minimal/liblib__libc__minimal.a(sprintf.c.obj)
 .ARM.attributes
                0x00001292       0x34 zephyr/lib/libc/minimal/liblib__libc__minimal.a(fprintf.c.obj)
 .ARM.attributes
                0x000012c6       0x34 zephyr/lib/libc/minimal/liblib__libc__minimal.a(gmtime.c.obj)
 .ARM.attributes
                0x000012fa       0x34 zephyr/lib/posix/liblib__posix.a(pthread_common.c.obj)
 .ARM.attributes
                0x0000132e       0x34 zephyr/lib/posix/liblib__posix.a(clock.c.obj)
 .ARM.attributes
                0x00001362       0x34 zephyr/lib/posix/liblib__posix.a(sleep.c.obj)
 .ARM.attributes
                0x00001396       0x34 zephyr/lib/posix/liblib__posix.a(timer.c.obj)
 .ARM.attributes
                0x000013ca       0x34 zephyr/lib/posix/liblib__posix.a(nanosleep.c.obj)
 .ARM.attributes
                0x000013fe       0x36 zephyr/soc/arm/common/cortex_m/libsoc__arm__common__cortex_m.a(arm_mpu_regions.c.obj)
 .ARM.attributes
                0x00001434       0x34 zephyr/drivers/gpio/libdrivers__gpio.a(gpio_nrfx.c.obj)
 .ARM.attributes
                0x00001468       0x34 zephyr/drivers/serial/libdrivers__serial.a(uart_nrfx_uarte.c.obj)
 .ARM.attributes
                0x0000149c       0x34 modules/nrf/lib/fatal_error/lib..__nrf__lib__fatal_error.a(fatal_error.c.obj)
 .ARM.attributes
                0x000014d0       0x34 modules/nrf/subsys/fw_info/lib..__nrf__subsys__fw_info.a(fw_info.c.obj)
 .ARM.attributes
                0x00001504       0x34 modules/nordic/lib..__modules__hal__nordic.a(system_nrf9160.c.obj)
 .ARM.attributes
                0x00001538       0x34 modules/nordic/lib..__modules__hal__nordic.a(nrfx_glue.c.obj)
 .ARM.attributes
                0x0000156c       0x34 modules/nordic/lib..__modules__hal__nordic.a(nrfx_clock.c.obj)
 .ARM.attributes
                0x000015a0       0x34 modules/nordic/lib..__modules__hal__nordic.a(nrfx_dppi.c.obj)
 .ARM.attributes
                0x000015d4       0x34 modules/nordic/lib..__modules__hal__nordic.a(nrfx_nvmc.c.obj)
 .ARM.attributes
                0x00001608       0x34 zephyr/kernel/libkernel.a(device.c.obj)
 .ARM.attributes
                0x0000163c       0x34 zephyr/kernel/libkernel.a(errno.c.obj)
 .ARM.attributes
                0x00001670       0x34 zephyr/kernel/libkernel.a(fatal.c.obj)
 .ARM.attributes
                0x000016a4       0x34 zephyr/kernel/libkernel.a(idle.c.obj)
 .ARM.attributes
                0x000016d8       0x34 zephyr/kernel/libkernel.a(init.c.obj)
 .ARM.attributes
                0x0000170c       0x34 zephyr/kernel/libkernel.a(mem_slab.c.obj)
 .ARM.attributes
                0x00001740       0x34 zephyr/kernel/libkernel.a(msg_q.c.obj)
 .ARM.attributes
                0x00001774       0x34 zephyr/kernel/libkernel.a(mutex.c.obj)
 .ARM.attributes
                0x000017a8       0x34 zephyr/kernel/libkernel.a(queue.c.obj)
 .ARM.attributes
                0x000017dc       0x34 zephyr/kernel/libkernel.a(sched.c.obj)
 .ARM.attributes
                0x00001810       0x34 zephyr/kernel/libkernel.a(sem.c.obj)
 .ARM.attributes
                0x00001844       0x34 zephyr/kernel/libkernel.a(thread.c.obj)
 .ARM.attributes
                0x00001878       0x34 zephyr/kernel/libkernel.a(thread_abort.c.obj)
 .ARM.attributes
                0x000018ac       0x34 zephyr/kernel/libkernel.a(version.c.obj)
 .ARM.attributes
                0x000018e0       0x34 zephyr/kernel/libkernel.a(timeout.c.obj)
 .ARM.attributes
                0x00001914       0x34 zephyr/kernel/libkernel.a(timer.c.obj)
 .ARM.attributes
                0x00001948       0x34 zephyr/kernel/libkernel.a(poll.c.obj)
 .ARM.attributes
                0x0000197c       0x34 zephyr/kernel/libkernel.a(mempool.c.obj)
 .ARM.attributes
                0x000019b0       0x34 zephyr/kernel/libkernel.a(kheap.c.obj)
 .ARM.attributes
                0x000019e4       0x34 zephyr/CMakeFiles/offsets.dir/arch/arm/core/offsets/offsets.c.obj
 .ARM.attributes
                0x00001a18       0x32 c:/users/pablo/ncs/v1.4.99-dev1/toolchain/opt/bin/../lib/gcc/arm-none-eabi/9.2.1/thumb/v8-m.main/nofp\libgcc.a(cmse.o)
 .ARM.attributes
                0x00001a4a       0x22 c:/users/pablo/ncs/v1.4.99-dev1/toolchain/opt/bin/../lib/gcc/arm-none-eabi/9.2.1/thumb/v8-m.main/nofp\libgcc.a(_aeabi_ldivmod.o)
 .ARM.attributes
                0x00001a6c       0x22 c:/users/pablo/ncs/v1.4.99-dev1/toolchain/opt/bin/../lib/gcc/arm-none-eabi/9.2.1/thumb/v8-m.main/nofp\libgcc.a(_aeabi_uldivmod.o)
 .ARM.attributes
                0x00001a8e       0x32 c:/users/pablo/ncs/v1.4.99-dev1/toolchain/opt/bin/../lib/gcc/arm-none-eabi/9.2.1/thumb/v8-m.main/nofp\libgcc.a(_udivmoddi4.o)
 .ARM.attributes
                0x00001ac0       0x22 c:/users/pablo/ncs/v1.4.99-dev1/toolchain/opt/bin/../lib/gcc/arm-none-eabi/9.2.1/thumb/v8-m.main/nofp\libgcc.a(_dvmd_tls.o)
 .ARM.attributes
                0x00001ae2       0x34 ../mylib/src/libblst.a(server.o)
 *(SORT_BY_ALIGNMENT(.gnu.attributes))

.last_section   0x00028844        0x0
                0x0001c844                _flash_used = (LOADADDR (.last_section) - _image_rom_start)
LOAD app/libapp.a
LOAD zephyr/libzephyr.a
LOAD zephyr/arch/common/libarch__common.a
LOAD zephyr/arch/arch/arm/core/aarch32/libarch__arm__core__aarch32.a
LOAD zephyr/arch/arch/arm/core/aarch32/cortex_m/libarch__arm__core__aarch32__cortex_m.a
LOAD zephyr/arch/arch/arm/core/aarch32/cortex_m/mpu/libarch__arm__core__aarch32__cortex_m__mpu.a
LOAD zephyr/arch/arch/arm/core/aarch32/cortex_m/cmse/libarch__arm__core__aarch32__cortex_m__cmse.a
LOAD zephyr/lib/libc/minimal/liblib__libc__minimal.a
LOAD zephyr/lib/posix/liblib__posix.a
LOAD zephyr/soc/arm/common/cortex_m/libsoc__arm__common__cortex_m.a
LOAD zephyr/drivers/gpio/libdrivers__gpio.a
LOAD zephyr/drivers/serial/libdrivers__serial.a
LOAD modules/nrf/lib/fatal_error/lib..__nrf__lib__fatal_error.a
LOAD modules/nrf/subsys/fw_info/lib..__nrf__subsys__fw_info.a
LOAD modules/nordic/lib..__modules__hal__nordic.a
LOAD zephyr/kernel/libkernel.a
LOAD zephyr/CMakeFiles/offsets.dir/arch/arm/core/offsets/offsets.c.obj
LOAD c:/users/pablo/ncs/v1.4.99-dev1/toolchain/opt/bin/../lib/gcc/arm-none-eabi/9.2.1/thumb/v8-m.main/nofp\libgcc.a
LOAD ../mylib/src/libblst.a
LOAD zephyr/arch/common/libisr_tables.a
LOAD spm/libspmsecureentries.a
OUTPUT(zephyr\zephyr.elf elf32-littlearm)
